
stm_audio_board_Octave_test_CM7.elf:     file format elf32-littlearm

Sections:
Idx Name          Size      VMA       LMA       File off  Algn
  0 .isr_vector   00000298  08000000  08000000  00010000  2**0
                  CONTENTS, ALLOC, LOAD, READONLY, DATA
  1 .text         00005518  08000298  08000298  00010298  2**3
                  CONTENTS, ALLOC, LOAD, READONLY, CODE
  2 .rodata       00000018  080057b0  080057b0  000157b0  2**2
                  CONTENTS, ALLOC, LOAD, READONLY, DATA
  3 .ARM.extab    00000000  080057c8  080057c8  00020384  2**0
                  CONTENTS
  4 .ARM          00000000  080057c8  080057c8  00020384  2**0
                  CONTENTS
  5 .preinit_array 00000000  080057c8  080057c8  00020384  2**0
                  CONTENTS, ALLOC, LOAD, DATA
  6 .init_array   00000004  080057c8  080057c8  000157c8  2**2
                  CONTENTS, ALLOC, LOAD, DATA
  7 .fini_array   00000004  080057cc  080057cc  000157cc  2**2
                  CONTENTS, ALLOC, LOAD, DATA
  8 .data         00000384  24000000  080057d0  00020000  2**2
                  CONTENTS, ALLOC, LOAD, DATA
  9 .bss          00000b14  24000384  08005b54  00020384  2**2
                  ALLOC
 10 ._user_heap_stack 00000600  24000e98  08005b54  00020e98  2**0
                  ALLOC
 11 .ARM.attributes 0000002e  00000000  00000000  00020384  2**0
                  CONTENTS, READONLY
 12 .comment      000000b8  00000000  00000000  000203b2  2**0
                  CONTENTS, READONLY
 13 .debug_info   000170a1  00000000  00000000  0002046a  2**0
                  CONTENTS, READONLY, DEBUGGING, OCTETS
 14 .debug_abbrev 0000376c  00000000  00000000  0003750b  2**0
                  CONTENTS, READONLY, DEBUGGING, OCTETS
 15 .debug_loclists 00005da9  00000000  00000000  0003ac77  2**0
                  CONTENTS, READONLY, DEBUGGING, OCTETS
 16 .debug_aranges 00000ae8  00000000  00000000  00040a20  2**3
                  CONTENTS, READONLY, DEBUGGING, OCTETS
 17 .debug_rnglists 00000bca  00000000  00000000  00041508  2**0
                  CONTENTS, READONLY, DEBUGGING, OCTETS
 18 .debug_macro  0003eff2  00000000  00000000  000420d2  2**0
                  CONTENTS, READONLY, DEBUGGING, OCTETS
 19 .debug_line   00015ac5  00000000  00000000  000810c4  2**0
                  CONTENTS, READONLY, DEBUGGING, OCTETS
 20 .debug_str    00195dbb  00000000  00000000  00096b89  2**0
                  CONTENTS, READONLY, DEBUGGING, OCTETS
 21 .debug_frame  00001f34  00000000  00000000  0022c944  2**2
                  CONTENTS, READONLY, DEBUGGING, OCTETS
 22 .debug_line_str 0000009a  00000000  00000000  0022e878  2**0
                  CONTENTS, READONLY, DEBUGGING, OCTETS
 23 .debug_loc    000017a3  00000000  00000000  0022e912  2**0
                  CONTENTS, READONLY, DEBUGGING, OCTETS
 24 .debug_ranges 00000070  00000000  00000000  002300b5  2**0
                  CONTENTS, READONLY, DEBUGGING, OCTETS

Disassembly of section .text:

08000298 <__do_global_dtors_aux>:
 8000298:	b510      	push	{r4, lr}
 800029a:	4c05      	ldr	r4, [pc, #20]	; (80002b0 <__do_global_dtors_aux+0x18>)
 800029c:	7823      	ldrb	r3, [r4, #0]
 800029e:	b933      	cbnz	r3, 80002ae <__do_global_dtors_aux+0x16>
 80002a0:	4b04      	ldr	r3, [pc, #16]	; (80002b4 <__do_global_dtors_aux+0x1c>)
 80002a2:	b113      	cbz	r3, 80002aa <__do_global_dtors_aux+0x12>
 80002a4:	4804      	ldr	r0, [pc, #16]	; (80002b8 <__do_global_dtors_aux+0x20>)
 80002a6:	f3af 8000 	nop.w
 80002aa:	2301      	movs	r3, #1
 80002ac:	7023      	strb	r3, [r4, #0]
 80002ae:	bd10      	pop	{r4, pc}
 80002b0:	24000384 	.word	0x24000384
 80002b4:	00000000 	.word	0x00000000
 80002b8:	08005798 	.word	0x08005798

080002bc <frame_dummy>:
 80002bc:	b508      	push	{r3, lr}
 80002be:	4b03      	ldr	r3, [pc, #12]	; (80002cc <frame_dummy+0x10>)
 80002c0:	b11b      	cbz	r3, 80002ca <frame_dummy+0xe>
 80002c2:	4903      	ldr	r1, [pc, #12]	; (80002d0 <frame_dummy+0x14>)
 80002c4:	4803      	ldr	r0, [pc, #12]	; (80002d4 <frame_dummy+0x18>)
 80002c6:	f3af 8000 	nop.w
 80002ca:	bd08      	pop	{r3, pc}
 80002cc:	00000000 	.word	0x00000000
 80002d0:	24000388 	.word	0x24000388
 80002d4:	08005798 	.word	0x08005798

080002d8 <SystemInit>:
  */
void SystemInit (void)
{
  /* FPU settings ------------------------------------------------------------*/
  #if (__FPU_PRESENT == 1) && (__FPU_USED == 1)
    SCB->CPACR |= ((3UL << (10*2))|(3UL << (11*2)));  /* set CP10 and CP11 Full Access */
 80002d8:	4b2d      	ldr	r3, [pc, #180]	; (8000390 <SystemInit+0xb8>)
 SCB->SCR |= SCB_SCR_SEVONPEND_Msk;

#if defined(CORE_CM7)
  /* Reset the RCC clock configuration to the default reset state ------------*/
   /* Increasing the CPU frequency */
  if(FLASH_LATENCY_DEFAULT  > (READ_BIT((FLASH->ACR), FLASH_ACR_LATENCY)))
 80002da:	492e      	ldr	r1, [pc, #184]	; (8000394 <SystemInit+0xbc>)
    SCB->CPACR |= ((3UL << (10*2))|(3UL << (11*2)));  /* set CP10 and CP11 Full Access */
 80002dc:	f8d3 2088 	ldr.w	r2, [r3, #136]	; 0x88
 80002e0:	f442 0270 	orr.w	r2, r2, #15728640	; 0xf00000
{
 80002e4:	b410      	push	{r4}
    SCB->CPACR |= ((3UL << (10*2))|(3UL << (11*2)));  /* set CP10 and CP11 Full Access */
 80002e6:	f8c3 2088 	str.w	r2, [r3, #136]	; 0x88
 SCB->SCR |= SCB_SCR_SEVONPEND_Msk;
 80002ea:	691a      	ldr	r2, [r3, #16]
 80002ec:	f042 0210 	orr.w	r2, r2, #16
 80002f0:	611a      	str	r2, [r3, #16]
  if(FLASH_LATENCY_DEFAULT  > (READ_BIT((FLASH->ACR), FLASH_ACR_LATENCY)))
 80002f2:	680b      	ldr	r3, [r1, #0]
 80002f4:	f003 030f 	and.w	r3, r3, #15
 80002f8:	2b06      	cmp	r3, #6
 80002fa:	d805      	bhi.n	8000308 <SystemInit+0x30>
  {
    /* Program the new number of wait states to the LATENCY bits in the FLASH_ACR register */
    MODIFY_REG(FLASH->ACR, FLASH_ACR_LATENCY, (uint32_t)(FLASH_LATENCY_DEFAULT));
 80002fc:	680b      	ldr	r3, [r1, #0]
 80002fe:	f023 030f 	bic.w	r3, r3, #15
 8000302:	f043 0307 	orr.w	r3, r3, #7
 8000306:	600b      	str	r3, [r1, #0]
  }

  /* Set HSION bit */
  RCC->CR |= RCC_CR_HSION;
 8000308:	4b23      	ldr	r3, [pc, #140]	; (8000398 <SystemInit+0xc0>)

  /* Reset CFGR register */
  RCC->CFGR = 0x00000000;
 800030a:	2400      	movs	r4, #0

  /* Reset HSEON, HSECSSON, CSION, HSI48ON, CSIKERON, PLL1ON, PLL2ON and PLL3ON bits */
  RCC->CR &= 0xEAF6ED7FU;
 800030c:	4a23      	ldr	r2, [pc, #140]	; (800039c <SystemInit+0xc4>)
  RCC->CR |= RCC_CR_HSION;
 800030e:	6819      	ldr	r1, [r3, #0]

   /* Decreasing the number of wait states because of lower CPU frequency */
  if(FLASH_LATENCY_DEFAULT  < (READ_BIT((FLASH->ACR), FLASH_ACR_LATENCY)))
 8000310:	4820      	ldr	r0, [pc, #128]	; (8000394 <SystemInit+0xbc>)
  RCC->CR |= RCC_CR_HSION;
 8000312:	f041 0101 	orr.w	r1, r1, #1
 8000316:	6019      	str	r1, [r3, #0]
  RCC->CFGR = 0x00000000;
 8000318:	611c      	str	r4, [r3, #16]
  RCC->CR &= 0xEAF6ED7FU;
 800031a:	6819      	ldr	r1, [r3, #0]
 800031c:	400a      	ands	r2, r1
 800031e:	601a      	str	r2, [r3, #0]
  if(FLASH_LATENCY_DEFAULT  < (READ_BIT((FLASH->ACR), FLASH_ACR_LATENCY)))
 8000320:	6803      	ldr	r3, [r0, #0]
 8000322:	071b      	lsls	r3, r3, #28
 8000324:	d505      	bpl.n	8000332 <SystemInit+0x5a>
  {
    /* Program the new number of wait states to the LATENCY bits in the FLASH_ACR register */
    MODIFY_REG(FLASH->ACR, FLASH_ACR_LATENCY, (uint32_t)(FLASH_LATENCY_DEFAULT));
 8000326:	6803      	ldr	r3, [r0, #0]
 8000328:	f023 030f 	bic.w	r3, r3, #15
 800032c:	f043 0307 	orr.w	r3, r3, #7
 8000330:	6003      	str	r3, [r0, #0]
  }

  /* Reset D1CFGR register */
  RCC->D1CFGR = 0x00000000;
 8000332:	4b19      	ldr	r3, [pc, #100]	; (8000398 <SystemInit+0xc0>)
 8000334:	2200      	movs	r2, #0
  RCC->PLLCKSELR = 0x02020200;

  /* Reset PLLCFGR register */
  RCC->PLLCFGR = 0x01FF0000;
  /* Reset PLL1DIVR register */
  RCC->PLL1DIVR = 0x01010280;
 8000336:	491a      	ldr	r1, [pc, #104]	; (80003a0 <SystemInit+0xc8>)
  RCC->PLLCFGR = 0x01FF0000;
 8000338:	481a      	ldr	r0, [pc, #104]	; (80003a4 <SystemInit+0xcc>)
  RCC->PLLCKSELR = 0x02020200;
 800033a:	4c1b      	ldr	r4, [pc, #108]	; (80003a8 <SystemInit+0xd0>)
  RCC->D1CFGR = 0x00000000;
 800033c:	619a      	str	r2, [r3, #24]
  RCC->D2CFGR = 0x00000000;
 800033e:	61da      	str	r2, [r3, #28]
  RCC->D3CFGR = 0x00000000;
 8000340:	621a      	str	r2, [r3, #32]
  RCC->PLLCKSELR = 0x02020200;
 8000342:	629c      	str	r4, [r3, #40]	; 0x28
  RCC->PLLCFGR = 0x01FF0000;
 8000344:	62d8      	str	r0, [r3, #44]	; 0x2c

  /* Disable all interrupts */
  RCC->CIER = 0x00000000;

  /* Enable CortexM7 HSEM EXTI line (line 78)*/
  EXTI_D2->EMR3 |= 0x4000UL;
 8000346:	f04f 40b0 	mov.w	r0, #1476395008	; 0x58000000
  RCC->PLL1DIVR = 0x01010280;
 800034a:	6319      	str	r1, [r3, #48]	; 0x30
  RCC->PLL1FRACR = 0x00000000;
 800034c:	635a      	str	r2, [r3, #52]	; 0x34
  RCC->PLL2DIVR = 0x01010280;
 800034e:	6399      	str	r1, [r3, #56]	; 0x38
  RCC->PLL2FRACR = 0x00000000;
 8000350:	63da      	str	r2, [r3, #60]	; 0x3c
  RCC->PLL3DIVR = 0x01010280;
 8000352:	6419      	str	r1, [r3, #64]	; 0x40
  RCC->PLL3FRACR = 0x00000000;
 8000354:	645a      	str	r2, [r3, #68]	; 0x44
  RCC->CR &= 0xFFFBFFFFU;
 8000356:	6819      	ldr	r1, [r3, #0]
 8000358:	f421 2180 	bic.w	r1, r1, #262144	; 0x40000
 800035c:	6019      	str	r1, [r3, #0]
  RCC->CIER = 0x00000000;
 800035e:	661a      	str	r2, [r3, #96]	; 0x60
  EXTI_D2->EMR3 |= 0x4000UL;
 8000360:	f8d0 20e4 	ldr.w	r2, [r0, #228]	; 0xe4

  if((DBGMCU->IDCODE & 0xFFFF0000U) < 0x20000000U)
 8000364:	4911      	ldr	r1, [pc, #68]	; (80003ac <SystemInit+0xd4>)
  EXTI_D2->EMR3 |= 0x4000UL;
 8000366:	f442 4280 	orr.w	r2, r2, #16384	; 0x4000
  if((DBGMCU->IDCODE & 0xFFFF0000U) < 0x20000000U)
 800036a:	4b11      	ldr	r3, [pc, #68]	; (80003b0 <SystemInit+0xd8>)
  EXTI_D2->EMR3 |= 0x4000UL;
 800036c:	f8c0 20e4 	str.w	r2, [r0, #228]	; 0xe4
  if((DBGMCU->IDCODE & 0xFFFF0000U) < 0x20000000U)
 8000370:	680a      	ldr	r2, [r1, #0]
 8000372:	4013      	ands	r3, r2
 8000374:	f1b3 5f00 	cmp.w	r3, #536870912	; 0x20000000
 8000378:	d203      	bcs.n	8000382 <SystemInit+0xaa>
  {
    /* if stm32h7 revY*/
    /* Change  the switch matrix read issuing capability to 1 for the AXI SRAM target (Target 7) */
    *((__IO uint32_t*)0x51008108) = 0x000000001U;
 800037a:	4b0e      	ldr	r3, [pc, #56]	; (80003b4 <SystemInit+0xdc>)
 800037c:	2201      	movs	r2, #1
 800037e:	f8c3 2108 	str.w	r2, [r3, #264]	; 0x108
  /*
   * Disable the FMC bank1 (enabled after reset).
   * This, prevents CPU speculation access on this bank which blocks the use of FMC during
   * 24us. During this time the others FMC master (such as LTDC) cannot use it!
   */
  FMC_Bank1_R->BTCR[0] = 0x000030D2;
 8000382:	4b0d      	ldr	r3, [pc, #52]	; (80003b8 <SystemInit+0xe0>)
 8000384:	f243 02d2 	movw	r2, #12498	; 0x30d2
#endif /* USER_VECT_TAB_ADDRESS */

#else
#error Please #define CORE_CM4 or CORE_CM7
#endif /* CORE_CM4 */
}
 8000388:	f85d 4b04 	ldr.w	r4, [sp], #4
  FMC_Bank1_R->BTCR[0] = 0x000030D2;
 800038c:	601a      	str	r2, [r3, #0]
}
 800038e:	4770      	bx	lr
 8000390:	e000ed00 	.word	0xe000ed00
 8000394:	52002000 	.word	0x52002000
 8000398:	58024400 	.word	0x58024400
 800039c:	eaf6ed7f 	.word	0xeaf6ed7f
 80003a0:	01010280 	.word	0x01010280
 80003a4:	01ff0000 	.word	0x01ff0000
 80003a8:	02020200 	.word	0x02020200
 80003ac:	5c001000 	.word	0x5c001000
 80003b0:	ffff0000 	.word	0xffff0000
 80003b4:	51008000 	.word	0x51008000
 80003b8:	52004000 	.word	0x52004000

080003bc <ad1939_init>:

	 return 0;
}

// FUNCTION: ad1939_init sets up the interface
int ad1939_init(SPI_HandleTypeDef* hspi_codec) {
 80003bc:	e92d 41f0 	stmdb	sp!, {r4, r5, r6, r7, r8, lr}
	TXdata[2] = data;
 80003c0:	2399      	movs	r3, #153	; 0x99
	TXdata[0] = AD1939_Global_Address_Write;
 80003c2:	4cb9      	ldr	r4, [pc, #740]	; (80006a8 <ad1939_init+0x2ec>)
    AD1939_spi = hspi_codec;
 80003c4:	4db9      	ldr	r5, [pc, #740]	; (80006ac <ad1939_init+0x2f0>)
	TXdata[0] = AD1939_Global_Address_Write;
 80003c6:	f04f 0808 	mov.w	r8, #8
int ad1939_init(SPI_HandleTypeDef* hspi_codec) {
 80003ca:	b082      	sub	sp, #8
	 retval = HAL_SPI_TransmitReceive(AD1939_spi, TXdata, RXdata, 3, 1000);
 80003cc:	f44f 767a 	mov.w	r6, #1000	; 0x3e8
	 HAL_GPIO_WritePin(CODEC_CS_GPIO_Port, CODEC_CS_Pin, 0);
 80003d0:	2200      	movs	r2, #0
 80003d2:	f44f 5100 	mov.w	r1, #8192	; 0x2000
    AD1939_spi = hspi_codec;
 80003d6:	6028      	str	r0, [r5, #0]
	TXdata[2] = data;
 80003d8:	70a3      	strb	r3, [r4, #2]
	 HAL_GPIO_WritePin(CODEC_CS_GPIO_Port, CODEC_CS_Pin, 0);
 80003da:	48b5      	ldr	r0, [pc, #724]	; (80006b0 <ad1939_init+0x2f4>)
	TXdata[0] = AD1939_Global_Address_Write;
 80003dc:	f8a4 8000 	strh.w	r8, [r4]
	 HAL_GPIO_WritePin(CODEC_CS_GPIO_Port, CODEC_CS_Pin, 0);
 80003e0:	f002 f8dc 	bl	800259c <HAL_GPIO_WritePin>
	 retval = HAL_SPI_TransmitReceive(AD1939_spi, TXdata, RXdata, 3, 1000);
 80003e4:	4ab3      	ldr	r2, [pc, #716]	; (80006b4 <ad1939_init+0x2f8>)
 80003e6:	4621      	mov	r1, r4
 80003e8:	2303      	movs	r3, #3
 80003ea:	6828      	ldr	r0, [r5, #0]
 80003ec:	9600      	str	r6, [sp, #0]
 80003ee:	f004 fcdd 	bl	8004dac <HAL_SPI_TransmitReceive>
 80003f2:	4607      	mov	r7, r0
	 HAL_GPIO_WritePin(CODEC_CS_GPIO_Port, CODEC_CS_Pin, 1);
 80003f4:	2201      	movs	r2, #1
 80003f6:	f44f 5100 	mov.w	r1, #8192	; 0x2000
 80003fa:	48ad      	ldr	r0, [pc, #692]	; (80006b0 <ad1939_init+0x2f4>)
 80003fc:	f002 f8ce 	bl	800259c <HAL_GPIO_WritePin>
    // TODO: TURN OFF PLL and DISABLE ADC, DAC


    // CLOCK settings

    if (ad1939_write_reg(AD1939_PLL_Control_0, 0b10011001)) return -1;
 8000400:	2f00      	cmp	r7, #0
 8000402:	f040 814b 	bne.w	800069c <ad1939_init+0x2e0>
	TXdata[2] = data;
 8000406:	23be      	movs	r3, #190	; 0xbe
	 HAL_GPIO_WritePin(CODEC_CS_GPIO_Port, CODEC_CS_Pin, 0);
 8000408:	463a      	mov	r2, r7
 800040a:	f44f 5100 	mov.w	r1, #8192	; 0x2000
 800040e:	48a8      	ldr	r0, [pc, #672]	; (80006b0 <ad1939_init+0x2f4>)
	TXdata[2] = data;
 8000410:	70a3      	strb	r3, [r4, #2]
	TXdata[0] = AD1939_Global_Address_Write;
 8000412:	f8a4 8000 	strh.w	r8, [r4]
	 HAL_GPIO_WritePin(CODEC_CS_GPIO_Port, CODEC_CS_Pin, 0);
 8000416:	f002 f8c1 	bl	800259c <HAL_GPIO_WritePin>
	 retval = HAL_SPI_TransmitReceive(AD1939_spi, TXdata, RXdata, 3, 1000);
 800041a:	4aa6      	ldr	r2, [pc, #664]	; (80006b4 <ad1939_init+0x2f8>)
 800041c:	4621      	mov	r1, r4
 800041e:	2303      	movs	r3, #3
 8000420:	6828      	ldr	r0, [r5, #0]
 8000422:	9600      	str	r6, [sp, #0]
 8000424:	f004 fcc2 	bl	8004dac <HAL_SPI_TransmitReceive>
 8000428:	4607      	mov	r7, r0
	 HAL_GPIO_WritePin(CODEC_CS_GPIO_Port, CODEC_CS_Pin, 1);
 800042a:	2201      	movs	r2, #1
 800042c:	f44f 5100 	mov.w	r1, #8192	; 0x2000
 8000430:	489f      	ldr	r0, [pc, #636]	; (80006b0 <ad1939_init+0x2f4>)
 8000432:	f002 f8b3 	bl	800259c <HAL_GPIO_WritePin>
// PLL LOCKS for some reason!! not output still
    if (ad1939_write_reg(AD1939_PLL_Control_0, 0b10111110)) return -1;
 8000436:	2f00      	cmp	r7, #0
 8000438:	f040 8130 	bne.w	800069c <ad1939_init+0x2e0>
	TXdata[0] = AD1939_Global_Address_Write;
 800043c:	f44f 7384 	mov.w	r3, #264	; 0x108
	TXdata[2] = data;
 8000440:	f04f 0804 	mov.w	r8, #4
	 HAL_GPIO_WritePin(CODEC_CS_GPIO_Port, CODEC_CS_Pin, 0);
 8000444:	463a      	mov	r2, r7
 8000446:	f44f 5100 	mov.w	r1, #8192	; 0x2000
 800044a:	4899      	ldr	r0, [pc, #612]	; (80006b0 <ad1939_init+0x2f4>)
	TXdata[0] = AD1939_Global_Address_Write;
 800044c:	8023      	strh	r3, [r4, #0]
	TXdata[2] = data;
 800044e:	f884 8002 	strb.w	r8, [r4, #2]
	 HAL_GPIO_WritePin(CODEC_CS_GPIO_Port, CODEC_CS_Pin, 0);
 8000452:	f002 f8a3 	bl	800259c <HAL_GPIO_WritePin>
	 retval = HAL_SPI_TransmitReceive(AD1939_spi, TXdata, RXdata, 3, 1000);
 8000456:	4a97      	ldr	r2, [pc, #604]	; (80006b4 <ad1939_init+0x2f8>)
 8000458:	4621      	mov	r1, r4
 800045a:	2303      	movs	r3, #3
 800045c:	6828      	ldr	r0, [r5, #0]
 800045e:	9600      	str	r6, [sp, #0]
 8000460:	f004 fca4 	bl	8004dac <HAL_SPI_TransmitReceive>
 8000464:	4607      	mov	r7, r0
	 HAL_GPIO_WritePin(CODEC_CS_GPIO_Port, CODEC_CS_Pin, 1);
 8000466:	2201      	movs	r2, #1
 8000468:	f44f 5100 	mov.w	r1, #8192	; 0x2000
 800046c:	4890      	ldr	r0, [pc, #576]	; (80006b0 <ad1939_init+0x2f4>)
 800046e:	f002 f895 	bl	800259c <HAL_GPIO_WritePin>

    if (ad1939_write_reg(AD1939_PLL_Control_1, 0b00000100)) return -1;
 8000472:	2f00      	cmp	r7, #0
 8000474:	f040 8112 	bne.w	800069c <ad1939_init+0x2e0>





    HAL_Delay(100);
 8000478:	2064      	movs	r0, #100	; 0x64
 800047a:	f000 fe6b 	bl	8001154 <HAL_Delay>
	TXdata[0] = AD1939_Global_Address_Read;
 800047e:	f240 1309 	movw	r3, #265	; 0x109
	HAL_Delay(10);
 8000482:	200a      	movs	r0, #10
	TXdata[2] = 0b00000100;
 8000484:	f884 8002 	strb.w	r8, [r4, #2]
	TXdata[0] = AD1939_Global_Address_Read;
 8000488:	8023      	strh	r3, [r4, #0]
	HAL_Delay(10);
 800048a:	f000 fe63 	bl	8001154 <HAL_Delay>
	 HAL_GPIO_WritePin(CODEC_CS_GPIO_Port, CODEC_CS_Pin, 0);
 800048e:	463a      	mov	r2, r7
 8000490:	f44f 5100 	mov.w	r1, #8192	; 0x2000
 8000494:	4886      	ldr	r0, [pc, #536]	; (80006b0 <ad1939_init+0x2f4>)
 8000496:	f002 f881 	bl	800259c <HAL_GPIO_WritePin>
	 HAL_SPI_TransmitReceive(AD1939_spi, TXdata, RXdata, 3, 1000);
 800049a:	2303      	movs	r3, #3
 800049c:	4a85      	ldr	r2, [pc, #532]	; (80006b4 <ad1939_init+0x2f8>)
 800049e:	4621      	mov	r1, r4
 80004a0:	6828      	ldr	r0, [r5, #0]
 80004a2:	9600      	str	r6, [sp, #0]
 80004a4:	f004 fc82 	bl	8004dac <HAL_SPI_TransmitReceive>
	 HAL_GPIO_WritePin(CODEC_CS_GPIO_Port, CODEC_CS_Pin, 1);
 80004a8:	2201      	movs	r2, #1
 80004aa:	f44f 5100 	mov.w	r1, #8192	; 0x2000
 80004ae:	4880      	ldr	r0, [pc, #512]	; (80006b0 <ad1939_init+0x2f4>)
 80004b0:	f002 f874 	bl	800259c <HAL_GPIO_WritePin>
	TXdata[0] = AD1939_Global_Address_Write;
 80004b4:	f44f 7302 	mov.w	r3, #520	; 0x208
	 HAL_GPIO_WritePin(CODEC_CS_GPIO_Port, CODEC_CS_Pin, 0);
 80004b8:	463a      	mov	r2, r7
 80004ba:	f44f 5100 	mov.w	r1, #8192	; 0x2000
 80004be:	487c      	ldr	r0, [pc, #496]	; (80006b0 <ad1939_init+0x2f4>)
	TXdata[2] = data;
 80004c0:	70a7      	strb	r7, [r4, #2]
	TXdata[0] = AD1939_Global_Address_Write;
 80004c2:	8023      	strh	r3, [r4, #0]
	 HAL_GPIO_WritePin(CODEC_CS_GPIO_Port, CODEC_CS_Pin, 0);
 80004c4:	f002 f86a 	bl	800259c <HAL_GPIO_WritePin>
	 retval = HAL_SPI_TransmitReceive(AD1939_spi, TXdata, RXdata, 3, 1000);
 80004c8:	4a7a      	ldr	r2, [pc, #488]	; (80006b4 <ad1939_init+0x2f8>)
 80004ca:	4621      	mov	r1, r4
 80004cc:	2303      	movs	r3, #3
 80004ce:	6828      	ldr	r0, [r5, #0]
 80004d0:	9600      	str	r6, [sp, #0]
 80004d2:	f004 fc6b 	bl	8004dac <HAL_SPI_TransmitReceive>
 80004d6:	4607      	mov	r7, r0
	 HAL_GPIO_WritePin(CODEC_CS_GPIO_Port, CODEC_CS_Pin, 1);
 80004d8:	2201      	movs	r2, #1
 80004da:	f44f 5100 	mov.w	r1, #8192	; 0x2000
 80004de:	4874      	ldr	r0, [pc, #464]	; (80006b0 <ad1939_init+0x2f4>)
 80004e0:	f002 f85c 	bl	800259c <HAL_GPIO_WritePin>

    if(ad1939_pll_locked()){
    	// wait till pll is locked takes about 10 ms acc to datasheet
    }
    // DAC settings
    if (ad1939_write_reg(AD1939_DAC_Control_0, 0x00)) return -1;
 80004e4:	2f00      	cmp	r7, #0
 80004e6:	f040 80d9 	bne.w	800069c <ad1939_init+0x2e0>
	TXdata[0] = AD1939_Global_Address_Write;
 80004ea:	f44f 7342 	mov.w	r3, #776	; 0x308
	 HAL_GPIO_WritePin(CODEC_CS_GPIO_Port, CODEC_CS_Pin, 0);
 80004ee:	463a      	mov	r2, r7
 80004f0:	f44f 5100 	mov.w	r1, #8192	; 0x2000
 80004f4:	486e      	ldr	r0, [pc, #440]	; (80006b0 <ad1939_init+0x2f4>)
	TXdata[2] = data;
 80004f6:	70a7      	strb	r7, [r4, #2]
	TXdata[0] = AD1939_Global_Address_Write;
 80004f8:	8023      	strh	r3, [r4, #0]
	 HAL_GPIO_WritePin(CODEC_CS_GPIO_Port, CODEC_CS_Pin, 0);
 80004fa:	f002 f84f 	bl	800259c <HAL_GPIO_WritePin>
	 retval = HAL_SPI_TransmitReceive(AD1939_spi, TXdata, RXdata, 3, 1000);
 80004fe:	4a6d      	ldr	r2, [pc, #436]	; (80006b4 <ad1939_init+0x2f8>)
 8000500:	4621      	mov	r1, r4
 8000502:	2303      	movs	r3, #3
 8000504:	6828      	ldr	r0, [r5, #0]
 8000506:	9600      	str	r6, [sp, #0]
 8000508:	f004 fc50 	bl	8004dac <HAL_SPI_TransmitReceive>
 800050c:	4607      	mov	r7, r0
	 HAL_GPIO_WritePin(CODEC_CS_GPIO_Port, CODEC_CS_Pin, 1);
 800050e:	2201      	movs	r2, #1
 8000510:	f44f 5100 	mov.w	r1, #8192	; 0x2000
 8000514:	4866      	ldr	r0, [pc, #408]	; (80006b0 <ad1939_init+0x2f4>)
 8000516:	f002 f841 	bl	800259c <HAL_GPIO_WritePin>
    if (ad1939_write_reg(AD1939_DAC_Control_1, 0b00000000)) return -1; // Slave setup
 800051a:	2f00      	cmp	r7, #0
 800051c:	f040 80be 	bne.w	800069c <ad1939_init+0x2e0>
	TXdata[0] = AD1939_Global_Address_Write;
 8000520:	f44f 6381 	mov.w	r3, #1032	; 0x408
	 HAL_GPIO_WritePin(CODEC_CS_GPIO_Port, CODEC_CS_Pin, 0);
 8000524:	463a      	mov	r2, r7
 8000526:	f44f 5100 	mov.w	r1, #8192	; 0x2000
 800052a:	4861      	ldr	r0, [pc, #388]	; (80006b0 <ad1939_init+0x2f4>)
	TXdata[2] = data;
 800052c:	70a7      	strb	r7, [r4, #2]
	TXdata[0] = AD1939_Global_Address_Write;
 800052e:	8023      	strh	r3, [r4, #0]
	 HAL_GPIO_WritePin(CODEC_CS_GPIO_Port, CODEC_CS_Pin, 0);
 8000530:	f002 f834 	bl	800259c <HAL_GPIO_WritePin>
	 retval = HAL_SPI_TransmitReceive(AD1939_spi, TXdata, RXdata, 3, 1000);
 8000534:	4a5f      	ldr	r2, [pc, #380]	; (80006b4 <ad1939_init+0x2f8>)
 8000536:	4621      	mov	r1, r4
 8000538:	2303      	movs	r3, #3
 800053a:	6828      	ldr	r0, [r5, #0]
 800053c:	9600      	str	r6, [sp, #0]
 800053e:	f004 fc35 	bl	8004dac <HAL_SPI_TransmitReceive>
 8000542:	4607      	mov	r7, r0
	 HAL_GPIO_WritePin(CODEC_CS_GPIO_Port, CODEC_CS_Pin, 1);
 8000544:	2201      	movs	r2, #1
 8000546:	f44f 5100 	mov.w	r1, #8192	; 0x2000
 800054a:	4859      	ldr	r0, [pc, #356]	; (80006b0 <ad1939_init+0x2f4>)
 800054c:	f002 f826 	bl	800259c <HAL_GPIO_WritePin>
    //if (ad1939_write_reg(AD1939_DAC_Control_1, 0b01110000)) return -1; // MASTER setup
    if (ad1939_write_reg(AD1939_DAC_Control_2, 0b00000000)) return -1;
 8000550:	2f00      	cmp	r7, #0
 8000552:	f040 80a3 	bne.w	800069c <ad1939_init+0x2e0>
	TXdata[0] = AD1939_Global_Address_Write;
 8000556:	f44f 63a1 	mov.w	r3, #1288	; 0x508
	 HAL_GPIO_WritePin(CODEC_CS_GPIO_Port, CODEC_CS_Pin, 0);
 800055a:	463a      	mov	r2, r7
 800055c:	f44f 5100 	mov.w	r1, #8192	; 0x2000
 8000560:	4853      	ldr	r0, [pc, #332]	; (80006b0 <ad1939_init+0x2f4>)
	TXdata[2] = data;
 8000562:	70a7      	strb	r7, [r4, #2]
	TXdata[0] = AD1939_Global_Address_Write;
 8000564:	8023      	strh	r3, [r4, #0]
	 HAL_GPIO_WritePin(CODEC_CS_GPIO_Port, CODEC_CS_Pin, 0);
 8000566:	f002 f819 	bl	800259c <HAL_GPIO_WritePin>
	 retval = HAL_SPI_TransmitReceive(AD1939_spi, TXdata, RXdata, 3, 1000);
 800056a:	4a52      	ldr	r2, [pc, #328]	; (80006b4 <ad1939_init+0x2f8>)
 800056c:	4621      	mov	r1, r4
 800056e:	2303      	movs	r3, #3
 8000570:	6828      	ldr	r0, [r5, #0]
 8000572:	9600      	str	r6, [sp, #0]
 8000574:	f004 fc1a 	bl	8004dac <HAL_SPI_TransmitReceive>
 8000578:	4607      	mov	r7, r0
	 HAL_GPIO_WritePin(CODEC_CS_GPIO_Port, CODEC_CS_Pin, 1);
 800057a:	2201      	movs	r2, #1
 800057c:	f44f 5100 	mov.w	r1, #8192	; 0x2000
 8000580:	484b      	ldr	r0, [pc, #300]	; (80006b0 <ad1939_init+0x2f4>)
 8000582:	f002 f80b 	bl	800259c <HAL_GPIO_WritePin>

    // DAC MUTE SETTINGS
    // OL2N and OL2P 0011 1011
    if (ad1939_write_reg(AD1939_DAC_Mutes, 0x00)) return -1; // enable only DAC2 L and R channels
 8000586:	2f00      	cmp	r7, #0
 8000588:	f040 8088 	bne.w	800069c <ad1939_init+0x2e0>
	TXdata[0] = AD1939_Global_Address_Write;
 800058c:	f640 0308 	movw	r3, #2056	; 0x808
	 HAL_GPIO_WritePin(CODEC_CS_GPIO_Port, CODEC_CS_Pin, 0);
 8000590:	463a      	mov	r2, r7
 8000592:	f44f 5100 	mov.w	r1, #8192	; 0x2000
 8000596:	4846      	ldr	r0, [pc, #280]	; (80006b0 <ad1939_init+0x2f4>)
	TXdata[2] = data;
 8000598:	70a7      	strb	r7, [r4, #2]
	TXdata[0] = AD1939_Global_Address_Write;
 800059a:	8023      	strh	r3, [r4, #0]
	 HAL_GPIO_WritePin(CODEC_CS_GPIO_Port, CODEC_CS_Pin, 0);
 800059c:	f001 fffe 	bl	800259c <HAL_GPIO_WritePin>
	 retval = HAL_SPI_TransmitReceive(AD1939_spi, TXdata, RXdata, 3, 1000);
 80005a0:	4a44      	ldr	r2, [pc, #272]	; (80006b4 <ad1939_init+0x2f8>)
 80005a2:	4621      	mov	r1, r4
 80005a4:	2303      	movs	r3, #3
 80005a6:	6828      	ldr	r0, [r5, #0]
 80005a8:	9600      	str	r6, [sp, #0]
 80005aa:	f004 fbff 	bl	8004dac <HAL_SPI_TransmitReceive>
 80005ae:	4607      	mov	r7, r0
	 HAL_GPIO_WritePin(CODEC_CS_GPIO_Port, CODEC_CS_Pin, 1);
 80005b0:	2201      	movs	r2, #1
 80005b2:	f44f 5100 	mov.w	r1, #8192	; 0x2000
 80005b6:	483e      	ldr	r0, [pc, #248]	; (80006b0 <ad1939_init+0x2f4>)
 80005b8:	f001 fff0 	bl	800259c <HAL_GPIO_WritePin>

    // DAC2 VOLUME SETTINGS (other channels are muted)
    if (ad1939_write_reg(AD1939_DAC_Vol_L2, 0x00)) return -1; // no attenuation
 80005bc:	2f00      	cmp	r7, #0
 80005be:	d16d      	bne.n	800069c <ad1939_init+0x2e0>
	TXdata[0] = AD1939_Global_Address_Write;
 80005c0:	f640 1308 	movw	r3, #2312	; 0x908
	 HAL_GPIO_WritePin(CODEC_CS_GPIO_Port, CODEC_CS_Pin, 0);
 80005c4:	463a      	mov	r2, r7
 80005c6:	f44f 5100 	mov.w	r1, #8192	; 0x2000
 80005ca:	4839      	ldr	r0, [pc, #228]	; (80006b0 <ad1939_init+0x2f4>)
	TXdata[2] = data;
 80005cc:	70a7      	strb	r7, [r4, #2]
	TXdata[0] = AD1939_Global_Address_Write;
 80005ce:	8023      	strh	r3, [r4, #0]
	 HAL_GPIO_WritePin(CODEC_CS_GPIO_Port, CODEC_CS_Pin, 0);
 80005d0:	f001 ffe4 	bl	800259c <HAL_GPIO_WritePin>
	 retval = HAL_SPI_TransmitReceive(AD1939_spi, TXdata, RXdata, 3, 1000);
 80005d4:	4a37      	ldr	r2, [pc, #220]	; (80006b4 <ad1939_init+0x2f8>)
 80005d6:	4621      	mov	r1, r4
 80005d8:	2303      	movs	r3, #3
 80005da:	6828      	ldr	r0, [r5, #0]
 80005dc:	9600      	str	r6, [sp, #0]
 80005de:	f004 fbe5 	bl	8004dac <HAL_SPI_TransmitReceive>
 80005e2:	4607      	mov	r7, r0
	 HAL_GPIO_WritePin(CODEC_CS_GPIO_Port, CODEC_CS_Pin, 1);
 80005e4:	2201      	movs	r2, #1
 80005e6:	f44f 5100 	mov.w	r1, #8192	; 0x2000
 80005ea:	4831      	ldr	r0, [pc, #196]	; (80006b0 <ad1939_init+0x2f4>)
 80005ec:	f001 ffd6 	bl	800259c <HAL_GPIO_WritePin>
    if (ad1939_write_reg(AD1939_DAC_Vol_R2, 0x00)) return -1; // no attenuation
 80005f0:	2f00      	cmp	r7, #0
 80005f2:	d153      	bne.n	800069c <ad1939_init+0x2e0>
	TXdata[0] = AD1939_Global_Address_Write;
 80005f4:	f640 6308 	movw	r3, #3592	; 0xe08
	 HAL_GPIO_WritePin(CODEC_CS_GPIO_Port, CODEC_CS_Pin, 0);
 80005f8:	463a      	mov	r2, r7
 80005fa:	f44f 5100 	mov.w	r1, #8192	; 0x2000
 80005fe:	482c      	ldr	r0, [pc, #176]	; (80006b0 <ad1939_init+0x2f4>)
	TXdata[0] = AD1939_Global_Address_Write;
 8000600:	8023      	strh	r3, [r4, #0]
	TXdata[2] = data;
 8000602:	70a7      	strb	r7, [r4, #2]
	 HAL_GPIO_WritePin(CODEC_CS_GPIO_Port, CODEC_CS_Pin, 0);
 8000604:	f001 ffca 	bl	800259c <HAL_GPIO_WritePin>
	 retval = HAL_SPI_TransmitReceive(AD1939_spi, TXdata, RXdata, 3, 1000);
 8000608:	4a2a      	ldr	r2, [pc, #168]	; (80006b4 <ad1939_init+0x2f8>)
 800060a:	4621      	mov	r1, r4
 800060c:	9600      	str	r6, [sp, #0]
 800060e:	2303      	movs	r3, #3
 8000610:	6828      	ldr	r0, [r5, #0]
 8000612:	f004 fbcb 	bl	8004dac <HAL_SPI_TransmitReceive>
 8000616:	4606      	mov	r6, r0
	 HAL_GPIO_WritePin(CODEC_CS_GPIO_Port, CODEC_CS_Pin, 1);
 8000618:	2201      	movs	r2, #1
 800061a:	f44f 5100 	mov.w	r1, #8192	; 0x2000
 800061e:	4824      	ldr	r0, [pc, #144]	; (80006b0 <ad1939_init+0x2f4>)
 8000620:	f001 ffbc 	bl	800259c <HAL_GPIO_WritePin>

    // ADC settings
    if (ad1939_write_reg(AD1939_ADC_Control_0, 0b00000000)) return -1;
 8000624:	2e00      	cmp	r6, #0
 8000626:	d139      	bne.n	800069c <ad1939_init+0x2e0>
	TXdata[2] = data;
 8000628:	2200      	movs	r2, #0
	TXdata[0] = AD1939_Global_Address_Write;
 800062a:	f640 7308 	movw	r3, #3848	; 0xf08
	 retval = HAL_SPI_TransmitReceive(AD1939_spi, TXdata, RXdata, 3, 1000);
 800062e:	f44f 777a 	mov.w	r7, #1000	; 0x3e8
	 HAL_GPIO_WritePin(CODEC_CS_GPIO_Port, CODEC_CS_Pin, 0);
 8000632:	f44f 5100 	mov.w	r1, #8192	; 0x2000
 8000636:	481e      	ldr	r0, [pc, #120]	; (80006b0 <ad1939_init+0x2f4>)
	TXdata[0] = AD1939_Global_Address_Write;
 8000638:	8023      	strh	r3, [r4, #0]
	TXdata[2] = data;
 800063a:	70a2      	strb	r2, [r4, #2]
	 HAL_GPIO_WritePin(CODEC_CS_GPIO_Port, CODEC_CS_Pin, 0);
 800063c:	f001 ffae 	bl	800259c <HAL_GPIO_WritePin>
	 retval = HAL_SPI_TransmitReceive(AD1939_spi, TXdata, RXdata, 3, 1000);
 8000640:	4a1c      	ldr	r2, [pc, #112]	; (80006b4 <ad1939_init+0x2f8>)
 8000642:	4919      	ldr	r1, [pc, #100]	; (80006a8 <ad1939_init+0x2ec>)
 8000644:	2303      	movs	r3, #3
 8000646:	6828      	ldr	r0, [r5, #0]
 8000648:	9700      	str	r7, [sp, #0]
 800064a:	f004 fbaf 	bl	8004dac <HAL_SPI_TransmitReceive>
 800064e:	4606      	mov	r6, r0
	 HAL_GPIO_WritePin(CODEC_CS_GPIO_Port, CODEC_CS_Pin, 1);
 8000650:	2201      	movs	r2, #1
 8000652:	f44f 5100 	mov.w	r1, #8192	; 0x2000
 8000656:	4816      	ldr	r0, [pc, #88]	; (80006b0 <ad1939_init+0x2f4>)
 8000658:	f001 ffa0 	bl	800259c <HAL_GPIO_WritePin>
    if (ad1939_write_reg(AD1939_ADC_Control_1, 0x00 )) return -1;
 800065c:	b9f6      	cbnz	r6, 800069c <ad1939_init+0x2e0>
	TXdata[0] = AD1939_Global_Address_Write;
 800065e:	f241 0308 	movw	r3, #4104	; 0x1008
	 HAL_GPIO_WritePin(CODEC_CS_GPIO_Port, CODEC_CS_Pin, 0);
 8000662:	4632      	mov	r2, r6
	TXdata[2] = data;
 8000664:	70a6      	strb	r6, [r4, #2]
	 HAL_GPIO_WritePin(CODEC_CS_GPIO_Port, CODEC_CS_Pin, 0);
 8000666:	f44f 5100 	mov.w	r1, #8192	; 0x2000
	TXdata[0] = AD1939_Global_Address_Write;
 800066a:	8023      	strh	r3, [r4, #0]
	 HAL_GPIO_WritePin(CODEC_CS_GPIO_Port, CODEC_CS_Pin, 0);
 800066c:	4810      	ldr	r0, [pc, #64]	; (80006b0 <ad1939_init+0x2f4>)
 800066e:	f001 ff95 	bl	800259c <HAL_GPIO_WritePin>
	 retval = HAL_SPI_TransmitReceive(AD1939_spi, TXdata, RXdata, 3, 1000);
 8000672:	2303      	movs	r3, #3
 8000674:	4a0f      	ldr	r2, [pc, #60]	; (80006b4 <ad1939_init+0x2f8>)
 8000676:	490c      	ldr	r1, [pc, #48]	; (80006a8 <ad1939_init+0x2ec>)
 8000678:	6828      	ldr	r0, [r5, #0]
 800067a:	9700      	str	r7, [sp, #0]
 800067c:	f004 fb96 	bl	8004dac <HAL_SPI_TransmitReceive>
 8000680:	4604      	mov	r4, r0
	 HAL_GPIO_WritePin(CODEC_CS_GPIO_Port, CODEC_CS_Pin, 1);
 8000682:	2201      	movs	r2, #1
 8000684:	f44f 5100 	mov.w	r1, #8192	; 0x2000
 8000688:	4809      	ldr	r0, [pc, #36]	; (80006b0 <ad1939_init+0x2f4>)
 800068a:	f001 ff87 	bl	800259c <HAL_GPIO_WritePin>
    if (ad1939_write_reg(AD1939_ADC_Control_2, 0x00 )) return -1;
 800068e:	1e20      	subs	r0, r4, #0
 8000690:	bf18      	it	ne
 8000692:	2001      	movne	r0, #1
 8000694:	4240      	negs	r0, r0



    return 0; // Return 0 if all writes are successful
}
 8000696:	b002      	add	sp, #8
 8000698:	e8bd 81f0 	ldmia.w	sp!, {r4, r5, r6, r7, r8, pc}
    if (ad1939_write_reg(AD1939_PLL_Control_0, 0b10011001)) return -1;
 800069c:	f04f 30ff 	mov.w	r0, #4294967295
}
 80006a0:	b002      	add	sp, #8
 80006a2:	e8bd 81f0 	ldmia.w	sp!, {r4, r5, r6, r7, r8, pc}
 80006a6:	bf00      	nop
 80006a8:	240003a8 	.word	0x240003a8
 80006ac:	240003a0 	.word	0x240003a0
 80006b0:	58021400 	.word	0x58021400
 80006b4:	240003a4 	.word	0x240003a4

080006b8 <subbandfilter_calculation>:
volatile float32_t subbandfilter_B1[numberofsubbands];
volatile float32_t subbandfilter_B2[numberofsubbands];

// SUBBAND FILTER FUNCTION - DIRECT FORM 2 - normalfunction exectime: ~6us
void subbandfilter_calculation(int32_t input){
  float32_t input_f32=(float32_t)input;
 80006b8:	ee07 0a90 	vmov	s15, r0
 80006bc:	eef8 7ae7 	vcvt.f32.s32	s15, s15
void subbandfilter_calculation(int32_t input){
 80006c0:	e92d 41f0 	stmdb	sp!, {r4, r5, r6, r7, r8, lr}
  // set d[n], d[n-1], d[n-2]
  for(int i=0;i<numberofsubbands;i++){
 80006c4:	2400      	movs	r4, #0
 80006c6:	f8df e0bc 	ldr.w	lr, [pc, #188]	; 8000784 <subbandfilter_calculation+0xcc>
 80006ca:	4f27      	ldr	r7, [pc, #156]	; (8000768 <subbandfilter_calculation+0xb0>)
 80006cc:	4e27      	ldr	r6, [pc, #156]	; (800076c <subbandfilter_calculation+0xb4>)
 80006ce:	4d28      	ldr	r5, [pc, #160]	; (8000770 <subbandfilter_calculation+0xb8>)
			  subbandfilter_input[i]=input_f32;
			  subbandfilter_dn2[i]=subbandfilter_dn1[i];
 80006d0:	eb07 0384 	add.w	r3, r7, r4, lsl #2
			  subbandfilter_input[i]=input_f32;
 80006d4:	eb0e 0084 	add.w	r0, lr, r4, lsl #2
			  subbandfilter_dn2[i]=subbandfilter_dn1[i];
 80006d8:	eb06 0184 	add.w	r1, r6, r4, lsl #2
			  subbandfilter_input[i]=input_f32;
 80006dc:	edc0 7a00 	vstr	s15, [r0]
			  subbandfilter_dn1[i]=subbandfilter_dn[i];
 80006e0:	eb05 0284 	add.w	r2, r5, r4, lsl #2
			  subbandfilter_dn2[i]=subbandfilter_dn1[i];
 80006e4:	f8d3 c000 	ldr.w	ip, [r3]
  for(int i=0;i<numberofsubbands;i++){
 80006e8:	3401      	adds	r4, #1
			  subbandfilter_dn2[i]=subbandfilter_dn1[i];
 80006ea:	f8c1 c000 	str.w	ip, [r1]
  for(int i=0;i<numberofsubbands;i++){
 80006ee:	2c2b      	cmp	r4, #43	; 0x2b
			  subbandfilter_dn1[i]=subbandfilter_dn[i];
 80006f0:	6812      	ldr	r2, [r2, #0]
 80006f2:	601a      	str	r2, [r3, #0]
  for(int i=0;i<numberofsubbands;i++){
 80006f4:	d1ec      	bne.n	80006d0 <subbandfilter_calculation+0x18>
  }
  // A1
  arm_mult_f32(subbandfilter_a1, subbandfilter_dn1, subbandfilter_A1, numberofsubbands);
 80006f6:	4623      	mov	r3, r4
 80006f8:	4a1e      	ldr	r2, [pc, #120]	; (8000774 <subbandfilter_calculation+0xbc>)
 80006fa:	491b      	ldr	r1, [pc, #108]	; (8000768 <subbandfilter_calculation+0xb0>)
 80006fc:	481e      	ldr	r0, [pc, #120]	; (8000778 <subbandfilter_calculation+0xc0>)
 80006fe:	f004 fecb 	bl	8005498 <arm_mult_f32>
  // A2
  arm_mult_f32(subbandfilter_a2, subbandfilter_dn2, subbandfilter_A2, numberofsubbands);
 8000702:	4623      	mov	r3, r4
 8000704:	4a1d      	ldr	r2, [pc, #116]	; (800077c <subbandfilter_calculation+0xc4>)
 8000706:	4919      	ldr	r1, [pc, #100]	; (800076c <subbandfilter_calculation+0xb4>)
 8000708:	481d      	ldr	r0, [pc, #116]	; (8000780 <subbandfilter_calculation+0xc8>)
 800070a:	f004 fec5 	bl	8005498 <arm_mult_f32>

  // A1+A2
  arm_add_f32(subbandfilter_A1, subbandfilter_A2, subbandfilter_dn, numberofsubbands);
 800070e:	4623      	mov	r3, r4
 8000710:	4a17      	ldr	r2, [pc, #92]	; (8000770 <subbandfilter_calculation+0xb8>)
 8000712:	491a      	ldr	r1, [pc, #104]	; (800077c <subbandfilter_calculation+0xc4>)
 8000714:	4817      	ldr	r0, [pc, #92]	; (8000774 <subbandfilter_calculation+0xbc>)
 8000716:	f004 ff75 	bl	8005604 <arm_add_f32>

  // d[n]=A0-A1-A2
  arm_sub_f32(subbandfilter_input,subbandfilter_dn, subbandfilter_dn, numberofsubbands);
 800071a:	4a15      	ldr	r2, [pc, #84]	; (8000770 <subbandfilter_calculation+0xb8>)
 800071c:	4623      	mov	r3, r4
 800071e:	4819      	ldr	r0, [pc, #100]	; (8000784 <subbandfilter_calculation+0xcc>)
 8000720:	4611      	mov	r1, r2
 8000722:	f004 fe5f 	bl	80053e4 <arm_sub_f32>

  // y_n=b0*d[n]+b1*d[n-1]+b2*d[n-2]

  // B1
  arm_mult_f32(subbandfilter_b1, subbandfilter_dn1, subbandfilter_B1, numberofsubbands);
 8000726:	4623      	mov	r3, r4
 8000728:	4a17      	ldr	r2, [pc, #92]	; (8000788 <subbandfilter_calculation+0xd0>)
 800072a:	490f      	ldr	r1, [pc, #60]	; (8000768 <subbandfilter_calculation+0xb0>)
 800072c:	4817      	ldr	r0, [pc, #92]	; (800078c <subbandfilter_calculation+0xd4>)
 800072e:	f004 feb3 	bl	8005498 <arm_mult_f32>
  // B2
  arm_mult_f32(subbandfilter_b2, subbandfilter_dn2, subbandfilter_B2, numberofsubbands);
 8000732:	4623      	mov	r3, r4
 8000734:	4a16      	ldr	r2, [pc, #88]	; (8000790 <subbandfilter_calculation+0xd8>)
 8000736:	490d      	ldr	r1, [pc, #52]	; (800076c <subbandfilter_calculation+0xb4>)
 8000738:	4816      	ldr	r0, [pc, #88]	; (8000794 <subbandfilter_calculation+0xdc>)
 800073a:	f004 fead 	bl	8005498 <arm_mult_f32>
  // B1+B2
  arm_add_f32(subbandfilter_B1, subbandfilter_B2, subbandfilter_output, numberofsubbands);
 800073e:	4623      	mov	r3, r4
 8000740:	4a15      	ldr	r2, [pc, #84]	; (8000798 <subbandfilter_calculation+0xe0>)
 8000742:	4913      	ldr	r1, [pc, #76]	; (8000790 <subbandfilter_calculation+0xd8>)
 8000744:	4810      	ldr	r0, [pc, #64]	; (8000788 <subbandfilter_calculation+0xd0>)
 8000746:	f004 ff5d 	bl	8005604 <arm_add_f32>

  // B0
  arm_mult_f32(subbandfilter_b0, subbandfilter_dn, subbandfilter_B0, numberofsubbands);
 800074a:	4623      	mov	r3, r4
 800074c:	4a13      	ldr	r2, [pc, #76]	; (800079c <subbandfilter_calculation+0xe4>)
 800074e:	4908      	ldr	r1, [pc, #32]	; (8000770 <subbandfilter_calculation+0xb8>)
 8000750:	4813      	ldr	r0, [pc, #76]	; (80007a0 <subbandfilter_calculation+0xe8>)
 8000752:	f004 fea1 	bl	8005498 <arm_mult_f32>

  // y=B0+B1+B2
  arm_add_f32(subbandfilter_output, subbandfilter_B0, subbandfilter_output, numberofsubbands);
 8000756:	4a10      	ldr	r2, [pc, #64]	; (8000798 <subbandfilter_calculation+0xe0>)
 8000758:	4623      	mov	r3, r4
 800075a:	4910      	ldr	r1, [pc, #64]	; (800079c <subbandfilter_calculation+0xe4>)
 800075c:	4610      	mov	r0, r2
}
 800075e:	e8bd 41f0 	ldmia.w	sp!, {r4, r5, r6, r7, r8, lr}
  arm_add_f32(subbandfilter_output, subbandfilter_B0, subbandfilter_output, numberofsubbands);
 8000762:	f004 bf4f 	b.w	8005604 <arm_add_f32>
 8000766:	bf00      	nop
 8000768:	24000be4 	.word	0x24000be4
 800076c:	24000c90 	.word	0x24000c90
 8000770:	24000b38 	.word	0x24000b38
 8000774:	24000730 	.word	0x24000730
 8000778:	240000cc 	.word	0x240000cc
 800077c:	240007dc 	.word	0x240007dc
 8000780:	24000178 	.word	0x24000178
 8000784:	24000d3c 	.word	0x24000d3c
 8000788:	24000934 	.word	0x24000934
 800078c:	24000a8c 	.word	0x24000a8c
 8000790:	240009e0 	.word	0x240009e0
 8000794:	240002d0 	.word	0x240002d0
 8000798:	24000de8 	.word	0x24000de8
 800079c:	24000888 	.word	0x24000888
 80007a0:	24000224 	.word	0x24000224

080007a4 <HAL_I2S_RxHalfCpltCallback>:
volatile adc_data_bitfield output_buffer;
volatile uint8_t ADC_READY_FLAG = 0;
void HAL_I2S_RxHalfCpltCallback(I2S_HandleTypeDef *hi2s){
//	ADC_READY_FLAG = 1;
//	//	adc_data_bitfield adc_data_bf;
	adc_data_bf.raw_low 	= rx_data_i2s[4];
 80007a4:	4904      	ldr	r1, [pc, #16]	; (80007b8 <HAL_I2S_RxHalfCpltCallback+0x14>)
 80007a6:	4a05      	ldr	r2, [pc, #20]	; (80007bc <HAL_I2S_RxHalfCpltCallback+0x18>)
 80007a8:	890b      	ldrh	r3, [r1, #8]
 80007aa:	b21b      	sxth	r3, r3
 80007ac:	8013      	strh	r3, [r2, #0]
	adc_data_bf.raw_high 	= rx_data_i2s[5];
 80007ae:	894b      	ldrh	r3, [r1, #10]
 80007b0:	b21b      	sxth	r3, r3
 80007b2:	8053      	strh	r3, [r2, #2]
//	static float32_t octave_volume = 0;
//	output_test_ac=(int32_t)octave1_up_filtered*octave_volume + (int32_t)((float32_t)value_from_ADC*loopback_volume);
//
//
//	output_buffer.value= output_test_ac;
}
 80007b4:	4770      	bx	lr
 80007b6:	bf00      	nop
 80007b8:	24000674 	.word	0x24000674
 80007bc:	240003ac 	.word	0x240003ac

080007c0 <HAL_I2S_RxCpltCallback>:

void HAL_I2S_RxCpltCallback(I2S_HandleTypeDef *hi2s){
	ADC_READY_FLAG = 1;
	//	adc_data_bitfield adc_data_bf;
	adc_data_bf.raw_low 	= rx_data_i2s[0];
 80007c0:	4905      	ldr	r1, [pc, #20]	; (80007d8 <HAL_I2S_RxCpltCallback+0x18>)
	ADC_READY_FLAG = 1;
 80007c2:	2001      	movs	r0, #1
 80007c4:	4b05      	ldr	r3, [pc, #20]	; (80007dc <HAL_I2S_RxCpltCallback+0x1c>)
	adc_data_bf.raw_low 	= rx_data_i2s[0];
 80007c6:	4a06      	ldr	r2, [pc, #24]	; (80007e0 <HAL_I2S_RxCpltCallback+0x20>)
	ADC_READY_FLAG = 1;
 80007c8:	7018      	strb	r0, [r3, #0]
	adc_data_bf.raw_low 	= rx_data_i2s[0];
 80007ca:	880b      	ldrh	r3, [r1, #0]
 80007cc:	b21b      	sxth	r3, r3
 80007ce:	8013      	strh	r3, [r2, #0]
	adc_data_bf.raw_high 	= rx_data_i2s[1];
 80007d0:	884b      	ldrh	r3, [r1, #2]
 80007d2:	b21b      	sxth	r3, r3
 80007d4:	8053      	strh	r3, [r2, #2]
//	static float32_t octave_volume = 3;
//	output_test_ac=(int32_t)octave1_up_filtered*octave_volume + (int32_t)((float32_t)value_from_ADC*loopback_volume);
//
//
//	output_buffer.value = output_test_ac;
}
 80007d6:	4770      	bx	lr
 80007d8:	24000674 	.word	0x24000674
 80007dc:	240003ab 	.word	0x240003ab
 80007e0:	240003ac 	.word	0x240003ac

080007e4 <HAL_I2S_TxHalfCpltCallback>:

void HAL_I2S_TxHalfCpltCallback(I2S_HandleTypeDef *hi2s){
	int32_t out2 = output_buffer.raw_low;
 80007e4:	4b04      	ldr	r3, [pc, #16]	; (80007f8 <HAL_I2S_TxHalfCpltCallback+0x14>)
	int32_t out3 = output_buffer.raw_high;
	my_data[2] = out2;
 80007e6:	4905      	ldr	r1, [pc, #20]	; (80007fc <HAL_I2S_TxHalfCpltCallback+0x18>)
	int32_t out2 = output_buffer.raw_low;
 80007e8:	881a      	ldrh	r2, [r3, #0]
	int32_t out3 = output_buffer.raw_high;
 80007ea:	885b      	ldrh	r3, [r3, #2]
	my_data[2] = out2;
 80007ec:	b292      	uxth	r2, r2
	my_data[3] = out3;
 80007ee:	b29b      	uxth	r3, r3
	my_data[2] = out2;
 80007f0:	808a      	strh	r2, [r1, #4]
	my_data[3] = out3;
 80007f2:	80cb      	strh	r3, [r1, #6]
}
 80007f4:	4770      	bx	lr
 80007f6:	bf00      	nop
 80007f8:	24000668 	.word	0x24000668
 80007fc:	2400064c 	.word	0x2400064c

08000800 <HAL_I2S_TxCpltCallback>:
void HAL_I2S_TxCpltCallback(I2S_HandleTypeDef *hi2s){
	int32_t out2 = output_buffer.raw_low;
 8000800:	4b04      	ldr	r3, [pc, #16]	; (8000814 <HAL_I2S_TxCpltCallback+0x14>)
	int32_t out3 = output_buffer.raw_high;

	my_data[6] = out2;
 8000802:	4905      	ldr	r1, [pc, #20]	; (8000818 <HAL_I2S_TxCpltCallback+0x18>)
	int32_t out2 = output_buffer.raw_low;
 8000804:	881a      	ldrh	r2, [r3, #0]
	int32_t out3 = output_buffer.raw_high;
 8000806:	885b      	ldrh	r3, [r3, #2]
	my_data[6] = out2;
 8000808:	b292      	uxth	r2, r2
	my_data[7] = out3;
 800080a:	b29b      	uxth	r3, r3
	my_data[6] = out2;
 800080c:	818a      	strh	r2, [r1, #12]
	my_data[7] = out3;
 800080e:	81cb      	strh	r3, [r1, #14]
}
 8000810:	4770      	bx	lr
 8000812:	bf00      	nop
 8000814:	24000668 	.word	0x24000668
 8000818:	2400064c 	.word	0x2400064c
 800081c:	00000000 	.word	0x00000000

08000820 <SystemClock_Config>:
/**
  * @brief System Clock Configuration
  * @retval None
  */
void SystemClock_Config(void)
{
 8000820:	b510      	push	{r4, lr}
 8000822:	b0a0      	sub	sp, #128	; 0x80
  RCC_OscInitTypeDef RCC_OscInitStruct = {0};
 8000824:	224c      	movs	r2, #76	; 0x4c
 8000826:	2100      	movs	r1, #0
 8000828:	a80c      	add	r0, sp, #48	; 0x30
 800082a:	f004 ff89 	bl	8005740 <memset>
  RCC_ClkInitTypeDef RCC_ClkInitStruct = {0};
 800082e:	2220      	movs	r2, #32
 8000830:	2100      	movs	r1, #0
 8000832:	a804      	add	r0, sp, #16
 8000834:	f004 ff84 	bl	8005740 <memset>

  /** Supply configuration update enable
  */
  HAL_PWREx_ConfigSupply(PWR_LDO_SUPPLY);
 8000838:	2002      	movs	r0, #2
 800083a:	f002 f893 	bl	8002964 <HAL_PWREx_ConfigSupply>

  /** Configure the main internal regulator output voltage
  */
  __HAL_PWR_VOLTAGESCALING_CONFIG(PWR_REGULATOR_VOLTAGE_SCALE1);
 800083e:	4b38      	ldr	r3, [pc, #224]	; (8000920 <SystemClock_Config+0x100>)
 8000840:	2100      	movs	r1, #0
 8000842:	4a38      	ldr	r2, [pc, #224]	; (8000924 <SystemClock_Config+0x104>)
 8000844:	9101      	str	r1, [sp, #4]
 8000846:	6ad9      	ldr	r1, [r3, #44]	; 0x2c
 8000848:	f021 0101 	bic.w	r1, r1, #1
 800084c:	62d9      	str	r1, [r3, #44]	; 0x2c
 800084e:	6adb      	ldr	r3, [r3, #44]	; 0x2c
 8000850:	f003 0301 	and.w	r3, r3, #1
 8000854:	9301      	str	r3, [sp, #4]
 8000856:	6993      	ldr	r3, [r2, #24]
 8000858:	f443 4340 	orr.w	r3, r3, #49152	; 0xc000
 800085c:	6193      	str	r3, [r2, #24]
 800085e:	6993      	ldr	r3, [r2, #24]
 8000860:	f403 4340 	and.w	r3, r3, #49152	; 0xc000
 8000864:	9301      	str	r3, [sp, #4]
 8000866:	9b01      	ldr	r3, [sp, #4]

  while(!__HAL_PWR_GET_FLAG(PWR_FLAG_VOSRDY)) {}
 8000868:	6993      	ldr	r3, [r2, #24]
 800086a:	0499      	lsls	r1, r3, #18
 800086c:	d5fc      	bpl.n	8000868 <SystemClock_Config+0x48>

  __HAL_RCC_SYSCFG_CLK_ENABLE();
 800086e:	4b2e      	ldr	r3, [pc, #184]	; (8000928 <SystemClock_Config+0x108>)
 8000870:	f8d3 10f4 	ldr.w	r1, [r3, #244]	; 0xf4
 8000874:	f041 0102 	orr.w	r1, r1, #2
 8000878:	f8c3 10f4 	str.w	r1, [r3, #244]	; 0xf4
  __HAL_PWR_VOLTAGESCALING_CONFIG(PWR_REGULATOR_VOLTAGE_SCALE0);
 800087c:	2100      	movs	r1, #0
  __HAL_RCC_SYSCFG_CLK_ENABLE();
 800087e:	f8d3 30f4 	ldr.w	r3, [r3, #244]	; 0xf4
 8000882:	f003 0302 	and.w	r3, r3, #2
 8000886:	9302      	str	r3, [sp, #8]
 8000888:	9b02      	ldr	r3, [sp, #8]
  __HAL_PWR_VOLTAGESCALING_CONFIG(PWR_REGULATOR_VOLTAGE_SCALE0);
 800088a:	9103      	str	r1, [sp, #12]
 800088c:	6991      	ldr	r1, [r2, #24]
 800088e:	4b24      	ldr	r3, [pc, #144]	; (8000920 <SystemClock_Config+0x100>)
 8000890:	f441 4140 	orr.w	r1, r1, #49152	; 0xc000
 8000894:	6191      	str	r1, [r2, #24]
 8000896:	6992      	ldr	r2, [r2, #24]
 8000898:	f402 4240 	and.w	r2, r2, #49152	; 0xc000
 800089c:	9203      	str	r2, [sp, #12]
 800089e:	6ad9      	ldr	r1, [r3, #44]	; 0x2c

  while(!__HAL_PWR_GET_FLAG(PWR_FLAG_VOSRDY)) {}
 80008a0:	4a20      	ldr	r2, [pc, #128]	; (8000924 <SystemClock_Config+0x104>)
  __HAL_PWR_VOLTAGESCALING_CONFIG(PWR_REGULATOR_VOLTAGE_SCALE0);
 80008a2:	f041 0101 	orr.w	r1, r1, #1
 80008a6:	62d9      	str	r1, [r3, #44]	; 0x2c
 80008a8:	6adb      	ldr	r3, [r3, #44]	; 0x2c
 80008aa:	f003 0301 	and.w	r3, r3, #1
 80008ae:	9303      	str	r3, [sp, #12]
 80008b0:	9b03      	ldr	r3, [sp, #12]
  while(!__HAL_PWR_GET_FLAG(PWR_FLAG_VOSRDY)) {}
 80008b2:	6993      	ldr	r3, [r2, #24]
 80008b4:	049b      	lsls	r3, r3, #18
 80008b6:	d5fc      	bpl.n	80008b2 <SystemClock_Config+0x92>
  */
  RCC_OscInitStruct.OscillatorType = RCC_OSCILLATORTYPE_HSE;
  RCC_OscInitStruct.HSEState = RCC_HSE_ON;
  RCC_OscInitStruct.PLL.PLLState = RCC_PLL_ON;
  RCC_OscInitStruct.PLL.PLLSource = RCC_PLLSOURCE_HSE;
  RCC_OscInitStruct.PLL.PLLM = 5;
 80008b8:	2105      	movs	r1, #5
  RCC_OscInitStruct.PLL.PLLN = 192;
 80008ba:	22c0      	movs	r2, #192	; 0xc0
  RCC_OscInitStruct.PLL.PLLState = RCC_PLL_ON;
 80008bc:	2302      	movs	r3, #2
  RCC_OscInitStruct.PLL.PLLP = 2;
  RCC_OscInitStruct.PLL.PLLQ = 5;
  RCC_OscInitStruct.PLL.PLLR = 2;
  RCC_OscInitStruct.PLL.PLLRGE = RCC_PLL1VCIRANGE_2;
 80008be:	2408      	movs	r4, #8
  RCC_OscInitStruct.PLL.PLLVCOSEL = RCC_PLL1VCOWIDE;
  RCC_OscInitStruct.PLL.PLLFRACN = 0;
  if (HAL_RCC_OscConfig(&RCC_OscInitStruct) != HAL_OK)
 80008c0:	a80c      	add	r0, sp, #48	; 0x30
  RCC_OscInitStruct.OscillatorType = RCC_OSCILLATORTYPE_HSE;
 80008c2:	ed9f 7b15 	vldr	d7, [pc, #84]	; 8000918 <SystemClock_Config+0xf8>
  RCC_OscInitStruct.PLL.PLLN = 192;
 80008c6:	e9cd 1217 	strd	r1, r2, [sp, #92]	; 0x5c
  RCC_OscInitStruct.PLL.PLLVCOSEL = RCC_PLL1VCOWIDE;
 80008ca:	2200      	movs	r2, #0
  RCC_OscInitStruct.PLL.PLLSource = RCC_PLLSOURCE_HSE;
 80008cc:	e9cd 3315 	strd	r3, r3, [sp, #84]	; 0x54
  RCC_OscInitStruct.PLL.PLLQ = 5;
 80008d0:	e9cd 3119 	strd	r3, r1, [sp, #100]	; 0x64
  RCC_OscInitStruct.PLL.PLLRGE = RCC_PLL1VCIRANGE_2;
 80008d4:	e9cd 341b 	strd	r3, r4, [sp, #108]	; 0x6c
  RCC_OscInitStruct.OscillatorType = RCC_OSCILLATORTYPE_HSE;
 80008d8:	ed8d 7b0c 	vstr	d7, [sp, #48]	; 0x30
  RCC_OscInitStruct.PLL.PLLFRACN = 0;
 80008dc:	e9cd 221d 	strd	r2, r2, [sp, #116]	; 0x74
  if (HAL_RCC_OscConfig(&RCC_OscInitStruct) != HAL_OK)
 80008e0:	f002 f902 	bl	8002ae8 <HAL_RCC_OscConfig>
 80008e4:	4603      	mov	r3, r0
 80008e6:	b108      	cbz	r0, 80008ec <SystemClock_Config+0xcc>
  \details Disables IRQ interrupts by setting the I-bit in the CPSR.
           Can only be executed in Privileged modes.
 */
__STATIC_FORCEINLINE void __disable_irq(void)
{
  __ASM volatile ("cpsid i" : : : "memory");
 80008e8:	b672      	cpsid	i
void Error_Handler(void)
{
  /* USER CODE BEGIN Error_Handler_Debug */
  /* User can add his own implementation to report the HAL error return state */
  __disable_irq();
  while (1)
 80008ea:	e7fe      	b.n	80008ea <SystemClock_Config+0xca>
  RCC_ClkInitStruct.ClockType = RCC_CLOCKTYPE_HCLK|RCC_CLOCKTYPE_SYSCLK
 80008ec:	213f      	movs	r1, #63	; 0x3f
  RCC_ClkInitStruct.APB3CLKDivider = RCC_APB3_DIV2;
 80008ee:	2240      	movs	r2, #64	; 0x40
  RCC_ClkInitStruct.SYSCLKDivider = RCC_SYSCLK_DIV1;
 80008f0:	9306      	str	r3, [sp, #24]
  RCC_ClkInitStruct.APB2CLKDivider = RCC_APB2_DIV2;
 80008f2:	f44f 6380 	mov.w	r3, #1024	; 0x400
  RCC_ClkInitStruct.ClockType = RCC_CLOCKTYPE_HCLK|RCC_CLOCKTYPE_SYSCLK
 80008f6:	9104      	str	r1, [sp, #16]
  RCC_ClkInitStruct.SYSCLKSource = RCC_SYSCLKSOURCE_PLLCLK;
 80008f8:	2103      	movs	r1, #3
  if (HAL_RCC_ClockConfig(&RCC_ClkInitStruct, FLASH_LATENCY_4) != HAL_OK)
 80008fa:	a804      	add	r0, sp, #16
  RCC_ClkInitStruct.APB1CLKDivider = RCC_APB1_DIV2;
 80008fc:	9209      	str	r2, [sp, #36]	; 0x24
  RCC_ClkInitStruct.SYSCLKSource = RCC_SYSCLKSOURCE_PLLCLK;
 80008fe:	9105      	str	r1, [sp, #20]
  if (HAL_RCC_ClockConfig(&RCC_ClkInitStruct, FLASH_LATENCY_4) != HAL_OK)
 8000900:	2104      	movs	r1, #4
  RCC_ClkInitStruct.APB3CLKDivider = RCC_APB3_DIV2;
 8000902:	e9cd 4207 	strd	r4, r2, [sp, #28]
  RCC_ClkInitStruct.APB4CLKDivider = RCC_APB4_DIV2;
 8000906:	e9cd 320a 	strd	r3, r2, [sp, #40]	; 0x28
  if (HAL_RCC_ClockConfig(&RCC_ClkInitStruct, FLASH_LATENCY_4) != HAL_OK)
 800090a:	f002 fc83 	bl	8003214 <HAL_RCC_ClockConfig>
 800090e:	b108      	cbz	r0, 8000914 <SystemClock_Config+0xf4>
 8000910:	b672      	cpsid	i
  while (1)
 8000912:	e7fe      	b.n	8000912 <SystemClock_Config+0xf2>
}
 8000914:	b020      	add	sp, #128	; 0x80
 8000916:	bd10      	pop	{r4, pc}
 8000918:	00000001 	.word	0x00000001
 800091c:	00010000 	.word	0x00010000
 8000920:	58000400 	.word	0x58000400
 8000924:	58024800 	.word	0x58024800
 8000928:	58024400 	.word	0x58024400

0800092c <main>:
{
 800092c:	e92d 4ff0 	stmdb	sp!, {r4, r5, r6, r7, r8, r9, sl, fp, lr}
  __HAL_RCC_SYSCFG_CLK_ENABLE();
 8000930:	4cc9      	ldr	r4, [pc, #804]	; (8000c58 <main+0x32c>)
  GPIO_InitTypeDef GPIO_InitStruct = {0};
 8000932:	2500      	movs	r5, #0
  hi2s2.Init.Data24BitAlignment = I2S_DATA_24BIT_ALIGNMENT_LEFT;
 8000934:	f44f 4680 	mov.w	r6, #16384	; 0x4000
  hi2s2.Init.Mode = I2S_MODE_MASTER_TX;
 8000938:	f04f 0804 	mov.w	r8, #4
  hi2s2.Init.DataFormat = I2S_DATAFORMAT_24B;
 800093c:	f44f 7780 	mov.w	r7, #256	; 0x100
  hi2s2.Init.AudioFreq = I2S_AUDIOFREQ_48K;
 8000940:	f64b 3980 	movw	r9, #48000	; 0xbb80
{
 8000944:	ed2d 8b02 	vpush	{d8}
 8000948:	b091      	sub	sp, #68	; 0x44
  HAL_Init();
 800094a:	f000 fbc1 	bl	80010d0 <HAL_Init>
  __HAL_RCC_SYSCFG_CLK_ENABLE();
 800094e:	f8d4 30f4 	ldr.w	r3, [r4, #244]	; 0xf4
 8000952:	f043 0302 	orr.w	r3, r3, #2
 8000956:	f8c4 30f4 	str.w	r3, [r4, #244]	; 0xf4
 800095a:	f8d4 30f4 	ldr.w	r3, [r4, #244]	; 0xf4
 800095e:	f003 0302 	and.w	r3, r3, #2
 8000962:	9301      	str	r3, [sp, #4]
 8000964:	9b01      	ldr	r3, [sp, #4]
  SystemClock_Config();
 8000966:	f7ff ff5b 	bl	8000820 <SystemClock_Config>
  __HAL_RCC_SPI1_CLK_ENABLE();
 800096a:	f8d4 30f0 	ldr.w	r3, [r4, #240]	; 0xf0
  HAL_GPIO_WritePin(CODEC_CS_GPIO_Port, CODEC_CS_Pin, GPIO_PIN_SET);
 800096e:	2201      	movs	r2, #1
 8000970:	f44f 5100 	mov.w	r1, #8192	; 0x2000
 8000974:	48b9      	ldr	r0, [pc, #740]	; (8000c5c <main+0x330>)
  __HAL_RCC_SPI1_CLK_ENABLE();
 8000976:	f443 5380 	orr.w	r3, r3, #4096	; 0x1000
 800097a:	f8c4 30f0 	str.w	r3, [r4, #240]	; 0xf0
 800097e:	f8d4 30f0 	ldr.w	r3, [r4, #240]	; 0xf0
  GPIO_InitTypeDef GPIO_InitStruct = {0};
 8000982:	950e      	str	r5, [sp, #56]	; 0x38
  __HAL_RCC_SPI1_CLK_ENABLE();
 8000984:	f403 5380 	and.w	r3, r3, #4096	; 0x1000
 8000988:	9302      	str	r3, [sp, #8]
 800098a:	9b02      	ldr	r3, [sp, #8]
  GPIO_InitTypeDef GPIO_InitStruct = {0};
 800098c:	e9cd 550a 	strd	r5, r5, [sp, #40]	; 0x28
 8000990:	e9cd 550c 	strd	r5, r5, [sp, #48]	; 0x30
  __HAL_RCC_GPIOH_CLK_ENABLE();
 8000994:	f8d4 30e0 	ldr.w	r3, [r4, #224]	; 0xe0
 8000998:	f043 0380 	orr.w	r3, r3, #128	; 0x80
 800099c:	f8c4 30e0 	str.w	r3, [r4, #224]	; 0xe0
 80009a0:	f8d4 30e0 	ldr.w	r3, [r4, #224]	; 0xe0
 80009a4:	f003 0380 	and.w	r3, r3, #128	; 0x80
 80009a8:	9304      	str	r3, [sp, #16]
 80009aa:	9b04      	ldr	r3, [sp, #16]
  __HAL_RCC_GPIOC_CLK_ENABLE();
 80009ac:	f8d4 30e0 	ldr.w	r3, [r4, #224]	; 0xe0
 80009b0:	f043 0304 	orr.w	r3, r3, #4
 80009b4:	f8c4 30e0 	str.w	r3, [r4, #224]	; 0xe0
 80009b8:	f8d4 30e0 	ldr.w	r3, [r4, #224]	; 0xe0
 80009bc:	f003 0304 	and.w	r3, r3, #4
 80009c0:	9305      	str	r3, [sp, #20]
 80009c2:	9b05      	ldr	r3, [sp, #20]
  __HAL_RCC_GPIOA_CLK_ENABLE();
 80009c4:	f8d4 30e0 	ldr.w	r3, [r4, #224]	; 0xe0
 80009c8:	4313      	orrs	r3, r2
 80009ca:	f8c4 30e0 	str.w	r3, [r4, #224]	; 0xe0
 80009ce:	f8d4 30e0 	ldr.w	r3, [r4, #224]	; 0xe0
 80009d2:	4013      	ands	r3, r2
 80009d4:	9306      	str	r3, [sp, #24]
 80009d6:	9b06      	ldr	r3, [sp, #24]
  __HAL_RCC_GPIOB_CLK_ENABLE();
 80009d8:	f8d4 30e0 	ldr.w	r3, [r4, #224]	; 0xe0
 80009dc:	f043 0302 	orr.w	r3, r3, #2
 80009e0:	f8c4 30e0 	str.w	r3, [r4, #224]	; 0xe0
 80009e4:	f8d4 30e0 	ldr.w	r3, [r4, #224]	; 0xe0
 80009e8:	f003 0302 	and.w	r3, r3, #2
 80009ec:	9307      	str	r3, [sp, #28]
 80009ee:	9b07      	ldr	r3, [sp, #28]
  __HAL_RCC_GPIOF_CLK_ENABLE();
 80009f0:	f8d4 30e0 	ldr.w	r3, [r4, #224]	; 0xe0
 80009f4:	f043 0320 	orr.w	r3, r3, #32
 80009f8:	f8c4 30e0 	str.w	r3, [r4, #224]	; 0xe0
 80009fc:	f8d4 30e0 	ldr.w	r3, [r4, #224]	; 0xe0
 8000a00:	f003 0320 	and.w	r3, r3, #32
 8000a04:	9308      	str	r3, [sp, #32]
 8000a06:	9b08      	ldr	r3, [sp, #32]
  __HAL_RCC_GPIOG_CLK_ENABLE();
 8000a08:	f8d4 30e0 	ldr.w	r3, [r4, #224]	; 0xe0
 8000a0c:	f043 0340 	orr.w	r3, r3, #64	; 0x40
 8000a10:	f8c4 30e0 	str.w	r3, [r4, #224]	; 0xe0
 8000a14:	f8d4 30e0 	ldr.w	r3, [r4, #224]	; 0xe0
 8000a18:	f003 0340 	and.w	r3, r3, #64	; 0x40
 8000a1c:	9309      	str	r3, [sp, #36]	; 0x24
 8000a1e:	9b09      	ldr	r3, [sp, #36]	; 0x24
  HAL_GPIO_WritePin(CODEC_CS_GPIO_Port, CODEC_CS_Pin, GPIO_PIN_SET);
 8000a20:	f001 fdbc 	bl	800259c <HAL_GPIO_WritePin>
  GPIO_InitStruct.Pin = CODEC_CS_Pin;
 8000a24:	f44f 5200 	mov.w	r2, #8192	; 0x2000
 8000a28:	2301      	movs	r3, #1
  HAL_GPIO_Init(CODEC_CS_GPIO_Port, &GPIO_InitStruct);
 8000a2a:	a90a      	add	r1, sp, #40	; 0x28
 8000a2c:	488b      	ldr	r0, [pc, #556]	; (8000c5c <main+0x330>)
  GPIO_InitStruct.Pin = CODEC_CS_Pin;
 8000a2e:	e9cd 230a 	strd	r2, r3, [sp, #40]	; 0x28
 8000a32:	2201      	movs	r2, #1
 8000a34:	2303      	movs	r3, #3
 8000a36:	e9cd 230c 	strd	r2, r3, [sp, #48]	; 0x30
  HAL_GPIO_Init(CODEC_CS_GPIO_Port, &GPIO_InitStruct);
 8000a3a:	f001 fc7d 	bl	8002338 <HAL_GPIO_Init>
  __HAL_RCC_DMA2_CLK_ENABLE();
 8000a3e:	f8d4 30d8 	ldr.w	r3, [r4, #216]	; 0xd8
  HAL_NVIC_SetPriority(DMA1_Stream0_IRQn, 0, 0);
 8000a42:	462a      	mov	r2, r5
 8000a44:	4629      	mov	r1, r5
  __HAL_RCC_DMA2_CLK_ENABLE();
 8000a46:	f043 0302 	orr.w	r3, r3, #2
  HAL_NVIC_SetPriority(DMA1_Stream0_IRQn, 0, 0);
 8000a4a:	200b      	movs	r0, #11
  __HAL_RCC_DMA2_CLK_ENABLE();
 8000a4c:	f8c4 30d8 	str.w	r3, [r4, #216]	; 0xd8
 8000a50:	f8d4 30d8 	ldr.w	r3, [r4, #216]	; 0xd8
 8000a54:	f003 0302 	and.w	r3, r3, #2
 8000a58:	9303      	str	r3, [sp, #12]
 8000a5a:	9b03      	ldr	r3, [sp, #12]
  __HAL_RCC_DMA1_CLK_ENABLE();
 8000a5c:	f8d4 30d8 	ldr.w	r3, [r4, #216]	; 0xd8
 8000a60:	f043 0301 	orr.w	r3, r3, #1
 8000a64:	f8c4 30d8 	str.w	r3, [r4, #216]	; 0xd8
 8000a68:	f8d4 30d8 	ldr.w	r3, [r4, #216]	; 0xd8
  hi2s2.Instance = SPI2;
 8000a6c:	4c7c      	ldr	r4, [pc, #496]	; (8000c60 <main+0x334>)
  __HAL_RCC_DMA1_CLK_ENABLE();
 8000a6e:	f003 0301 	and.w	r3, r3, #1
 8000a72:	930a      	str	r3, [sp, #40]	; 0x28
 8000a74:	9b0a      	ldr	r3, [sp, #40]	; 0x28
  HAL_NVIC_SetPriority(DMA1_Stream0_IRQn, 0, 0);
 8000a76:	f000 fb97 	bl	80011a8 <HAL_NVIC_SetPriority>
  HAL_NVIC_EnableIRQ(DMA1_Stream0_IRQn);
 8000a7a:	200b      	movs	r0, #11
 8000a7c:	f000 fbd2 	bl	8001224 <HAL_NVIC_EnableIRQ>
  HAL_NVIC_SetPriority(DMA2_Stream1_IRQn, 0, 0);
 8000a80:	462a      	mov	r2, r5
 8000a82:	4629      	mov	r1, r5
 8000a84:	2039      	movs	r0, #57	; 0x39
 8000a86:	f000 fb8f 	bl	80011a8 <HAL_NVIC_SetPriority>
  HAL_NVIC_EnableIRQ(DMA2_Stream1_IRQn);
 8000a8a:	2039      	movs	r0, #57	; 0x39
 8000a8c:	f000 fbca 	bl	8001224 <HAL_NVIC_EnableIRQ>
  hi2s2.Instance = SPI2;
 8000a90:	4b74      	ldr	r3, [pc, #464]	; (8000c64 <main+0x338>)
  if (HAL_I2S_Init(&hi2s2) != HAL_OK)
 8000a92:	4620      	mov	r0, r4
  hi2s2.Init.AudioFreq = I2S_AUDIOFREQ_48K;
 8000a94:	f8c4 9014 	str.w	r9, [r4, #20]
  hi2s2.Instance = SPI2;
 8000a98:	6023      	str	r3, [r4, #0]
  hi2s2.Init.Data24BitAlignment = I2S_DATA_24BIT_ALIGNMENT_LEFT;
 8000a9a:	f44f 5300 	mov.w	r3, #8192	; 0x2000
 8000a9e:	e9c4 3608 	strd	r3, r6, [r4, #32]
  hi2s2.Init.MasterKeepIOState = I2S_MASTER_KEEP_IO_STATE_ENABLE;
 8000aa2:	f04f 4300 	mov.w	r3, #2147483648	; 0x80000000
  hi2s2.Init.Standard = I2S_STANDARD_PHILIPS;
 8000aa6:	e9c4 8501 	strd	r8, r5, [r4, #4]
  hi2s2.Init.MCLKOutput = I2S_MCLKOUTPUT_DISABLE;
 8000aaa:	e9c4 7503 	strd	r7, r5, [r4, #12]
  hi2s2.Init.FirstBit = I2S_FIRSTBIT_MSB;
 8000aae:	e9c4 5506 	strd	r5, r5, [r4, #24]
  hi2s2.Init.MasterKeepIOState = I2S_MASTER_KEEP_IO_STATE_ENABLE;
 8000ab2:	62a3      	str	r3, [r4, #40]	; 0x28
  if (HAL_I2S_Init(&hi2s2) != HAL_OK)
 8000ab4:	f001 fdb8 	bl	8002628 <HAL_I2S_Init>
 8000ab8:	b108      	cbz	r0, 8000abe <main+0x192>
 8000aba:	b672      	cpsid	i
  while (1)
 8000abc:	e7fe      	b.n	8000abc <main+0x190>
  hspi3.Instance = SPI3;
 8000abe:	4d6a      	ldr	r5, [pc, #424]	; (8000c68 <main+0x33c>)
  hspi3.Init.Mode = SPI_MODE_MASTER;
 8000ac0:	f44f 0380 	mov.w	r3, #4194304	; 0x400000
 8000ac4:	4969      	ldr	r1, [pc, #420]	; (8000c6c <main+0x340>)
  hspi3.Init.BaudRatePrescaler = SPI_BAUDRATEPRESCALER_64;
 8000ac6:	f04f 6c80 	mov.w	ip, #67108864	; 0x4000000
  hspi3.Init.Direction = SPI_DIRECTION_2LINES;
 8000aca:	60a8      	str	r0, [r5, #8]
  hspi3.Init.IOSwap = SPI_IO_SWAP_DISABLE;
 8000acc:	65a8      	str	r0, [r5, #88]	; 0x58
  hspi3.Init.Mode = SPI_MODE_MASTER;
 8000ace:	e9c5 1300 	strd	r1, r3, [r5]
  hspi3.Init.DataSize = SPI_DATASIZE_8BIT;
 8000ad2:	2307      	movs	r3, #7
 8000ad4:	60eb      	str	r3, [r5, #12]
  hspi3.Init.BaudRatePrescaler = SPI_BAUDRATEPRESCALER_64;
 8000ad6:	f04f 43a0 	mov.w	r3, #1342177280	; 0x50000000
 8000ada:	e9c5 c306 	strd	ip, r3, [r5, #24]
  hspi3.Init.NSSPMode = SPI_NSS_PULSE_ENABLE;
 8000ade:	f04f 4380 	mov.w	r3, #1073741824	; 0x40000000
  hspi3.Init.CLKPhase = SPI_PHASE_1EDGE;
 8000ae2:	e9c5 0004 	strd	r0, r0, [r5, #16]
  hspi3.Init.TIMode = SPI_TIMODE_DISABLE;
 8000ae6:	e9c5 0008 	strd	r0, r0, [r5, #32]
  hspi3.Init.CRCPolynomial = 0x0;
 8000aea:	e9c5 000a 	strd	r0, r0, [r5, #40]	; 0x28
  hspi3.Init.FifoThreshold = SPI_FIFO_THRESHOLD_01DATA;
 8000aee:	e9c5 000e 	strd	r0, r0, [r5, #56]	; 0x38
  hspi3.Init.RxCRCInitializationPattern = SPI_CRC_INITIALIZATION_ALL_ZERO_PATTERN;
 8000af2:	e9c5 0010 	strd	r0, r0, [r5, #64]	; 0x40
  hspi3.Init.MasterInterDataIdleness = SPI_MASTER_INTERDATA_IDLENESS_00CYCLE;
 8000af6:	e9c5 0012 	strd	r0, r0, [r5, #72]	; 0x48
  hspi3.Init.MasterKeepIOState = SPI_MASTER_KEEP_IO_STATE_DISABLE;
 8000afa:	e9c5 0014 	strd	r0, r0, [r5, #80]	; 0x50
  if (HAL_SPI_Init(&hspi3) != HAL_OK)
 8000afe:	4628      	mov	r0, r5
  hspi3.Init.NSSPMode = SPI_NSS_PULSE_ENABLE;
 8000b00:	636b      	str	r3, [r5, #52]	; 0x34
  if (HAL_SPI_Init(&hspi3) != HAL_OK)
 8000b02:	f004 f87f 	bl	8004c04 <HAL_SPI_Init>
 8000b06:	b108      	cbz	r0, 8000b0c <main+0x1e0>
 8000b08:	b672      	cpsid	i
  while (1)
 8000b0a:	e7fe      	b.n	8000b0a <main+0x1de>
  hi2s1.Instance = SPI1;
 8000b0c:	f8df a198 	ldr.w	sl, [pc, #408]	; 8000ca8 <main+0x37c>
  hi2s1.Init.Mode = I2S_MODE_MASTER_RX;
 8000b10:	2306      	movs	r3, #6
 8000b12:	4a57      	ldr	r2, [pc, #348]	; (8000c70 <main+0x344>)
  hi2s1.Init.Standard = I2S_STANDARD_PHILIPS;
 8000b14:	f8ca 0008 	str.w	r0, [sl, #8]
  hi2s1.Init.MCLKOutput = I2S_MCLKOUTPUT_DISABLE;
 8000b18:	f8ca 0010 	str.w	r0, [sl, #16]
  hi2s1.Init.WSInversion = I2S_WS_INVERSION_DISABLE;
 8000b1c:	f8ca 0020 	str.w	r0, [sl, #32]
  hi2s1.Init.MasterKeepIOState = I2S_MASTER_KEEP_IO_STATE_DISABLE;
 8000b20:	f8ca 0028 	str.w	r0, [sl, #40]	; 0x28
  hi2s1.Init.DataFormat = I2S_DATAFORMAT_24B;
 8000b24:	f8ca 700c 	str.w	r7, [sl, #12]
  hi2s1.Init.AudioFreq = I2S_AUDIOFREQ_48K;
 8000b28:	f8ca 9014 	str.w	r9, [sl, #20]
  hi2s1.Init.Data24BitAlignment = I2S_DATA_24BIT_ALIGNMENT_LEFT;
 8000b2c:	f8ca 6024 	str.w	r6, [sl, #36]	; 0x24
  hi2s1.Init.FirstBit = I2S_FIRSTBIT_MSB;
 8000b30:	e9ca 0006 	strd	r0, r0, [sl, #24]
  if (HAL_I2S_Init(&hi2s1) != HAL_OK)
 8000b34:	4650      	mov	r0, sl
  hi2s1.Init.Mode = I2S_MODE_MASTER_RX;
 8000b36:	e9ca 2300 	strd	r2, r3, [sl]
  if (HAL_I2S_Init(&hi2s1) != HAL_OK)
 8000b3a:	f001 fd75 	bl	8002628 <HAL_I2S_Init>
 8000b3e:	2800      	cmp	r0, #0
 8000b40:	f040 8088 	bne.w	8000c54 <main+0x328>
	  my_data[i] = 0x0000;
 8000b44:	4f4b      	ldr	r7, [pc, #300]	; (8000c74 <main+0x348>)
  arm_biquad_cascade_df2T_init_f32(&highpass_iir_50hz, 1, &highpass_coeff, &highpass_state);
 8000b46:	2101      	movs	r1, #1
	  rx_data_i2s[i]= 0x0000;
 8000b48:	4e4b      	ldr	r6, [pc, #300]	; (8000c78 <main+0x34c>)
	  my_data[i] = 0x0000;
 8000b4a:	8038      	strh	r0, [r7, #0]
  arm_biquad_cascade_df2T_init_f32(&highpass_iir_50hz, 1, &highpass_coeff, &highpass_state);
 8000b4c:	4b4b      	ldr	r3, [pc, #300]	; (8000c7c <main+0x350>)
	  rx_data_i2s[i]= 0x0000;
 8000b4e:	8030      	strh	r0, [r6, #0]
  arm_biquad_cascade_df2T_init_f32(&highpass_iir_50hz, 1, &highpass_coeff, &highpass_state);
 8000b50:	4a4b      	ldr	r2, [pc, #300]	; (8000c80 <main+0x354>)
	  my_data[i] = 0x0000;
 8000b52:	8078      	strh	r0, [r7, #2]
	  rx_data_i2s[i]= 0x0000;
 8000b54:	8070      	strh	r0, [r6, #2]
	  my_data[i] = 0x0000;
 8000b56:	80b8      	strh	r0, [r7, #4]
	  rx_data_i2s[i]= 0x0000;
 8000b58:	80b0      	strh	r0, [r6, #4]
	  my_data[i] = 0x0000;
 8000b5a:	80f8      	strh	r0, [r7, #6]
	  rx_data_i2s[i]= 0x0000;
 8000b5c:	80f0      	strh	r0, [r6, #6]
  arm_biquad_cascade_df2T_init_f32(&highpass_iir_50hz, 1, &highpass_coeff, &highpass_state);
 8000b5e:	4849      	ldr	r0, [pc, #292]	; (8000c84 <main+0x358>)
 8000b60:	f004 fc34 	bl	80053cc <arm_biquad_cascade_df2T_init_f32>
  HAL_I2S_Transmit_DMA(	&hi2s2, 	my_data, 		4);
 8000b64:	4642      	mov	r2, r8
 8000b66:	4639      	mov	r1, r7
 8000b68:	4620      	mov	r0, r4
 8000b6a:	f001 fe45 	bl	80027f8 <HAL_I2S_Transmit_DMA>
  HAL_I2S_Receive_DMA(	&hi2s1, 	rx_data_i2s, 	4);
 8000b6e:	4642      	mov	r2, r8
 8000b70:	4631      	mov	r1, r6
 8000b72:	4650      	mov	r0, sl
 8000b74:	f001 fe9a 	bl	80028ac <HAL_I2S_Receive_DMA>
  ad1939_init(&hspi3);
 8000b78:	f8df 8130 	ldr.w	r8, [pc, #304]	; 8000cac <main+0x380>
 8000b7c:	4628      	mov	r0, r5
 8000b7e:	f8df b130 	ldr.w	fp, [pc, #304]	; 8000cb0 <main+0x384>
 8000b82:	4d41      	ldr	r5, [pc, #260]	; (8000c88 <main+0x35c>)
 8000b84:	f7ff fc1a 	bl	80003bc <ad1939_init>
	arm_abs_f32(subbandfilter_output, subband_absolute_value, numberofsubbands);
 8000b88:	4f40      	ldr	r7, [pc, #256]	; (8000c8c <main+0x360>)
 8000b8a:	f8df a128 	ldr.w	sl, [pc, #296]	; 8000cb4 <main+0x388>
	arm_dot_prod_f32(subband_absolute_value, subband_ones, numberofsubbands, &octave1_up);
 8000b8e:	4e40      	ldr	r6, [pc, #256]	; (8000c90 <main+0x364>)
 8000b90:	f8df 9124 	ldr.w	r9, [pc, #292]	; 8000cb8 <main+0x38c>
	  if (ADC_READY_FLAG){
 8000b94:	782b      	ldrb	r3, [r5, #0]
 8000b96:	2b00      	cmp	r3, #0
 8000b98:	d0fc      	beq.n	8000b94 <main+0x268>
		  ADC_READY_FLAG  = 0;
 8000b9a:	2300      	movs	r3, #0
 8000b9c:	702b      	strb	r3, [r5, #0]
		int32_t value_from_ADC = adc_data_bf.value; //value_from_ADC_HighByte | value_from_ADC_LowByte;
 8000b9e:	4b3d      	ldr	r3, [pc, #244]	; (8000c94 <main+0x368>)
 8000ba0:	681c      	ldr	r4, [r3, #0]
		subbandfilter_calculation(value_from_ADC);
 8000ba2:	4620      	mov	r0, r4
 8000ba4:	f7ff fd88 	bl	80006b8 <subbandfilter_calculation>
	arm_abs_f32(subbandfilter_output, subband_absolute_value, numberofsubbands);
 8000ba8:	222b      	movs	r2, #43	; 0x2b
 8000baa:	4639      	mov	r1, r7
 8000bac:	4650      	mov	r0, sl
 8000bae:	f004 fd83 	bl	80056b8 <arm_abs_f32>
	arm_dot_prod_f32(subband_absolute_value, subband_ones, numberofsubbands, &octave1_up);
 8000bb2:	4633      	mov	r3, r6
 8000bb4:	222b      	movs	r2, #43	; 0x2b
 8000bb6:	4649      	mov	r1, r9
 8000bb8:	4638      	mov	r0, r7
 8000bba:	f004 fcc7 	bl	800554c <arm_dot_prod_f32>
	arm_biquad_cascade_df2T_f32(&highpass_iir_50hz, &octave1_up, &octave1_up_filtered, 1);
 8000bbe:	4642      	mov	r2, r8
 8000bc0:	4631      	mov	r1, r6
 8000bc2:	2301      	movs	r3, #1
 8000bc4:	482f      	ldr	r0, [pc, #188]	; (8000c84 <main+0x358>)
 8000bc6:	f004 fa45 	bl	8005054 <arm_biquad_cascade_df2T_f32>
		float32_t octave_1_up_f32 = octave1_up_filtered;
 8000bca:	ed98 8a00 	vldr	s16, [r8]
		subbandfilter_calculation((int32_t)octave_1_up_f32*5);
 8000bce:	eebd 8ac8 	vcvt.s32.f32	s16, s16
 8000bd2:	ee18 3a10 	vmov	r3, s16
		output_test_ac=	(int32_t)octave_1_up_f32*octave_1_volume +
 8000bd6:	eeb8 8ac8 	vcvt.f32.s32	s16, s16
		subbandfilter_calculation((int32_t)octave_1_up_f32*5);
 8000bda:	eb03 0083 	add.w	r0, r3, r3, lsl #2
 8000bde:	f7ff fd6b 	bl	80006b8 <subbandfilter_calculation>
	arm_abs_f32(subbandfilter_output, subband_absolute_value, numberofsubbands);
 8000be2:	222b      	movs	r2, #43	; 0x2b
 8000be4:	4639      	mov	r1, r7
 8000be6:	4650      	mov	r0, sl
 8000be8:	f004 fd66 	bl	80056b8 <arm_abs_f32>
	arm_dot_prod_f32(subband_absolute_value, subband_ones, numberofsubbands, &octave1_up);
 8000bec:	4633      	mov	r3, r6
 8000bee:	222b      	movs	r2, #43	; 0x2b
 8000bf0:	4649      	mov	r1, r9
 8000bf2:	4638      	mov	r0, r7
 8000bf4:	f004 fcaa 	bl	800554c <arm_dot_prod_f32>
	arm_biquad_cascade_df2T_f32(&highpass_iir_50hz, &octave1_up, &octave1_up_filtered, 1);
 8000bf8:	2301      	movs	r3, #1
 8000bfa:	4642      	mov	r2, r8
 8000bfc:	4631      	mov	r1, r6
 8000bfe:	4821      	ldr	r0, [pc, #132]	; (8000c84 <main+0x358>)
 8000c00:	f004 fa28 	bl	8005054 <arm_biquad_cascade_df2T_f32>
		float32_t octave_2_up_f32 = octave1_up_filtered;
 8000c04:	ed98 7a00 	vldr	s14, [r8]
		output_test_ac=	(int32_t)octave_1_up_f32*octave_1_volume +
 8000c08:	4b23      	ldr	r3, [pc, #140]	; (8000c98 <main+0x36c>)
						(int32_t)((float32_t)value_from_ADC*passthrough_volume);
 8000c0a:	ee07 4a90 	vmov	s15, r4
						(int32_t)octave_2_up_f32*octave_2_volume +
 8000c0e:	eebd 7ac7 	vcvt.s32.f32	s14, s14
		output_buffer.value= output_test_ac;
 8000c12:	4a22      	ldr	r2, [pc, #136]	; (8000c9c <main+0x370>)
		output_test_ac=	(int32_t)octave_1_up_f32*octave_1_volume +
 8000c14:	edd3 6a00 	vldr	s13, [r3]
						(int32_t)((float32_t)value_from_ADC*passthrough_volume);
 8000c18:	eef8 7ae7 	vcvt.f32.s32	s15, s15
						(int32_t)octave_2_up_f32*octave_2_volume +
 8000c1c:	4b20      	ldr	r3, [pc, #128]	; (8000ca0 <main+0x374>)
 8000c1e:	eeb8 7ac7 	vcvt.f32.s32	s14, s14
 8000c22:	ed93 6a00 	vldr	s12, [r3]
						(int32_t)((float32_t)value_from_ADC*passthrough_volume);
 8000c26:	4b1f      	ldr	r3, [pc, #124]	; (8000ca4 <main+0x378>)
						(int32_t)octave_2_up_f32*octave_2_volume +
 8000c28:	ee27 7a06 	vmul.f32	s14, s14, s12
						(int32_t)((float32_t)value_from_ADC*passthrough_volume);
 8000c2c:	edd3 5a00 	vldr	s11, [r3]
 8000c30:	ee67 7aa5 	vmul.f32	s15, s15, s11
 8000c34:	eea8 7a26 	vfma.f32	s14, s16, s13
 8000c38:	eefd 7ae7 	vcvt.s32.f32	s15, s15
						(int32_t)octave_2_up_f32*octave_2_volume +
 8000c3c:	eef8 7ae7 	vcvt.f32.s32	s15, s15
 8000c40:	ee77 7a87 	vadd.f32	s15, s15, s14
		output_test_ac=	(int32_t)octave_1_up_f32*octave_1_volume +
 8000c44:	eefd 7ae7 	vcvt.s32.f32	s15, s15
 8000c48:	edcb 7a00 	vstr	s15, [fp]
		output_buffer.value= output_test_ac;
 8000c4c:	f8db 3000 	ldr.w	r3, [fp]
 8000c50:	6013      	str	r3, [r2, #0]
 8000c52:	e79f      	b.n	8000b94 <main+0x268>
 8000c54:	b672      	cpsid	i
  while (1)
 8000c56:	e7fe      	b.n	8000c56 <main+0x32a>
 8000c58:	58024400 	.word	0x58024400
 8000c5c:	58021400 	.word	0x58021400
 8000c60:	24000518 	.word	0x24000518
 8000c64:	40003800 	.word	0x40003800
 8000c68:	240005c4 	.word	0x240005c4
 8000c6c:	40003c00 	.word	0x40003c00
 8000c70:	40013000 	.word	0x40013000
 8000c74:	2400064c 	.word	0x2400064c
 8000c78:	24000674 	.word	0x24000674
 8000c7c:	2400059c 	.word	0x2400059c
 8000c80:	24000008 	.word	0x24000008
 8000c84:	24000590 	.word	0x24000590
 8000c88:	240003ab 	.word	0x240003ab
 8000c8c:	24000684 	.word	0x24000684
 8000c90:	2400065c 	.word	0x2400065c
 8000c94:	240003ac 	.word	0x240003ac
 8000c98:	24000664 	.word	0x24000664
 8000c9c:	24000668 	.word	0x24000668
 8000ca0:	2400001c 	.word	0x2400001c
 8000ca4:	24000670 	.word	0x24000670
 8000ca8:	240004a0 	.word	0x240004a0
 8000cac:	24000660 	.word	0x24000660
 8000cb0:	2400066c 	.word	0x2400066c
 8000cb4:	24000de8 	.word	0x24000de8
 8000cb8:	24000020 	.word	0x24000020

08000cbc <Error_Handler>:
 8000cbc:	b672      	cpsid	i
 8000cbe:	e7fe      	b.n	8000cbe <Error_Handler+0x2>

08000cc0 <HAL_MspInit>:
{
  /* USER CODE BEGIN MspInit 0 */

  /* USER CODE END MspInit 0 */

  __HAL_RCC_SYSCFG_CLK_ENABLE();
 8000cc0:	4b07      	ldr	r3, [pc, #28]	; (8000ce0 <HAL_MspInit+0x20>)
{
 8000cc2:	b082      	sub	sp, #8
  __HAL_RCC_SYSCFG_CLK_ENABLE();
 8000cc4:	f8d3 20f4 	ldr.w	r2, [r3, #244]	; 0xf4
 8000cc8:	f042 0202 	orr.w	r2, r2, #2
 8000ccc:	f8c3 20f4 	str.w	r2, [r3, #244]	; 0xf4
 8000cd0:	f8d3 30f4 	ldr.w	r3, [r3, #244]	; 0xf4
 8000cd4:	f003 0302 	and.w	r3, r3, #2
 8000cd8:	9301      	str	r3, [sp, #4]
 8000cda:	9b01      	ldr	r3, [sp, #4]
  /* System interrupt init*/

  /* USER CODE BEGIN MspInit 1 */

  /* USER CODE END MspInit 1 */
}
 8000cdc:	b002      	add	sp, #8
 8000cde:	4770      	bx	lr
 8000ce0:	58024400 	.word	0x58024400

08000ce4 <HAL_I2S_MspInit>:
* This function configures the hardware resources used in this example
* @param hi2s: I2S handle pointer
* @retval None
*/
void HAL_I2S_MspInit(I2S_HandleTypeDef* hi2s)
{
 8000ce4:	e92d 4370 	stmdb	sp!, {r4, r5, r6, r8, r9, lr}
 8000ce8:	b0be      	sub	sp, #248	; 0xf8
  GPIO_InitTypeDef GPIO_InitStruct = {0};
 8000cea:	2100      	movs	r1, #0
{
 8000cec:	4604      	mov	r4, r0
  RCC_PeriphCLKInitTypeDef PeriphClkInitStruct = {0};
 8000cee:	22c8      	movs	r2, #200	; 0xc8
 8000cf0:	a80c      	add	r0, sp, #48	; 0x30
  GPIO_InitTypeDef GPIO_InitStruct = {0};
 8000cf2:	910a      	str	r1, [sp, #40]	; 0x28
 8000cf4:	e9cd 1106 	strd	r1, r1, [sp, #24]
 8000cf8:	e9cd 1108 	strd	r1, r1, [sp, #32]
  RCC_PeriphCLKInitTypeDef PeriphClkInitStruct = {0};
 8000cfc:	f004 fd20 	bl	8005740 <memset>
  if(hi2s->Instance==SPI1)
 8000d00:	6823      	ldr	r3, [r4, #0]
 8000d02:	4a75      	ldr	r2, [pc, #468]	; (8000ed8 <HAL_I2S_MspInit+0x1f4>)
 8000d04:	4293      	cmp	r3, r2
 8000d06:	d005      	beq.n	8000d14 <HAL_I2S_MspInit+0x30>

  /* USER CODE BEGIN SPI1_MspInit 1 */

  /* USER CODE END SPI1_MspInit 1 */
  }
  else if(hi2s->Instance==SPI2)
 8000d08:	4a74      	ldr	r2, [pc, #464]	; (8000edc <HAL_I2S_MspInit+0x1f8>)
 8000d0a:	4293      	cmp	r3, r2
 8000d0c:	d06d      	beq.n	8000dea <HAL_I2S_MspInit+0x106>
  /* USER CODE BEGIN SPI2_MspInit 1 */

  /* USER CODE END SPI2_MspInit 1 */
  }

}
 8000d0e:	b03e      	add	sp, #248	; 0xf8
 8000d10:	e8bd 8370 	ldmia.w	sp!, {r4, r5, r6, r8, r9, pc}
    PeriphClkInitStruct.PeriphClockSelection = RCC_PERIPHCLK_SPI1;
 8000d14:	f44f 5280 	mov.w	r2, #4096	; 0x1000
 8000d18:	2300      	movs	r3, #0
    if (HAL_RCCEx_PeriphCLKConfig(&PeriphClkInitStruct) != HAL_OK)
 8000d1a:	a80c      	add	r0, sp, #48	; 0x30
    PeriphClkInitStruct.PeriphClockSelection = RCC_PERIPHCLK_SPI1;
 8000d1c:	e9cd 230c 	strd	r2, r3, [sp, #48]	; 0x30
    if (HAL_RCCEx_PeriphCLKConfig(&PeriphClkInitStruct) != HAL_OK)
 8000d20:	f002 fd1c 	bl	800375c <HAL_RCCEx_PeriphCLKConfig>
 8000d24:	2800      	cmp	r0, #0
 8000d26:	f040 80ce 	bne.w	8000ec6 <HAL_I2S_MspInit+0x1e2>
    __HAL_RCC_SPI1_CLK_ENABLE();
 8000d2a:	4b6d      	ldr	r3, [pc, #436]	; (8000ee0 <HAL_I2S_MspInit+0x1fc>)
    GPIO_InitStruct.Alternate = GPIO_AF5_SPI1;
 8000d2c:	2605      	movs	r6, #5
    GPIO_InitStruct.Pin = ADC_WS_PIN_Pin|ADC_CLK_PIN_Pin;
 8000d2e:	f04f 0801 	mov.w	r8, #1
 8000d32:	f04f 0900 	mov.w	r9, #0
    __HAL_RCC_SPI1_CLK_ENABLE();
 8000d36:	f8d3 20f0 	ldr.w	r2, [r3, #240]	; 0xf0
    HAL_GPIO_Init(GPIOA, &GPIO_InitStruct);
 8000d3a:	486a      	ldr	r0, [pc, #424]	; (8000ee4 <HAL_I2S_MspInit+0x200>)
    __HAL_RCC_SPI1_CLK_ENABLE();
 8000d3c:	f442 5280 	orr.w	r2, r2, #4096	; 0x1000
    hdma_spi1_rx.Instance = DMA1_Stream0;
 8000d40:	4d69      	ldr	r5, [pc, #420]	; (8000ee8 <HAL_I2S_MspInit+0x204>)
    __HAL_RCC_SPI1_CLK_ENABLE();
 8000d42:	f8c3 20f0 	str.w	r2, [r3, #240]	; 0xf0
 8000d46:	f8d3 20f0 	ldr.w	r2, [r3, #240]	; 0xf0
 8000d4a:	f402 5280 	and.w	r2, r2, #4096	; 0x1000
 8000d4e:	9200      	str	r2, [sp, #0]
 8000d50:	9a00      	ldr	r2, [sp, #0]
    __HAL_RCC_GPIOA_CLK_ENABLE();
 8000d52:	f8d3 20e0 	ldr.w	r2, [r3, #224]	; 0xe0
 8000d56:	f042 0201 	orr.w	r2, r2, #1
 8000d5a:	f8c3 20e0 	str.w	r2, [r3, #224]	; 0xe0
 8000d5e:	f8d3 20e0 	ldr.w	r2, [r3, #224]	; 0xe0
 8000d62:	f002 0201 	and.w	r2, r2, #1
 8000d66:	9201      	str	r2, [sp, #4]
 8000d68:	9a01      	ldr	r2, [sp, #4]
    __HAL_RCC_GPIOG_CLK_ENABLE();
 8000d6a:	f8d3 20e0 	ldr.w	r2, [r3, #224]	; 0xe0
 8000d6e:	f042 0240 	orr.w	r2, r2, #64	; 0x40
 8000d72:	f8c3 20e0 	str.w	r2, [r3, #224]	; 0xe0
    GPIO_InitStruct.Pin = ADC_WS_PIN_Pin|ADC_CLK_PIN_Pin;
 8000d76:	2230      	movs	r2, #48	; 0x30
    __HAL_RCC_GPIOG_CLK_ENABLE();
 8000d78:	f8d3 30e0 	ldr.w	r3, [r3, #224]	; 0xe0
    GPIO_InitStruct.Alternate = GPIO_AF5_SPI1;
 8000d7c:	960a      	str	r6, [sp, #40]	; 0x28
    __HAL_RCC_GPIOG_CLK_ENABLE();
 8000d7e:	f003 0340 	and.w	r3, r3, #64	; 0x40
 8000d82:	9302      	str	r3, [sp, #8]
    GPIO_InitStruct.Pin = ADC_WS_PIN_Pin|ADC_CLK_PIN_Pin;
 8000d84:	2302      	movs	r3, #2
    __HAL_RCC_GPIOG_CLK_ENABLE();
 8000d86:	9902      	ldr	r1, [sp, #8]
    HAL_GPIO_Init(GPIOA, &GPIO_InitStruct);
 8000d88:	a906      	add	r1, sp, #24
    GPIO_InitStruct.Pin = ADC_WS_PIN_Pin|ADC_CLK_PIN_Pin;
 8000d8a:	e9cd 2306 	strd	r2, r3, [sp, #24]
 8000d8e:	e9cd 8908 	strd	r8, r9, [sp, #32]
    HAL_GPIO_Init(GPIOA, &GPIO_InitStruct);
 8000d92:	f001 fad1 	bl	8002338 <HAL_GPIO_Init>
    GPIO_InitStruct.Pin = ADC_DATA_PIN_Pin;
 8000d96:	f44f 7200 	mov.w	r2, #512	; 0x200
 8000d9a:	2302      	movs	r3, #2
    HAL_GPIO_Init(ADC_DATA_PIN_GPIO_Port, &GPIO_InitStruct);
 8000d9c:	a906      	add	r1, sp, #24
 8000d9e:	4853      	ldr	r0, [pc, #332]	; (8000eec <HAL_I2S_MspInit+0x208>)
    GPIO_InitStruct.Alternate = GPIO_AF5_SPI1;
 8000da0:	960a      	str	r6, [sp, #40]	; 0x28
    GPIO_InitStruct.Pin = ADC_DATA_PIN_Pin;
 8000da2:	e9cd 2306 	strd	r2, r3, [sp, #24]
 8000da6:	e9cd 8908 	strd	r8, r9, [sp, #32]
    HAL_GPIO_Init(ADC_DATA_PIN_GPIO_Port, &GPIO_InitStruct);
 8000daa:	f001 fac5 	bl	8002338 <HAL_GPIO_Init>
    hdma_spi1_rx.Init.Direction = DMA_PERIPH_TO_MEMORY;
 8000dae:	2300      	movs	r3, #0
    hdma_spi1_rx.Instance = DMA1_Stream0;
 8000db0:	494f      	ldr	r1, [pc, #316]	; (8000ef0 <HAL_I2S_MspInit+0x20c>)
    hdma_spi1_rx.Init.Request = DMA_REQUEST_SPI1_RX;
 8000db2:	2225      	movs	r2, #37	; 0x25
    if (HAL_DMA_Init(&hdma_spi1_rx) != HAL_OK)
 8000db4:	4628      	mov	r0, r5
    hdma_spi1_rx.Init.Priority = DMA_PRIORITY_LOW;
 8000db6:	622b      	str	r3, [r5, #32]
    hdma_spi1_rx.Init.FIFOMode = DMA_FIFOMODE_DISABLE;
 8000db8:	626b      	str	r3, [r5, #36]	; 0x24
    hdma_spi1_rx.Init.Request = DMA_REQUEST_SPI1_RX;
 8000dba:	e885 000e 	stmia.w	r5, {r1, r2, r3}
    hdma_spi1_rx.Init.MemInc = DMA_MINC_ENABLE;
 8000dbe:	f44f 6180 	mov.w	r1, #1024	; 0x400
    hdma_spi1_rx.Init.PeriphDataAlignment = DMA_PDATAALIGN_WORD;
 8000dc2:	f44f 5280 	mov.w	r2, #4096	; 0x1000
    hdma_spi1_rx.Init.MemInc = DMA_MINC_ENABLE;
 8000dc6:	e9c5 3103 	strd	r3, r1, [r5, #12]
    hdma_spi1_rx.Init.PeriphDataAlignment = DMA_PDATAALIGN_WORD;
 8000dca:	616a      	str	r2, [r5, #20]
    hdma_spi1_rx.Init.MemDataAlignment = DMA_MDATAALIGN_WORD;
 8000dcc:	f44f 4180 	mov.w	r1, #16384	; 0x4000
    hdma_spi1_rx.Init.Mode = DMA_CIRCULAR;
 8000dd0:	f44f 7280 	mov.w	r2, #256	; 0x100
 8000dd4:	e9c5 1206 	strd	r1, r2, [r5, #24]
    if (HAL_DMA_Init(&hdma_spi1_rx) != HAL_OK)
 8000dd8:	f000 fb2a 	bl	8001430 <HAL_DMA_Init>
 8000ddc:	2800      	cmp	r0, #0
 8000dde:	d16f      	bne.n	8000ec0 <HAL_I2S_MspInit+0x1dc>
    __HAL_LINKDMA(hi2s,hdmarx,hdma_spi1_rx);
 8000de0:	64a5      	str	r5, [r4, #72]	; 0x48
 8000de2:	63ac      	str	r4, [r5, #56]	; 0x38
}
 8000de4:	b03e      	add	sp, #248	; 0xf8
 8000de6:	e8bd 8370 	ldmia.w	sp!, {r4, r5, r6, r8, r9, pc}
    PeriphClkInitStruct.PeriphClockSelection = RCC_PERIPHCLK_SPI2;
 8000dea:	f44f 5280 	mov.w	r2, #4096	; 0x1000
 8000dee:	2300      	movs	r3, #0
    if (HAL_RCCEx_PeriphCLKConfig(&PeriphClkInitStruct) != HAL_OK)
 8000df0:	a80c      	add	r0, sp, #48	; 0x30
    PeriphClkInitStruct.PeriphClockSelection = RCC_PERIPHCLK_SPI2;
 8000df2:	e9cd 230c 	strd	r2, r3, [sp, #48]	; 0x30
    if (HAL_RCCEx_PeriphCLKConfig(&PeriphClkInitStruct) != HAL_OK)
 8000df6:	f002 fcb1 	bl	800375c <HAL_RCCEx_PeriphCLKConfig>
 8000dfa:	2800      	cmp	r0, #0
 8000dfc:	d166      	bne.n	8000ecc <HAL_I2S_MspInit+0x1e8>
    __HAL_RCC_SPI2_CLK_ENABLE();
 8000dfe:	4b38      	ldr	r3, [pc, #224]	; (8000ee0 <HAL_I2S_MspInit+0x1fc>)
    GPIO_InitStruct.Alternate = GPIO_AF5_SPI2;
 8000e00:	2605      	movs	r6, #5
    GPIO_InitStruct.Pin = GPIO_PIN_1;
 8000e02:	f04f 0800 	mov.w	r8, #0
 8000e06:	f04f 0900 	mov.w	r9, #0
    __HAL_RCC_SPI2_CLK_ENABLE();
 8000e0a:	f8d3 20e8 	ldr.w	r2, [r3, #232]	; 0xe8
    HAL_GPIO_Init(GPIOC, &GPIO_InitStruct);
 8000e0e:	4839      	ldr	r0, [pc, #228]	; (8000ef4 <HAL_I2S_MspInit+0x210>)
    __HAL_RCC_SPI2_CLK_ENABLE();
 8000e10:	f442 4280 	orr.w	r2, r2, #16384	; 0x4000
    hdma_spi2_tx.Instance = DMA2_Stream1;
 8000e14:	4d38      	ldr	r5, [pc, #224]	; (8000ef8 <HAL_I2S_MspInit+0x214>)
    __HAL_RCC_SPI2_CLK_ENABLE();
 8000e16:	f8c3 20e8 	str.w	r2, [r3, #232]	; 0xe8
 8000e1a:	f8d3 20e8 	ldr.w	r2, [r3, #232]	; 0xe8
 8000e1e:	f402 4280 	and.w	r2, r2, #16384	; 0x4000
 8000e22:	9203      	str	r2, [sp, #12]
 8000e24:	9a03      	ldr	r2, [sp, #12]
    __HAL_RCC_GPIOC_CLK_ENABLE();
 8000e26:	f8d3 20e0 	ldr.w	r2, [r3, #224]	; 0xe0
 8000e2a:	f042 0204 	orr.w	r2, r2, #4
 8000e2e:	f8c3 20e0 	str.w	r2, [r3, #224]	; 0xe0
 8000e32:	f8d3 20e0 	ldr.w	r2, [r3, #224]	; 0xe0
 8000e36:	f002 0204 	and.w	r2, r2, #4
 8000e3a:	9204      	str	r2, [sp, #16]
 8000e3c:	9a04      	ldr	r2, [sp, #16]
    __HAL_RCC_GPIOB_CLK_ENABLE();
 8000e3e:	f8d3 20e0 	ldr.w	r2, [r3, #224]	; 0xe0
 8000e42:	f042 0202 	orr.w	r2, r2, #2
 8000e46:	f8c3 20e0 	str.w	r2, [r3, #224]	; 0xe0
    GPIO_InitStruct.Pin = GPIO_PIN_1;
 8000e4a:	2202      	movs	r2, #2
    __HAL_RCC_GPIOB_CLK_ENABLE();
 8000e4c:	f8d3 30e0 	ldr.w	r3, [r3, #224]	; 0xe0
    GPIO_InitStruct.Alternate = GPIO_AF5_SPI2;
 8000e50:	960a      	str	r6, [sp, #40]	; 0x28
    __HAL_RCC_GPIOB_CLK_ENABLE();
 8000e52:	f003 0302 	and.w	r3, r3, #2
 8000e56:	9305      	str	r3, [sp, #20]
    GPIO_InitStruct.Pin = GPIO_PIN_1;
 8000e58:	2302      	movs	r3, #2
    __HAL_RCC_GPIOB_CLK_ENABLE();
 8000e5a:	9905      	ldr	r1, [sp, #20]
    HAL_GPIO_Init(GPIOC, &GPIO_InitStruct);
 8000e5c:	a906      	add	r1, sp, #24
    GPIO_InitStruct.Pin = GPIO_PIN_1;
 8000e5e:	e9cd 2306 	strd	r2, r3, [sp, #24]
 8000e62:	e9cd 8908 	strd	r8, r9, [sp, #32]
    HAL_GPIO_Init(GPIOC, &GPIO_InitStruct);
 8000e66:	f001 fa67 	bl	8002338 <HAL_GPIO_Init>
    GPIO_InitStruct.Pin = GPIO_PIN_10|GPIO_PIN_12;
 8000e6a:	f44f 52a0 	mov.w	r2, #5120	; 0x1400
 8000e6e:	2302      	movs	r3, #2
    HAL_GPIO_Init(GPIOB, &GPIO_InitStruct);
 8000e70:	a906      	add	r1, sp, #24
 8000e72:	4822      	ldr	r0, [pc, #136]	; (8000efc <HAL_I2S_MspInit+0x218>)
    GPIO_InitStruct.Alternate = GPIO_AF5_SPI2;
 8000e74:	960a      	str	r6, [sp, #40]	; 0x28
    GPIO_InitStruct.Pin = GPIO_PIN_10|GPIO_PIN_12;
 8000e76:	e9cd 2306 	strd	r2, r3, [sp, #24]
 8000e7a:	e9cd 8908 	strd	r8, r9, [sp, #32]
    HAL_GPIO_Init(GPIOB, &GPIO_InitStruct);
 8000e7e:	f001 fa5b 	bl	8002338 <HAL_GPIO_Init>
    hdma_spi2_tx.Init.Request = DMA_REQUEST_SPI2_TX;
 8000e82:	2228      	movs	r2, #40	; 0x28
    hdma_spi2_tx.Init.PeriphInc = DMA_PINC_DISABLE;
 8000e84:	2300      	movs	r3, #0
    hdma_spi2_tx.Instance = DMA2_Stream1;
 8000e86:	491e      	ldr	r1, [pc, #120]	; (8000f00 <HAL_I2S_MspInit+0x21c>)
    hdma_spi2_tx.Init.Request = DMA_REQUEST_SPI2_TX;
 8000e88:	606a      	str	r2, [r5, #4]
    hdma_spi2_tx.Init.MemInc = DMA_MINC_ENABLE;
 8000e8a:	f44f 6280 	mov.w	r2, #1024	; 0x400
    hdma_spi2_tx.Init.PeriphInc = DMA_PINC_DISABLE;
 8000e8e:	60eb      	str	r3, [r5, #12]
    if (HAL_DMA_Init(&hdma_spi2_tx) != HAL_OK)
 8000e90:	4628      	mov	r0, r5
    hdma_spi2_tx.Init.Priority = DMA_PRIORITY_LOW;
 8000e92:	622b      	str	r3, [r5, #32]
    hdma_spi2_tx.Init.FIFOMode = DMA_FIFOMODE_DISABLE;
 8000e94:	626b      	str	r3, [r5, #36]	; 0x24
    hdma_spi2_tx.Init.MemDataAlignment = DMA_MDATAALIGN_WORD;
 8000e96:	f44f 4380 	mov.w	r3, #16384	; 0x4000
    hdma_spi2_tx.Init.MemInc = DMA_MINC_ENABLE;
 8000e9a:	612a      	str	r2, [r5, #16]
    hdma_spi2_tx.Init.MemDataAlignment = DMA_MDATAALIGN_WORD;
 8000e9c:	f44f 5280 	mov.w	r2, #4096	; 0x1000
    hdma_spi2_tx.Instance = DMA2_Stream1;
 8000ea0:	6029      	str	r1, [r5, #0]
    hdma_spi2_tx.Init.Direction = DMA_MEMORY_TO_PERIPH;
 8000ea2:	2140      	movs	r1, #64	; 0x40
    hdma_spi2_tx.Init.MemDataAlignment = DMA_MDATAALIGN_WORD;
 8000ea4:	e9c5 2305 	strd	r2, r3, [r5, #20]
    hdma_spi2_tx.Init.Mode = DMA_CIRCULAR;
 8000ea8:	f44f 7380 	mov.w	r3, #256	; 0x100
    hdma_spi2_tx.Init.Direction = DMA_MEMORY_TO_PERIPH;
 8000eac:	60a9      	str	r1, [r5, #8]
    hdma_spi2_tx.Init.Mode = DMA_CIRCULAR;
 8000eae:	61eb      	str	r3, [r5, #28]
    if (HAL_DMA_Init(&hdma_spi2_tx) != HAL_OK)
 8000eb0:	f000 fabe 	bl	8001430 <HAL_DMA_Init>
 8000eb4:	b968      	cbnz	r0, 8000ed2 <HAL_I2S_MspInit+0x1ee>
    __HAL_LINKDMA(hi2s,hdmatx,hdma_spi2_tx);
 8000eb6:	6465      	str	r5, [r4, #68]	; 0x44
 8000eb8:	63ac      	str	r4, [r5, #56]	; 0x38
}
 8000eba:	b03e      	add	sp, #248	; 0xf8
 8000ebc:	e8bd 8370 	ldmia.w	sp!, {r4, r5, r6, r8, r9, pc}
      Error_Handler();
 8000ec0:	f7ff fefc 	bl	8000cbc <Error_Handler>
 8000ec4:	e78c      	b.n	8000de0 <HAL_I2S_MspInit+0xfc>
      Error_Handler();
 8000ec6:	f7ff fef9 	bl	8000cbc <Error_Handler>
 8000eca:	e72e      	b.n	8000d2a <HAL_I2S_MspInit+0x46>
      Error_Handler();
 8000ecc:	f7ff fef6 	bl	8000cbc <Error_Handler>
 8000ed0:	e795      	b.n	8000dfe <HAL_I2S_MspInit+0x11a>
      Error_Handler();
 8000ed2:	f7ff fef3 	bl	8000cbc <Error_Handler>
 8000ed6:	e7ee      	b.n	8000eb6 <HAL_I2S_MspInit+0x1d2>
 8000ed8:	40013000 	.word	0x40013000
 8000edc:	40003800 	.word	0x40003800
 8000ee0:	58024400 	.word	0x58024400
 8000ee4:	58020000 	.word	0x58020000
 8000ee8:	240003b0 	.word	0x240003b0
 8000eec:	58021800 	.word	0x58021800
 8000ef0:	40020010 	.word	0x40020010
 8000ef4:	58020800 	.word	0x58020800
 8000ef8:	24000428 	.word	0x24000428
 8000efc:	58020400 	.word	0x58020400
 8000f00:	40020428 	.word	0x40020428

08000f04 <HAL_SPI_MspInit>:
* This function configures the hardware resources used in this example
* @param hspi: SPI handle pointer
* @retval None
*/
void HAL_SPI_MspInit(SPI_HandleTypeDef* hspi)
{
 8000f04:	b530      	push	{r4, r5, lr}
 8000f06:	b0bd      	sub	sp, #244	; 0xf4
  GPIO_InitTypeDef GPIO_InitStruct = {0};
 8000f08:	2100      	movs	r1, #0
{
 8000f0a:	4604      	mov	r4, r0
  RCC_PeriphCLKInitTypeDef PeriphClkInitStruct = {0};
 8000f0c:	22c8      	movs	r2, #200	; 0xc8
 8000f0e:	a80a      	add	r0, sp, #40	; 0x28
  GPIO_InitTypeDef GPIO_InitStruct = {0};
 8000f10:	9108      	str	r1, [sp, #32]
 8000f12:	e9cd 1104 	strd	r1, r1, [sp, #16]
 8000f16:	e9cd 1106 	strd	r1, r1, [sp, #24]
  RCC_PeriphCLKInitTypeDef PeriphClkInitStruct = {0};
 8000f1a:	f004 fc11 	bl	8005740 <memset>
  if(hspi->Instance==SPI3)
 8000f1e:	4b31      	ldr	r3, [pc, #196]	; (8000fe4 <HAL_SPI_MspInit+0xe0>)
 8000f20:	6822      	ldr	r2, [r4, #0]
 8000f22:	429a      	cmp	r2, r3
 8000f24:	d001      	beq.n	8000f2a <HAL_SPI_MspInit+0x26>
  /* USER CODE BEGIN SPI3_MspInit 1 */

  /* USER CODE END SPI3_MspInit 1 */
  }

}
 8000f26:	b03d      	add	sp, #244	; 0xf4
 8000f28:	bd30      	pop	{r4, r5, pc}
    PeriphClkInitStruct.PeriphClockSelection = RCC_PERIPHCLK_SPI3;
 8000f2a:	f44f 5280 	mov.w	r2, #4096	; 0x1000
 8000f2e:	2300      	movs	r3, #0
    if (HAL_RCCEx_PeriphCLKConfig(&PeriphClkInitStruct) != HAL_OK)
 8000f30:	a80a      	add	r0, sp, #40	; 0x28
    PeriphClkInitStruct.PeriphClockSelection = RCC_PERIPHCLK_SPI3;
 8000f32:	e9cd 230a 	strd	r2, r3, [sp, #40]	; 0x28
    if (HAL_RCCEx_PeriphCLKConfig(&PeriphClkInitStruct) != HAL_OK)
 8000f36:	f002 fc11 	bl	800375c <HAL_RCCEx_PeriphCLKConfig>
 8000f3a:	2800      	cmp	r0, #0
 8000f3c:	d14f      	bne.n	8000fde <HAL_SPI_MspInit+0xda>
    __HAL_RCC_SPI3_CLK_ENABLE();
 8000f3e:	4b2a      	ldr	r3, [pc, #168]	; (8000fe8 <HAL_SPI_MspInit+0xe4>)
    GPIO_InitStruct.Pin = GPIO_PIN_2;
 8000f40:	2404      	movs	r4, #4
 8000f42:	2502      	movs	r5, #2
    GPIO_InitStruct.Alternate = GPIO_AF7_SPI3;
 8000f44:	2107      	movs	r1, #7
    __HAL_RCC_SPI3_CLK_ENABLE();
 8000f46:	f8d3 20e8 	ldr.w	r2, [r3, #232]	; 0xe8
    HAL_GPIO_Init(GPIOB, &GPIO_InitStruct);
 8000f4a:	4828      	ldr	r0, [pc, #160]	; (8000fec <HAL_SPI_MspInit+0xe8>)
    __HAL_RCC_SPI3_CLK_ENABLE();
 8000f4c:	f442 4200 	orr.w	r2, r2, #32768	; 0x8000
 8000f50:	f8c3 20e8 	str.w	r2, [r3, #232]	; 0xe8
 8000f54:	f8d3 20e8 	ldr.w	r2, [r3, #232]	; 0xe8
 8000f58:	f402 4200 	and.w	r2, r2, #32768	; 0x8000
 8000f5c:	9201      	str	r2, [sp, #4]
 8000f5e:	9a01      	ldr	r2, [sp, #4]
    __HAL_RCC_GPIOB_CLK_ENABLE();
 8000f60:	f8d3 20e0 	ldr.w	r2, [r3, #224]	; 0xe0
 8000f64:	f042 0202 	orr.w	r2, r2, #2
 8000f68:	f8c3 20e0 	str.w	r2, [r3, #224]	; 0xe0
 8000f6c:	f8d3 20e0 	ldr.w	r2, [r3, #224]	; 0xe0
 8000f70:	f002 0202 	and.w	r2, r2, #2
 8000f74:	9202      	str	r2, [sp, #8]
 8000f76:	9a02      	ldr	r2, [sp, #8]
    __HAL_RCC_GPIOC_CLK_ENABLE();
 8000f78:	f8d3 20e0 	ldr.w	r2, [r3, #224]	; 0xe0
 8000f7c:	f042 0204 	orr.w	r2, r2, #4
 8000f80:	f8c3 20e0 	str.w	r2, [r3, #224]	; 0xe0
 8000f84:	f8d3 30e0 	ldr.w	r3, [r3, #224]	; 0xe0
    GPIO_InitStruct.Alternate = GPIO_AF7_SPI3;
 8000f88:	9108      	str	r1, [sp, #32]
    HAL_GPIO_Init(GPIOB, &GPIO_InitStruct);
 8000f8a:	a904      	add	r1, sp, #16
    __HAL_RCC_GPIOC_CLK_ENABLE();
 8000f8c:	f003 0304 	and.w	r3, r3, #4
    GPIO_InitStruct.Pin = GPIO_PIN_2;
 8000f90:	e9cd 4504 	strd	r4, r5, [sp, #16]
 8000f94:	2400      	movs	r4, #0
 8000f96:	2500      	movs	r5, #0
    __HAL_RCC_GPIOC_CLK_ENABLE();
 8000f98:	9303      	str	r3, [sp, #12]
 8000f9a:	9b03      	ldr	r3, [sp, #12]
    GPIO_InitStruct.Pin = GPIO_PIN_2;
 8000f9c:	e9cd 4506 	strd	r4, r5, [sp, #24]
    HAL_GPIO_Init(GPIOB, &GPIO_InitStruct);
 8000fa0:	f001 f9ca 	bl	8002338 <HAL_GPIO_Init>
    GPIO_InitStruct.Pin = GPIO_PIN_10;
 8000fa4:	f44f 6280 	mov.w	r2, #1024	; 0x400
 8000fa8:	2302      	movs	r3, #2
    HAL_GPIO_Init(GPIOC, &GPIO_InitStruct);
 8000faa:	a904      	add	r1, sp, #16
 8000fac:	4810      	ldr	r0, [pc, #64]	; (8000ff0 <HAL_SPI_MspInit+0xec>)
    GPIO_InitStruct.Pin = GPIO_PIN_10;
 8000fae:	e9cd 4506 	strd	r4, r5, [sp, #24]
    GPIO_InitStruct.Alternate = GPIO_AF6_SPI3;
 8000fb2:	2406      	movs	r4, #6
    GPIO_InitStruct.Pin = GPIO_PIN_10;
 8000fb4:	e9cd 2304 	strd	r2, r3, [sp, #16]
    GPIO_InitStruct.Alternate = GPIO_AF6_SPI3;
 8000fb8:	9408      	str	r4, [sp, #32]
    HAL_GPIO_Init(GPIOC, &GPIO_InitStruct);
 8000fba:	f001 f9bd 	bl	8002338 <HAL_GPIO_Init>
    GPIO_InitStruct.Pin = GPIO_PIN_11;
 8000fbe:	f44f 6200 	mov.w	r2, #2048	; 0x800
 8000fc2:	2302      	movs	r3, #2
    HAL_GPIO_Init(GPIOC, &GPIO_InitStruct);
 8000fc4:	a904      	add	r1, sp, #16
 8000fc6:	480a      	ldr	r0, [pc, #40]	; (8000ff0 <HAL_SPI_MspInit+0xec>)
    GPIO_InitStruct.Alternate = GPIO_AF6_SPI3;
 8000fc8:	9408      	str	r4, [sp, #32]
    GPIO_InitStruct.Pin = GPIO_PIN_11;
 8000fca:	e9cd 2304 	strd	r2, r3, [sp, #16]
 8000fce:	2200      	movs	r2, #0
 8000fd0:	2303      	movs	r3, #3
 8000fd2:	e9cd 2306 	strd	r2, r3, [sp, #24]
    HAL_GPIO_Init(GPIOC, &GPIO_InitStruct);
 8000fd6:	f001 f9af 	bl	8002338 <HAL_GPIO_Init>
}
 8000fda:	b03d      	add	sp, #244	; 0xf4
 8000fdc:	bd30      	pop	{r4, r5, pc}
      Error_Handler();
 8000fde:	f7ff fe6d 	bl	8000cbc <Error_Handler>
 8000fe2:	e7ac      	b.n	8000f3e <HAL_SPI_MspInit+0x3a>
 8000fe4:	40003c00 	.word	0x40003c00
 8000fe8:	58024400 	.word	0x58024400
 8000fec:	58020400 	.word	0x58020400
 8000ff0:	58020800 	.word	0x58020800

08000ff4 <NMI_Handler>:
{
  /* USER CODE BEGIN NonMaskableInt_IRQn 0 */

  /* USER CODE END NonMaskableInt_IRQn 0 */
  /* USER CODE BEGIN NonMaskableInt_IRQn 1 */
  while (1)
 8000ff4:	e7fe      	b.n	8000ff4 <NMI_Handler>
 8000ff6:	bf00      	nop

08000ff8 <HardFault_Handler>:
void HardFault_Handler(void)
{
  /* USER CODE BEGIN HardFault_IRQn 0 */

  /* USER CODE END HardFault_IRQn 0 */
  while (1)
 8000ff8:	e7fe      	b.n	8000ff8 <HardFault_Handler>
 8000ffa:	bf00      	nop

08000ffc <MemManage_Handler>:
void MemManage_Handler(void)
{
  /* USER CODE BEGIN MemoryManagement_IRQn 0 */

  /* USER CODE END MemoryManagement_IRQn 0 */
  while (1)
 8000ffc:	e7fe      	b.n	8000ffc <MemManage_Handler>
 8000ffe:	bf00      	nop

08001000 <BusFault_Handler>:
void BusFault_Handler(void)
{
  /* USER CODE BEGIN BusFault_IRQn 0 */

  /* USER CODE END BusFault_IRQn 0 */
  while (1)
 8001000:	e7fe      	b.n	8001000 <BusFault_Handler>
 8001002:	bf00      	nop

08001004 <UsageFault_Handler>:
void UsageFault_Handler(void)
{
  /* USER CODE BEGIN UsageFault_IRQn 0 */

  /* USER CODE END UsageFault_IRQn 0 */
  while (1)
 8001004:	e7fe      	b.n	8001004 <UsageFault_Handler>
 8001006:	bf00      	nop

08001008 <SVC_Handler>:

  /* USER CODE END SVCall_IRQn 0 */
  /* USER CODE BEGIN SVCall_IRQn 1 */

  /* USER CODE END SVCall_IRQn 1 */
}
 8001008:	4770      	bx	lr
 800100a:	bf00      	nop

0800100c <DebugMon_Handler>:
 800100c:	4770      	bx	lr
 800100e:	bf00      	nop

08001010 <PendSV_Handler>:
 8001010:	4770      	bx	lr
 8001012:	bf00      	nop

08001014 <SysTick_Handler>:
void SysTick_Handler(void)
{
  /* USER CODE BEGIN SysTick_IRQn 0 */

  /* USER CODE END SysTick_IRQn 0 */
  HAL_IncTick();
 8001014:	f000 b88c 	b.w	8001130 <HAL_IncTick>

08001018 <DMA1_Stream0_IRQHandler>:
void DMA1_Stream0_IRQHandler(void)
{
  /* USER CODE BEGIN DMA1_Stream0_IRQn 0 */

  /* USER CODE END DMA1_Stream0_IRQn 0 */
  HAL_DMA_IRQHandler(&hdma_spi1_rx);
 8001018:	4801      	ldr	r0, [pc, #4]	; (8001020 <DMA1_Stream0_IRQHandler+0x8>)
 800101a:	f000 be3f 	b.w	8001c9c <HAL_DMA_IRQHandler>
 800101e:	bf00      	nop
 8001020:	240003b0 	.word	0x240003b0

08001024 <DMA2_Stream1_IRQHandler>:
void DMA2_Stream1_IRQHandler(void)
{
  /* USER CODE BEGIN DMA2_Stream1_IRQn 0 */

  /* USER CODE END DMA2_Stream1_IRQn 0 */
  HAL_DMA_IRQHandler(&hdma_spi2_tx);
 8001024:	4801      	ldr	r0, [pc, #4]	; (800102c <DMA2_Stream1_IRQHandler+0x8>)
 8001026:	f000 be39 	b.w	8001c9c <HAL_DMA_IRQHandler>
 800102a:	bf00      	nop
 800102c:	24000428 	.word	0x24000428

08001030 <Reset_Handler>:

    .section  .text.Reset_Handler
  .weak  Reset_Handler
  .type  Reset_Handler, %function
Reset_Handler:
  ldr   sp, =_estack      /* set stack pointer */
 8001030:	f8df d034 	ldr.w	sp, [pc, #52]	; 8001068 <LoopFillZerobss+0xe>

/* Call the clock system initialization function.*/
  bl  SystemInit
 8001034:	f7ff f950 	bl	80002d8 <SystemInit>

/* Copy the data segment initializers from flash to SRAM */
  ldr r0, =_sdata
 8001038:	480c      	ldr	r0, [pc, #48]	; (800106c <LoopFillZerobss+0x12>)
  ldr r1, =_edata
 800103a:	490d      	ldr	r1, [pc, #52]	; (8001070 <LoopFillZerobss+0x16>)
  ldr r2, =_sidata
 800103c:	4a0d      	ldr	r2, [pc, #52]	; (8001074 <LoopFillZerobss+0x1a>)
  movs r3, #0
 800103e:	2300      	movs	r3, #0
  b LoopCopyDataInit
 8001040:	e002      	b.n	8001048 <LoopCopyDataInit>

08001042 <CopyDataInit>:

CopyDataInit:
  ldr r4, [r2, r3]
 8001042:	58d4      	ldr	r4, [r2, r3]
  str r4, [r0, r3]
 8001044:	50c4      	str	r4, [r0, r3]
  adds r3, r3, #4
 8001046:	3304      	adds	r3, #4

08001048 <LoopCopyDataInit>:

LoopCopyDataInit:
  adds r4, r0, r3
 8001048:	18c4      	adds	r4, r0, r3
  cmp r4, r1
 800104a:	428c      	cmp	r4, r1
  bcc CopyDataInit
 800104c:	d3f9      	bcc.n	8001042 <CopyDataInit>
/* Zero fill the bss segment. */
  ldr r2, =_sbss
 800104e:	4a0a      	ldr	r2, [pc, #40]	; (8001078 <LoopFillZerobss+0x1e>)
  ldr r4, =_ebss
 8001050:	4c0a      	ldr	r4, [pc, #40]	; (800107c <LoopFillZerobss+0x22>)
  movs r3, #0
 8001052:	2300      	movs	r3, #0
  b LoopFillZerobss
 8001054:	e001      	b.n	800105a <LoopFillZerobss>

08001056 <FillZerobss>:

FillZerobss:
  str  r3, [r2]
 8001056:	6013      	str	r3, [r2, #0]
  adds r2, r2, #4
 8001058:	3204      	adds	r2, #4

0800105a <LoopFillZerobss>:

LoopFillZerobss:
  cmp r2, r4
 800105a:	42a2      	cmp	r2, r4
  bcc FillZerobss
 800105c:	d3fb      	bcc.n	8001056 <FillZerobss>

/* Call static constructors */
    bl __libc_init_array
 800105e:	f004 fb77 	bl	8005750 <__libc_init_array>
/* Call the application's entry point.*/
  bl  main
 8001062:	f7ff fc63 	bl	800092c <main>
  bx  lr
 8001066:	4770      	bx	lr
  ldr   sp, =_estack      /* set stack pointer */
 8001068:	24080000 	.word	0x24080000
  ldr r0, =_sdata
 800106c:	24000000 	.word	0x24000000
  ldr r1, =_edata
 8001070:	24000384 	.word	0x24000384
  ldr r2, =_sidata
 8001074:	080057d0 	.word	0x080057d0
  ldr r2, =_sbss
 8001078:	24000384 	.word	0x24000384
  ldr r4, =_ebss
 800107c:	24000e98 	.word	0x24000e98

08001080 <ADC3_IRQHandler>:
 * @retval None
*/
    .section  .text.Default_Handler,"ax",%progbits
Default_Handler:
Infinite_Loop:
  b  Infinite_Loop
 8001080:	e7fe      	b.n	8001080 <ADC3_IRQHandler>
	...

08001084 <HAL_InitTick>:
  * @retval HAL status
  */
__weak HAL_StatusTypeDef HAL_InitTick(uint32_t TickPriority)
{
  /* Check uwTickFreq for MisraC 2012 (even if uwTickFreq is a enum type that don't take the value zero)*/
  if((uint32_t)uwTickFreq == 0UL)
 8001084:	4b0f      	ldr	r3, [pc, #60]	; (80010c4 <HAL_InitTick+0x40>)
 8001086:	781b      	ldrb	r3, [r3, #0]
 8001088:	b90b      	cbnz	r3, 800108e <HAL_InitTick+0xa>
  {
    return HAL_ERROR;
 800108a:	2001      	movs	r0, #1
    return HAL_ERROR;
  }

  /* Return function status */
  return HAL_OK;
}
 800108c:	4770      	bx	lr
{
 800108e:	b510      	push	{r4, lr}
 8001090:	4604      	mov	r4, r0
    if (HAL_SYSTICK_Config(SystemCoreClock / (1000UL / (uint32_t)uwTickFreq)) > 0U)
 8001092:	f44f 707a 	mov.w	r0, #1000	; 0x3e8
 8001096:	4a0c      	ldr	r2, [pc, #48]	; (80010c8 <HAL_InitTick+0x44>)
 8001098:	fbb0 f3f3 	udiv	r3, r0, r3
 800109c:	6810      	ldr	r0, [r2, #0]
 800109e:	fbb0 f0f3 	udiv	r0, r0, r3
 80010a2:	f000 f8cd 	bl	8001240 <HAL_SYSTICK_Config>
  if (TickPriority < (1UL << __NVIC_PRIO_BITS))
 80010a6:	2c0f      	cmp	r4, #15
 80010a8:	d800      	bhi.n	80010ac <HAL_InitTick+0x28>
 80010aa:	b108      	cbz	r0, 80010b0 <HAL_InitTick+0x2c>
    return HAL_ERROR;
 80010ac:	2001      	movs	r0, #1
}
 80010ae:	bd10      	pop	{r4, pc}
    HAL_NVIC_SetPriority(SysTick_IRQn, TickPriority, 0U);
 80010b0:	2200      	movs	r2, #0
 80010b2:	4621      	mov	r1, r4
 80010b4:	f04f 30ff 	mov.w	r0, #4294967295
 80010b8:	f000 f876 	bl	80011a8 <HAL_NVIC_SetPriority>
    uwTickPrio = TickPriority;
 80010bc:	4b03      	ldr	r3, [pc, #12]	; (80010cc <HAL_InitTick+0x48>)
 80010be:	2000      	movs	r0, #0
 80010c0:	601c      	str	r4, [r3, #0]
}
 80010c2:	bd10      	pop	{r4, pc}
 80010c4:	2400037c 	.word	0x2400037c
 80010c8:	24000000 	.word	0x24000000
 80010cc:	24000380 	.word	0x24000380

080010d0 <HAL_Init>:
{
 80010d0:	b510      	push	{r4, lr}
  HAL_NVIC_SetPriorityGrouping(NVIC_PRIORITYGROUP_4);
 80010d2:	2003      	movs	r0, #3
  SystemD2Clock = (common_system_clock >> ((D1CorePrescTable[(RCC->D1CFGR & RCC_D1CFGR_HPRE)>> RCC_D1CFGR_HPRE_Pos]) & 0x1FU));
 80010d4:	4c12      	ldr	r4, [pc, #72]	; (8001120 <HAL_Init+0x50>)
  HAL_NVIC_SetPriorityGrouping(NVIC_PRIORITYGROUP_4);
 80010d6:	f000 f855 	bl	8001184 <HAL_NVIC_SetPriorityGrouping>
  common_system_clock = HAL_RCC_GetSysClockFreq() >> ((D1CorePrescTable[(RCC->D1CFGR & RCC_D1CFGR_D1CPRE)>> RCC_D1CFGR_D1CPRE_Pos]) & 0x1FU);
 80010da:	f001 fff9 	bl	80030d0 <HAL_RCC_GetSysClockFreq>
 80010de:	4b11      	ldr	r3, [pc, #68]	; (8001124 <HAL_Init+0x54>)
 80010e0:	4911      	ldr	r1, [pc, #68]	; (8001128 <HAL_Init+0x58>)
 80010e2:	699a      	ldr	r2, [r3, #24]
  SystemD2Clock = (common_system_clock >> ((D1CorePrescTable[(RCC->D1CFGR & RCC_D1CFGR_HPRE)>> RCC_D1CFGR_HPRE_Pos]) & 0x1FU));
 80010e4:	699b      	ldr	r3, [r3, #24]
  common_system_clock = HAL_RCC_GetSysClockFreq() >> ((D1CorePrescTable[(RCC->D1CFGR & RCC_D1CFGR_D1CPRE)>> RCC_D1CFGR_D1CPRE_Pos]) & 0x1FU);
 80010e6:	f3c2 2203 	ubfx	r2, r2, #8, #4
  SystemD2Clock = (common_system_clock >> ((D1CorePrescTable[(RCC->D1CFGR & RCC_D1CFGR_HPRE)>> RCC_D1CFGR_HPRE_Pos]) & 0x1FU));
 80010ea:	f003 030f 	and.w	r3, r3, #15
  common_system_clock = HAL_RCC_GetSysClockFreq() >> ((D1CorePrescTable[(RCC->D1CFGR & RCC_D1CFGR_D1CPRE)>> RCC_D1CFGR_D1CPRE_Pos]) & 0x1FU);
 80010ee:	5c8a      	ldrb	r2, [r1, r2]
  SystemD2Clock = (common_system_clock >> ((D1CorePrescTable[(RCC->D1CFGR & RCC_D1CFGR_HPRE)>> RCC_D1CFGR_HPRE_Pos]) & 0x1FU));
 80010f0:	5ccb      	ldrb	r3, [r1, r3]
  common_system_clock = HAL_RCC_GetSysClockFreq() >> ((D1CorePrescTable[(RCC->D1CFGR & RCC_D1CFGR_D1CPRE)>> RCC_D1CFGR_D1CPRE_Pos]) & 0x1FU);
 80010f2:	f002 021f 	and.w	r2, r2, #31
  SystemCoreClock = common_system_clock;
 80010f6:	490d      	ldr	r1, [pc, #52]	; (800112c <HAL_Init+0x5c>)
  SystemD2Clock = (common_system_clock >> ((D1CorePrescTable[(RCC->D1CFGR & RCC_D1CFGR_HPRE)>> RCC_D1CFGR_HPRE_Pos]) & 0x1FU));
 80010f8:	f003 031f 	and.w	r3, r3, #31
  common_system_clock = HAL_RCC_GetSysClockFreq() >> ((D1CorePrescTable[(RCC->D1CFGR & RCC_D1CFGR_D1CPRE)>> RCC_D1CFGR_D1CPRE_Pos]) & 0x1FU);
 80010fc:	40d0      	lsrs	r0, r2
  SystemD2Clock = (common_system_clock >> ((D1CorePrescTable[(RCC->D1CFGR & RCC_D1CFGR_HPRE)>> RCC_D1CFGR_HPRE_Pos]) & 0x1FU));
 80010fe:	fa20 f303 	lsr.w	r3, r0, r3
  SystemCoreClock = common_system_clock;
 8001102:	6008      	str	r0, [r1, #0]
  if(HAL_InitTick(TICK_INT_PRIORITY) != HAL_OK)
 8001104:	200f      	movs	r0, #15
  SystemD2Clock = (common_system_clock >> ((D1CorePrescTable[(RCC->D1CFGR & RCC_D1CFGR_HPRE)>> RCC_D1CFGR_HPRE_Pos]) & 0x1FU));
 8001106:	6023      	str	r3, [r4, #0]
  if(HAL_InitTick(TICK_INT_PRIORITY) != HAL_OK)
 8001108:	f7ff ffbc 	bl	8001084 <HAL_InitTick>
 800110c:	b110      	cbz	r0, 8001114 <HAL_Init+0x44>
    return HAL_ERROR;
 800110e:	2401      	movs	r4, #1
}
 8001110:	4620      	mov	r0, r4
 8001112:	bd10      	pop	{r4, pc}
 8001114:	4604      	mov	r4, r0
  HAL_MspInit();
 8001116:	f7ff fdd3 	bl	8000cc0 <HAL_MspInit>
}
 800111a:	4620      	mov	r0, r4
 800111c:	bd10      	pop	{r4, pc}
 800111e:	bf00      	nop
 8001120:	24000004 	.word	0x24000004
 8001124:	58024400 	.word	0x58024400
 8001128:	080057b0 	.word	0x080057b0
 800112c:	24000000 	.word	0x24000000

08001130 <HAL_IncTick>:
  *      implementations in user file.
  * @retval None
  */
__weak void HAL_IncTick(void)
{
  uwTick += (uint32_t)uwTickFreq;
 8001130:	4a03      	ldr	r2, [pc, #12]	; (8001140 <HAL_IncTick+0x10>)
 8001132:	4b04      	ldr	r3, [pc, #16]	; (8001144 <HAL_IncTick+0x14>)
 8001134:	6811      	ldr	r1, [r2, #0]
 8001136:	781b      	ldrb	r3, [r3, #0]
 8001138:	440b      	add	r3, r1
 800113a:	6013      	str	r3, [r2, #0]
}
 800113c:	4770      	bx	lr
 800113e:	bf00      	nop
 8001140:	24000e94 	.word	0x24000e94
 8001144:	2400037c 	.word	0x2400037c

08001148 <HAL_GetTick>:
  *       implementations in user file.
  * @retval tick value
  */
__weak uint32_t HAL_GetTick(void)
{
  return uwTick;
 8001148:	4b01      	ldr	r3, [pc, #4]	; (8001150 <HAL_GetTick+0x8>)
 800114a:	6818      	ldr	r0, [r3, #0]
}
 800114c:	4770      	bx	lr
 800114e:	bf00      	nop
 8001150:	24000e94 	.word	0x24000e94

08001154 <HAL_Delay>:
  *       implementations in user file.
  * @param Delay  specifies the delay time length, in milliseconds.
  * @retval None
  */
__weak void HAL_Delay(uint32_t Delay)
{
 8001154:	b538      	push	{r3, r4, r5, lr}
 8001156:	4604      	mov	r4, r0
  uint32_t tickstart = HAL_GetTick();
 8001158:	f7ff fff6 	bl	8001148 <HAL_GetTick>
 800115c:	4605      	mov	r5, r0
  uint32_t wait = Delay;

  /* Add a freq to guarantee minimum wait */
  if (wait < HAL_MAX_DELAY)
 800115e:	1c63      	adds	r3, r4, #1
 8001160:	d002      	beq.n	8001168 <HAL_Delay+0x14>
  {
    wait += (uint32_t)(uwTickFreq);
 8001162:	4b04      	ldr	r3, [pc, #16]	; (8001174 <HAL_Delay+0x20>)
 8001164:	781b      	ldrb	r3, [r3, #0]
 8001166:	441c      	add	r4, r3
  }

  while ((HAL_GetTick() - tickstart) < wait)
 8001168:	f7ff ffee 	bl	8001148 <HAL_GetTick>
 800116c:	1b43      	subs	r3, r0, r5
 800116e:	42a3      	cmp	r3, r4
 8001170:	d3fa      	bcc.n	8001168 <HAL_Delay+0x14>
  {
  }
}
 8001172:	bd38      	pop	{r3, r4, r5, pc}
 8001174:	2400037c 	.word	0x2400037c

08001178 <HAL_GetREVID>:
  * @brief  Returns the device revision identifier.
  * @retval Device revision identifier
  */
uint32_t HAL_GetREVID(void)
{
   return((DBGMCU->IDCODE) >> 16);
 8001178:	4b01      	ldr	r3, [pc, #4]	; (8001180 <HAL_GetREVID+0x8>)
 800117a:	6818      	ldr	r0, [r3, #0]
}
 800117c:	0c00      	lsrs	r0, r0, #16
 800117e:	4770      	bx	lr
 8001180:	5c001000 	.word	0x5c001000

08001184 <HAL_NVIC_SetPriorityGrouping>:
__STATIC_INLINE void __NVIC_SetPriorityGrouping(uint32_t PriorityGroup)
{
  uint32_t reg_value;
  uint32_t PriorityGroupTmp = (PriorityGroup & (uint32_t)0x07UL);             /* only values 0..7 are used          */

  reg_value  =  SCB->AIRCR;                                                   /* read old register configuration    */
 8001184:	4906      	ldr	r1, [pc, #24]	; (80011a0 <HAL_NVIC_SetPriorityGrouping+0x1c>)
  reg_value &= ~((uint32_t)(SCB_AIRCR_VECTKEY_Msk | SCB_AIRCR_PRIGROUP_Msk)); /* clear bits to change               */
 8001186:	f64f 0cff 	movw	ip, #63743	; 0xf8ff
  reg_value  =  (reg_value                                   |
                ((uint32_t)0x5FAUL << SCB_AIRCR_VECTKEY_Pos) |
                (PriorityGroupTmp << SCB_AIRCR_PRIGROUP_Pos)  );              /* Insert write key and priority group */
 800118a:	0200      	lsls	r0, r0, #8
  reg_value  =  (reg_value                                   |
 800118c:	4b05      	ldr	r3, [pc, #20]	; (80011a4 <HAL_NVIC_SetPriorityGrouping+0x20>)
  reg_value  =  SCB->AIRCR;                                                   /* read old register configuration    */
 800118e:	68ca      	ldr	r2, [r1, #12]
                (PriorityGroupTmp << SCB_AIRCR_PRIGROUP_Pos)  );              /* Insert write key and priority group */
 8001190:	f400 60e0 	and.w	r0, r0, #1792	; 0x700
  reg_value &= ~((uint32_t)(SCB_AIRCR_VECTKEY_Msk | SCB_AIRCR_PRIGROUP_Msk)); /* clear bits to change               */
 8001194:	ea02 020c 	and.w	r2, r2, ip
                ((uint32_t)0x5FAUL << SCB_AIRCR_VECTKEY_Pos) |
 8001198:	4310      	orrs	r0, r2
  reg_value  =  (reg_value                                   |
 800119a:	4303      	orrs	r3, r0
  SCB->AIRCR =  reg_value;
 800119c:	60cb      	str	r3, [r1, #12]
  /* Check the parameters */
  assert_param(IS_NVIC_PRIORITY_GROUP(PriorityGroup));

  /* Set the PRIGROUP[10:8] bits according to the PriorityGroup parameter value */
  NVIC_SetPriorityGrouping(PriorityGroup);
}
 800119e:	4770      	bx	lr
 80011a0:	e000ed00 	.word	0xe000ed00
 80011a4:	05fa0000 	.word	0x05fa0000

080011a8 <HAL_NVIC_SetPriority>:
  \details Reads the priority grouping field from the NVIC Interrupt Controller.
  \return                Priority grouping field (SCB->AIRCR [10:8] PRIGROUP field).
 */
__STATIC_INLINE uint32_t __NVIC_GetPriorityGrouping(void)
{
  return ((uint32_t)((SCB->AIRCR & SCB_AIRCR_PRIGROUP_Msk) >> SCB_AIRCR_PRIGROUP_Pos));
 80011a8:	4b1b      	ldr	r3, [pc, #108]	; (8001218 <HAL_NVIC_SetPriority+0x70>)
 80011aa:	68db      	ldr	r3, [r3, #12]
 80011ac:	f3c3 2302 	ubfx	r3, r3, #8, #3
  *         This parameter can be a value between 0 and 15
  *         A lower priority value indicates a higher priority.
  * @retval None
  */
void HAL_NVIC_SetPriority(IRQn_Type IRQn, uint32_t PreemptPriority, uint32_t SubPriority)
{
 80011b0:	b500      	push	{lr}
{
  uint32_t PriorityGroupTmp = (PriorityGroup & (uint32_t)0x07UL);   /* only values 0..7 are used          */
  uint32_t PreemptPriorityBits;
  uint32_t SubPriorityBits;

  PreemptPriorityBits = ((7UL - PriorityGroupTmp) > (uint32_t)(__NVIC_PRIO_BITS)) ? (uint32_t)(__NVIC_PRIO_BITS) : (uint32_t)(7UL - PriorityGroupTmp);
 80011b2:	f1c3 0e07 	rsb	lr, r3, #7
  SubPriorityBits     = ((PriorityGroupTmp + (uint32_t)(__NVIC_PRIO_BITS)) < (uint32_t)7UL) ? (uint32_t)0UL : (uint32_t)((PriorityGroupTmp - 7UL) + (uint32_t)(__NVIC_PRIO_BITS));
 80011b6:	f103 0c04 	add.w	ip, r3, #4
  PreemptPriorityBits = ((7UL - PriorityGroupTmp) > (uint32_t)(__NVIC_PRIO_BITS)) ? (uint32_t)(__NVIC_PRIO_BITS) : (uint32_t)(7UL - PriorityGroupTmp);
 80011ba:	f1be 0f04 	cmp.w	lr, #4
 80011be:	bf28      	it	cs
 80011c0:	f04f 0e04 	movcs.w	lr, #4
  SubPriorityBits     = ((PriorityGroupTmp + (uint32_t)(__NVIC_PRIO_BITS)) < (uint32_t)7UL) ? (uint32_t)0UL : (uint32_t)((PriorityGroupTmp - 7UL) + (uint32_t)(__NVIC_PRIO_BITS));
 80011c4:	f1bc 0f06 	cmp.w	ip, #6
 80011c8:	d91a      	bls.n	8001200 <HAL_NVIC_SetPriority+0x58>
 80011ca:	3b03      	subs	r3, #3

  return (
           ((PreemptPriority & (uint32_t)((1UL << (PreemptPriorityBits)) - 1UL)) << SubPriorityBits) |
           ((SubPriority     & (uint32_t)((1UL << (SubPriorityBits    )) - 1UL)))
 80011cc:	f04f 3cff 	mov.w	ip, #4294967295
 80011d0:	fa0c fc03 	lsl.w	ip, ip, r3
 80011d4:	ea22 020c 	bic.w	r2, r2, ip
           ((PreemptPriority & (uint32_t)((1UL << (PreemptPriorityBits)) - 1UL)) << SubPriorityBits) |
 80011d8:	f04f 3cff 	mov.w	ip, #4294967295
  if ((int32_t)(IRQn) >= 0)
 80011dc:	2800      	cmp	r0, #0
           ((PreemptPriority & (uint32_t)((1UL << (PreemptPriorityBits)) - 1UL)) << SubPriorityBits) |
 80011de:	fa0c fc0e 	lsl.w	ip, ip, lr
 80011e2:	ea21 010c 	bic.w	r1, r1, ip
 80011e6:	fa01 f103 	lsl.w	r1, r1, r3
 80011ea:	ea41 0102 	orr.w	r1, r1, r2
  if ((int32_t)(IRQn) >= 0)
 80011ee:	db0a      	blt.n	8001206 <HAL_NVIC_SetPriority+0x5e>
    NVIC->IP[((uint32_t)IRQn)]                = (uint8_t)((priority << (8U - __NVIC_PRIO_BITS)) & (uint32_t)0xFFUL);
 80011f0:	0109      	lsls	r1, r1, #4
 80011f2:	4b0a      	ldr	r3, [pc, #40]	; (800121c <HAL_NVIC_SetPriority+0x74>)
 80011f4:	b2c9      	uxtb	r1, r1
 80011f6:	4403      	add	r3, r0
 80011f8:	f883 1300 	strb.w	r1, [r3, #768]	; 0x300
  assert_param(IS_NVIC_PREEMPTION_PRIORITY(PreemptPriority));

  prioritygroup = NVIC_GetPriorityGrouping();

  NVIC_SetPriority(IRQn, NVIC_EncodePriority(prioritygroup, PreemptPriority, SubPriority));
}
 80011fc:	f85d fb04 	ldr.w	pc, [sp], #4
 8001200:	2200      	movs	r2, #0
  SubPriorityBits     = ((PriorityGroupTmp + (uint32_t)(__NVIC_PRIO_BITS)) < (uint32_t)7UL) ? (uint32_t)0UL : (uint32_t)((PriorityGroupTmp - 7UL) + (uint32_t)(__NVIC_PRIO_BITS));
 8001202:	4613      	mov	r3, r2
 8001204:	e7e8      	b.n	80011d8 <HAL_NVIC_SetPriority+0x30>
    SCB->SHPR[(((uint32_t)IRQn) & 0xFUL)-4UL] = (uint8_t)((priority << (8U - __NVIC_PRIO_BITS)) & (uint32_t)0xFFUL);
 8001206:	f000 000f 	and.w	r0, r0, #15
 800120a:	0109      	lsls	r1, r1, #4
 800120c:	4b04      	ldr	r3, [pc, #16]	; (8001220 <HAL_NVIC_SetPriority+0x78>)
 800120e:	b2c9      	uxtb	r1, r1
 8001210:	4403      	add	r3, r0
 8001212:	7619      	strb	r1, [r3, #24]
 8001214:	f85d fb04 	ldr.w	pc, [sp], #4
 8001218:	e000ed00 	.word	0xe000ed00
 800121c:	e000e100 	.word	0xe000e100
 8001220:	e000ecfc 	.word	0xe000ecfc

08001224 <HAL_NVIC_EnableIRQ>:
  if ((int32_t)(IRQn) >= 0)
 8001224:	2800      	cmp	r0, #0
 8001226:	db07      	blt.n	8001238 <HAL_NVIC_EnableIRQ+0x14>
    NVIC->ISER[(((uint32_t)IRQn) >> 5UL)] = (uint32_t)(1UL << (((uint32_t)IRQn) & 0x1FUL));
 8001228:	2301      	movs	r3, #1
 800122a:	f000 011f 	and.w	r1, r0, #31
 800122e:	4a03      	ldr	r2, [pc, #12]	; (800123c <HAL_NVIC_EnableIRQ+0x18>)
 8001230:	0940      	lsrs	r0, r0, #5
 8001232:	408b      	lsls	r3, r1
 8001234:	f842 3020 	str.w	r3, [r2, r0, lsl #2]
  /* Check the parameters */
  assert_param(IS_NVIC_DEVICE_IRQ(IRQn));

  /* Enable interrupt */
  NVIC_EnableIRQ(IRQn);
}
 8001238:	4770      	bx	lr
 800123a:	bf00      	nop
 800123c:	e000e100 	.word	0xe000e100

08001240 <HAL_SYSTICK_Config>:
           function <b>SysTick_Config</b> is not included. In this case, the file <b><i>device</i>.h</b>
           must contain a vendor-specific implementation of this function.
 */
__STATIC_INLINE uint32_t SysTick_Config(uint32_t ticks)
{
  if ((ticks - 1UL) > SysTick_LOAD_RELOAD_Msk)
 8001240:	1e43      	subs	r3, r0, #1
 8001242:	f1b3 7f80 	cmp.w	r3, #16777216	; 0x1000000
 8001246:	d20c      	bcs.n	8001262 <HAL_SYSTICK_Config+0x22>
  {
    return (1UL);                                                   /* Reload value impossible */
  }

  SysTick->LOAD  = (uint32_t)(ticks - 1UL);                         /* set reload register */
 8001248:	f04f 22e0 	mov.w	r2, #3758153728	; 0xe000e000
  NVIC_SetPriority (SysTick_IRQn, (1UL << __NVIC_PRIO_BITS) - 1UL); /* set Priority for Systick Interrupt */
  SysTick->VAL   = 0UL;                                             /* Load the SysTick Counter Value */
 800124c:	2000      	movs	r0, #0
    SCB->SHPR[(((uint32_t)IRQn) & 0xFUL)-4UL] = (uint8_t)((priority << (8U - __NVIC_PRIO_BITS)) & (uint32_t)0xFFUL);
 800124e:	4906      	ldr	r1, [pc, #24]	; (8001268 <HAL_SYSTICK_Config+0x28>)
 8001250:	f04f 0cf0 	mov.w	ip, #240	; 0xf0
  SysTick->LOAD  = (uint32_t)(ticks - 1UL);                         /* set reload register */
 8001254:	6153      	str	r3, [r2, #20]
  SysTick->CTRL  = SysTick_CTRL_CLKSOURCE_Msk |
 8001256:	2307      	movs	r3, #7
    SCB->SHPR[(((uint32_t)IRQn) & 0xFUL)-4UL] = (uint8_t)((priority << (8U - __NVIC_PRIO_BITS)) & (uint32_t)0xFFUL);
 8001258:	f881 c023 	strb.w	ip, [r1, #35]	; 0x23
  SysTick->VAL   = 0UL;                                             /* Load the SysTick Counter Value */
 800125c:	6190      	str	r0, [r2, #24]
  SysTick->CTRL  = SysTick_CTRL_CLKSOURCE_Msk |
 800125e:	6113      	str	r3, [r2, #16]
                   SysTick_CTRL_TICKINT_Msk   |
                   SysTick_CTRL_ENABLE_Msk;                         /* Enable SysTick IRQ and SysTick Timer */
  return (0UL);                                                     /* Function successful */
 8001260:	4770      	bx	lr
    return (1UL);                                                   /* Reload value impossible */
 8001262:	2001      	movs	r0, #1
  *                  - 1  Function failed.
  */
uint32_t HAL_SYSTICK_Config(uint32_t TicksNumb)
{
   return SysTick_Config(TicksNumb);
}
 8001264:	4770      	bx	lr
 8001266:	bf00      	nop
 8001268:	e000ed00 	.word	0xe000ed00

0800126c <DMA_CalcBaseAndBitshift>:
  *                     the configuration information for the specified DMA Stream.
  * @retval Stream base address
  */
static uint32_t DMA_CalcBaseAndBitshift(DMA_HandleTypeDef *hdma)
{
  if(IS_DMA_STREAM_INSTANCE(hdma->Instance) != 0U) /* DMA1 or DMA2 instance */
 800126c:	6802      	ldr	r2, [r0, #0]
{
 800126e:	4601      	mov	r1, r0
  if(IS_DMA_STREAM_INSTANCE(hdma->Instance) != 0U) /* DMA1 or DMA2 instance */
 8001270:	4b32      	ldr	r3, [pc, #200]	; (800133c <DMA_CalcBaseAndBitshift+0xd0>)
 8001272:	4833      	ldr	r0, [pc, #204]	; (8001340 <DMA_CalcBaseAndBitshift+0xd4>)
{
 8001274:	b470      	push	{r4, r5, r6}
  if(IS_DMA_STREAM_INSTANCE(hdma->Instance) != 0U) /* DMA1 or DMA2 instance */
 8001276:	4e33      	ldr	r6, [pc, #204]	; (8001344 <DMA_CalcBaseAndBitshift+0xd8>)
 8001278:	4d33      	ldr	r5, [pc, #204]	; (8001348 <DMA_CalcBaseAndBitshift+0xdc>)
 800127a:	42b2      	cmp	r2, r6
 800127c:	bf18      	it	ne
 800127e:	429a      	cmpne	r2, r3
 8001280:	4c32      	ldr	r4, [pc, #200]	; (800134c <DMA_CalcBaseAndBitshift+0xe0>)
 8001282:	bf0c      	ite	eq
 8001284:	2301      	moveq	r3, #1
 8001286:	2300      	movne	r3, #0
 8001288:	42aa      	cmp	r2, r5
 800128a:	bf08      	it	eq
 800128c:	f043 0301 	orreq.w	r3, r3, #1
 8001290:	42a2      	cmp	r2, r4
 8001292:	bf08      	it	eq
 8001294:	f043 0301 	orreq.w	r3, r3, #1
 8001298:	3430      	adds	r4, #48	; 0x30
 800129a:	4282      	cmp	r2, r0
 800129c:	bf08      	it	eq
 800129e:	f043 0301 	orreq.w	r3, r3, #1
 80012a2:	3030      	adds	r0, #48	; 0x30
 80012a4:	42a2      	cmp	r2, r4
 80012a6:	bf08      	it	eq
 80012a8:	f043 0301 	orreq.w	r3, r3, #1
 80012ac:	3430      	adds	r4, #48	; 0x30
 80012ae:	4282      	cmp	r2, r0
 80012b0:	bf08      	it	eq
 80012b2:	f043 0301 	orreq.w	r3, r3, #1
 80012b6:	f500 705c 	add.w	r0, r0, #880	; 0x370
 80012ba:	42a2      	cmp	r2, r4
 80012bc:	bf08      	it	eq
 80012be:	f043 0301 	orreq.w	r3, r3, #1
 80012c2:	f504 745c 	add.w	r4, r4, #880	; 0x370
 80012c6:	4282      	cmp	r2, r0
 80012c8:	bf08      	it	eq
 80012ca:	f043 0301 	orreq.w	r3, r3, #1
 80012ce:	3030      	adds	r0, #48	; 0x30
 80012d0:	42a2      	cmp	r2, r4
 80012d2:	bf08      	it	eq
 80012d4:	f043 0301 	orreq.w	r3, r3, #1
 80012d8:	3430      	adds	r4, #48	; 0x30
 80012da:	4282      	cmp	r2, r0
 80012dc:	bf08      	it	eq
 80012de:	f043 0301 	orreq.w	r3, r3, #1
 80012e2:	3030      	adds	r0, #48	; 0x30
 80012e4:	42a2      	cmp	r2, r4
 80012e6:	bf08      	it	eq
 80012e8:	f043 0301 	orreq.w	r3, r3, #1
 80012ec:	3430      	adds	r4, #48	; 0x30
 80012ee:	4282      	cmp	r2, r0
 80012f0:	bf08      	it	eq
 80012f2:	f043 0301 	orreq.w	r3, r3, #1
 80012f6:	3030      	adds	r0, #48	; 0x30
 80012f8:	42a2      	cmp	r2, r4
 80012fa:	bf08      	it	eq
 80012fc:	f043 0301 	orreq.w	r3, r3, #1
 8001300:	4282      	cmp	r2, r0
 8001302:	bf08      	it	eq
 8001304:	f043 0301 	orreq.w	r3, r3, #1
 8001308:	b913      	cbnz	r3, 8001310 <DMA_CalcBaseAndBitshift+0xa4>
 800130a:	4b11      	ldr	r3, [pc, #68]	; (8001350 <DMA_CalcBaseAndBitshift+0xe4>)
 800130c:	429a      	cmp	r2, r3
 800130e:	d112      	bne.n	8001336 <DMA_CalcBaseAndBitshift+0xca>
  {
    uint32_t stream_number = (((uint32_t)((uint32_t*)hdma->Instance) & 0xFFU) - 16U) / 24U;
 8001310:	b2d3      	uxtb	r3, r2
 8001312:	4810      	ldr	r0, [pc, #64]	; (8001354 <DMA_CalcBaseAndBitshift+0xe8>)

    /* lookup table for necessary bitshift of flags within status registers */
    static const uint8_t flagBitshiftOffset[8U] = {0U, 6U, 16U, 22U, 0U, 6U, 16U, 22U};
    hdma->StreamIndex = flagBitshiftOffset[stream_number & 0x7U];
 8001314:	4c10      	ldr	r4, [pc, #64]	; (8001358 <DMA_CalcBaseAndBitshift+0xec>)
    uint32_t stream_number = (((uint32_t)((uint32_t*)hdma->Instance) & 0xFFU) - 16U) / 24U;
 8001316:	3b10      	subs	r3, #16
 8001318:	fba0 5003 	umull	r5, r0, r0, r3

    if (stream_number > 3U)
 800131c:	2b5f      	cmp	r3, #95	; 0x5f
    uint32_t stream_number = (((uint32_t)((uint32_t*)hdma->Instance) & 0xFFU) - 16U) / 24U;
 800131e:	ea4f 1010 	mov.w	r0, r0, lsr #4
    hdma->StreamIndex = flagBitshiftOffset[stream_number & 0x7U];
 8001322:	5c20      	ldrb	r0, [r4, r0]
 8001324:	65c8      	str	r0, [r1, #92]	; 0x5c
    {
      /* return pointer to HISR and HIFCR */
      hdma->StreamBaseAddress = (((uint32_t)((uint32_t*)hdma->Instance) & (uint32_t)(~0x3FFU)) + 4U);
 8001326:	480d      	ldr	r0, [pc, #52]	; (800135c <DMA_CalcBaseAndBitshift+0xf0>)
 8001328:	ea00 0002 	and.w	r0, r0, r2
 800132c:	bf88      	it	hi
 800132e:	3004      	addhi	r0, #4
    }
    else
    {
      /* return pointer to LISR and LIFCR */
      hdma->StreamBaseAddress = ((uint32_t)((uint32_t*)hdma->Instance) & (uint32_t)(~0x3FFU));
 8001330:	6588      	str	r0, [r1, #88]	; 0x58
    /* return pointer to ISR and IFCR */
    hdma->StreamBaseAddress = ((uint32_t)((uint32_t*)hdma->Instance) & (uint32_t)(~0xFFU));
  }

  return hdma->StreamBaseAddress;
}
 8001332:	bc70      	pop	{r4, r5, r6}
 8001334:	4770      	bx	lr
    hdma->StreamBaseAddress = ((uint32_t)((uint32_t*)hdma->Instance) & (uint32_t)(~0xFFU));
 8001336:	f022 00ff 	bic.w	r0, r2, #255	; 0xff
 800133a:	e7f9      	b.n	8001330 <DMA_CalcBaseAndBitshift+0xc4>
 800133c:	40020010 	.word	0x40020010
 8001340:	40020070 	.word	0x40020070
 8001344:	40020028 	.word	0x40020028
 8001348:	40020040 	.word	0x40020040
 800134c:	40020058 	.word	0x40020058
 8001350:	400204b8 	.word	0x400204b8
 8001354:	aaaaaaab 	.word	0xaaaaaaab
 8001358:	080057c0 	.word	0x080057c0
 800135c:	fffffc00 	.word	0xfffffc00

08001360 <DMA_CalcDMAMUXChannelBaseAndMask>:
  * @retval HAL status
  */
static void DMA_CalcDMAMUXChannelBaseAndMask(DMA_HandleTypeDef *hdma)
{
  uint32_t stream_number;
  uint32_t stream_baseaddress = (uint32_t)((uint32_t*)hdma->Instance);
 8001360:	6803      	ldr	r3, [r0, #0]

  if(IS_BDMA_CHANNEL_DMAMUX_INSTANCE(hdma->Instance) != 0U)
 8001362:	4a27      	ldr	r2, [pc, #156]	; (8001400 <DMA_CalcDMAMUXChannelBaseAndMask+0xa0>)
 8001364:	4927      	ldr	r1, [pc, #156]	; (8001404 <DMA_CalcDMAMUXChannelBaseAndMask+0xa4>)
{
 8001366:	b430      	push	{r4, r5}
  if(IS_BDMA_CHANNEL_DMAMUX_INSTANCE(hdma->Instance) != 0U)
 8001368:	4d27      	ldr	r5, [pc, #156]	; (8001408 <DMA_CalcDMAMUXChannelBaseAndMask+0xa8>)
 800136a:	4c28      	ldr	r4, [pc, #160]	; (800140c <DMA_CalcDMAMUXChannelBaseAndMask+0xac>)
 800136c:	42ab      	cmp	r3, r5
 800136e:	bf18      	it	ne
 8001370:	4293      	cmpne	r3, r2
 8001372:	bf0c      	ite	eq
 8001374:	2201      	moveq	r2, #1
 8001376:	2200      	movne	r2, #0
 8001378:	428b      	cmp	r3, r1
 800137a:	bf08      	it	eq
 800137c:	f042 0201 	orreq.w	r2, r2, #1
 8001380:	3128      	adds	r1, #40	; 0x28
 8001382:	42a3      	cmp	r3, r4
 8001384:	bf08      	it	eq
 8001386:	f042 0201 	orreq.w	r2, r2, #1
 800138a:	3428      	adds	r4, #40	; 0x28
 800138c:	428b      	cmp	r3, r1
 800138e:	bf08      	it	eq
 8001390:	f042 0201 	orreq.w	r2, r2, #1
 8001394:	3128      	adds	r1, #40	; 0x28
 8001396:	42a3      	cmp	r3, r4
 8001398:	bf08      	it	eq
 800139a:	f042 0201 	orreq.w	r2, r2, #1
 800139e:	428b      	cmp	r3, r1
 80013a0:	bf08      	it	eq
 80013a2:	f042 0201 	orreq.w	r2, r2, #1
 80013a6:	b912      	cbnz	r2, 80013ae <DMA_CalcDMAMUXChannelBaseAndMask+0x4e>
 80013a8:	4a19      	ldr	r2, [pc, #100]	; (8001410 <DMA_CalcDMAMUXChannelBaseAndMask+0xb0>)
 80013aa:	4293      	cmp	r3, r2
 80013ac:	d113      	bne.n	80013d6 <DMA_CalcDMAMUXChannelBaseAndMask+0x76>
  {
    /* BDMA Channels are connected to DMAMUX2 channels */
    stream_number = (((uint32_t)((uint32_t*)hdma->Instance) & 0xFFU) - 8U) / 20U;
 80013ae:	b2db      	uxtb	r3, r3
 80013b0:	4918      	ldr	r1, [pc, #96]	; (8001414 <DMA_CalcDMAMUXChannelBaseAndMask+0xb4>)
    hdma->DMAmuxChannel = (DMAMUX_Channel_TypeDef *)((uint32_t)(((uint32_t)DMAMUX2_Channel0) + (stream_number * 4U)));
 80013b2:	4a19      	ldr	r2, [pc, #100]	; (8001418 <DMA_CalcDMAMUXChannelBaseAndMask+0xb8>)
    stream_number = (((uint32_t)((uint32_t*)hdma->Instance) & 0xFFU) - 8U) / 20U;
 80013b4:	3b08      	subs	r3, #8
 80013b6:	4c19      	ldr	r4, [pc, #100]	; (800141c <DMA_CalcDMAMUXChannelBaseAndMask+0xbc>)
 80013b8:	fba1 1303 	umull	r1, r3, r1, r3
    hdma->DMAmuxChannelStatus = DMAMUX2_ChannelStatus;
    hdma->DMAmuxChannelStatusMask = 1UL << (stream_number & 0x1FU);
 80013bc:	2101      	movs	r1, #1
    hdma->DMAmuxChannel = (DMAMUX_Channel_TypeDef *)((uint32_t)(((uint32_t)DMAMUX2_Channel0) + (stream_number * 4U)));
 80013be:	eb02 1213 	add.w	r2, r2, r3, lsr #4
    hdma->DMAmuxChannelStatusMask = 1UL << (stream_number & 0x1FU);
 80013c2:	f3c3 1304 	ubfx	r3, r3, #4, #5
    hdma->DMAmuxChannel = (DMAMUX_Channel_TypeDef *)((uint32_t)(((uint32_t)DMAMUX2_Channel0) + (stream_number * 4U)));
 80013c6:	0092      	lsls	r2, r2, #2
    hdma->DMAmuxChannelStatusMask = 1UL << (stream_number & 0x1FU);
 80013c8:	fa01 f303 	lsl.w	r3, r1, r3
 80013cc:	6683      	str	r3, [r0, #104]	; 0x68
    hdma->DMAmuxChannelStatus = DMAMUX2_ChannelStatus;
 80013ce:	e9c0 2418 	strd	r2, r4, [r0, #96]	; 0x60
    }
    hdma->DMAmuxChannel = (DMAMUX_Channel_TypeDef *)((uint32_t)(((uint32_t)DMAMUX1_Channel0) + (stream_number * 4U)));
    hdma->DMAmuxChannelStatus = DMAMUX1_ChannelStatus;
    hdma->DMAmuxChannelStatusMask = 1UL << (stream_number & 0x1FU);
  }
}
 80013d2:	bc30      	pop	{r4, r5}
 80013d4:	4770      	bx	lr
    stream_number = (((uint32_t)((uint32_t*)hdma->Instance) & 0xFFU) - 16U) / 24U;
 80013d6:	b2d9      	uxtb	r1, r3
    if((stream_baseaddress <= ((uint32_t)DMA2_Stream7) ) && \
 80013d8:	4a11      	ldr	r2, [pc, #68]	; (8001420 <DMA_CalcDMAMUXChannelBaseAndMask+0xc0>)
    stream_number = (((uint32_t)((uint32_t*)hdma->Instance) & 0xFFU) - 16U) / 24U;
 80013da:	4c12      	ldr	r4, [pc, #72]	; (8001424 <DMA_CalcDMAMUXChannelBaseAndMask+0xc4>)
 80013dc:	3910      	subs	r1, #16
    if((stream_baseaddress <= ((uint32_t)DMA2_Stream7) ) && \
 80013de:	441a      	add	r2, r3
    stream_number = (((uint32_t)((uint32_t*)hdma->Instance) & 0xFFU) - 16U) / 24U;
 80013e0:	fba4 4101 	umull	r4, r1, r4, r1
    if((stream_baseaddress <= ((uint32_t)DMA2_Stream7) ) && \
 80013e4:	2aa8      	cmp	r2, #168	; 0xa8
    stream_number = (((uint32_t)((uint32_t*)hdma->Instance) & 0xFFU) - 16U) / 24U;
 80013e6:	ea4f 1111 	mov.w	r1, r1, lsr #4
    if((stream_baseaddress <= ((uint32_t)DMA2_Stream7) ) && \
 80013ea:	d800      	bhi.n	80013ee <DMA_CalcDMAMUXChannelBaseAndMask+0x8e>
      stream_number += 8U;
 80013ec:	3108      	adds	r1, #8
    hdma->DMAmuxChannel = (DMAMUX_Channel_TypeDef *)((uint32_t)(((uint32_t)DMAMUX1_Channel0) + (stream_number * 4U)));
 80013ee:	4a0e      	ldr	r2, [pc, #56]	; (8001428 <DMA_CalcDMAMUXChannelBaseAndMask+0xc8>)
    hdma->DMAmuxChannelStatusMask = 1UL << (stream_number & 0x1FU);
 80013f0:	f001 041f 	and.w	r4, r1, #31
 80013f4:	2301      	movs	r3, #1
    hdma->DMAmuxChannel = (DMAMUX_Channel_TypeDef *)((uint32_t)(((uint32_t)DMAMUX1_Channel0) + (stream_number * 4U)));
 80013f6:	440a      	add	r2, r1
    hdma->DMAmuxChannelStatusMask = 1UL << (stream_number & 0x1FU);
 80013f8:	40a3      	lsls	r3, r4
 80013fa:	4c0c      	ldr	r4, [pc, #48]	; (800142c <DMA_CalcDMAMUXChannelBaseAndMask+0xcc>)
    hdma->DMAmuxChannel = (DMAMUX_Channel_TypeDef *)((uint32_t)(((uint32_t)DMAMUX1_Channel0) + (stream_number * 4U)));
 80013fc:	0092      	lsls	r2, r2, #2
    hdma->DMAmuxChannelStatusMask = 1UL << (stream_number & 0x1FU);
 80013fe:	e7e5      	b.n	80013cc <DMA_CalcDMAMUXChannelBaseAndMask+0x6c>
 8001400:	58025408 	.word	0x58025408
 8001404:	58025430 	.word	0x58025430
 8001408:	5802541c 	.word	0x5802541c
 800140c:	58025444 	.word	0x58025444
 8001410:	58025494 	.word	0x58025494
 8001414:	cccccccd 	.word	0xcccccccd
 8001418:	16009600 	.word	0x16009600
 800141c:	58025880 	.word	0x58025880
 8001420:	bffdfbf0 	.word	0xbffdfbf0
 8001424:	aaaaaaab 	.word	0xaaaaaaab
 8001428:	10008200 	.word	0x10008200
 800142c:	40020880 	.word	0x40020880

08001430 <HAL_DMA_Init>:
{
 8001430:	e92d 4ff0 	stmdb	sp!, {r4, r5, r6, r7, r8, r9, sl, fp, lr}
 8001434:	4605      	mov	r5, r0
 8001436:	b083      	sub	sp, #12
  uint32_t tickstart = HAL_GetTick();
 8001438:	f7ff fe86 	bl	8001148 <HAL_GetTick>
  if(hdma == NULL)
 800143c:	2d00      	cmp	r5, #0
 800143e:	f000 8199 	beq.w	8001774 <HAL_DMA_Init+0x344>
  if(IS_DMA_STREAM_INSTANCE(hdma->Instance) != 0U) /* DMA1 or DMA2 instance */
 8001442:	682c      	ldr	r4, [r5, #0]
 8001444:	4606      	mov	r6, r0
 8001446:	4ba0      	ldr	r3, [pc, #640]	; (80016c8 <HAL_DMA_Init+0x298>)
 8001448:	429c      	cmp	r4, r3
 800144a:	d048      	beq.n	80014de <HAL_DMA_Init+0xae>
 800144c:	3318      	adds	r3, #24
 800144e:	429c      	cmp	r4, r3
 8001450:	d045      	beq.n	80014de <HAL_DMA_Init+0xae>
 8001452:	3330      	adds	r3, #48	; 0x30
 8001454:	4a9d      	ldr	r2, [pc, #628]	; (80016cc <HAL_DMA_Init+0x29c>)
 8001456:	4294      	cmp	r4, r2
 8001458:	bf18      	it	ne
 800145a:	429c      	cmpne	r4, r3
 800145c:	f102 0230 	add.w	r2, r2, #48	; 0x30
 8001460:	bf0c      	ite	eq
 8001462:	2301      	moveq	r3, #1
 8001464:	2300      	movne	r3, #0
 8001466:	4294      	cmp	r4, r2
 8001468:	bf08      	it	eq
 800146a:	f043 0301 	orreq.w	r3, r3, #1
 800146e:	3218      	adds	r2, #24
 8001470:	4294      	cmp	r4, r2
 8001472:	bf08      	it	eq
 8001474:	f043 0301 	orreq.w	r3, r3, #1
 8001478:	3218      	adds	r2, #24
 800147a:	4294      	cmp	r4, r2
 800147c:	bf08      	it	eq
 800147e:	f043 0301 	orreq.w	r3, r3, #1
 8001482:	3218      	adds	r2, #24
 8001484:	4294      	cmp	r4, r2
 8001486:	bf08      	it	eq
 8001488:	f043 0301 	orreq.w	r3, r3, #1
 800148c:	f502 7256 	add.w	r2, r2, #856	; 0x358
 8001490:	4294      	cmp	r4, r2
 8001492:	bf08      	it	eq
 8001494:	f043 0301 	orreq.w	r3, r3, #1
 8001498:	3218      	adds	r2, #24
 800149a:	4294      	cmp	r4, r2
 800149c:	bf08      	it	eq
 800149e:	f043 0301 	orreq.w	r3, r3, #1
 80014a2:	3218      	adds	r2, #24
 80014a4:	4294      	cmp	r4, r2
 80014a6:	bf08      	it	eq
 80014a8:	f043 0301 	orreq.w	r3, r3, #1
 80014ac:	3218      	adds	r2, #24
 80014ae:	4294      	cmp	r4, r2
 80014b0:	bf08      	it	eq
 80014b2:	f043 0301 	orreq.w	r3, r3, #1
 80014b6:	3218      	adds	r2, #24
 80014b8:	4294      	cmp	r4, r2
 80014ba:	bf08      	it	eq
 80014bc:	f043 0301 	orreq.w	r3, r3, #1
 80014c0:	3218      	adds	r2, #24
 80014c2:	4294      	cmp	r4, r2
 80014c4:	bf08      	it	eq
 80014c6:	f043 0301 	orreq.w	r3, r3, #1
 80014ca:	3218      	adds	r2, #24
 80014cc:	4294      	cmp	r4, r2
 80014ce:	bf08      	it	eq
 80014d0:	f043 0301 	orreq.w	r3, r3, #1
 80014d4:	b91b      	cbnz	r3, 80014de <HAL_DMA_Init+0xae>
 80014d6:	4b7e      	ldr	r3, [pc, #504]	; (80016d0 <HAL_DMA_Init+0x2a0>)
 80014d8:	429c      	cmp	r4, r3
 80014da:	f040 81a4 	bne.w	8001826 <HAL_DMA_Init+0x3f6>
    hdma->State = HAL_DMA_STATE_BUSY;
 80014de:	2302      	movs	r3, #2
 80014e0:	f885 3035 	strb.w	r3, [r5, #53]	; 0x35
    __HAL_UNLOCK(hdma);
 80014e4:	2300      	movs	r3, #0
 80014e6:	f885 3034 	strb.w	r3, [r5, #52]	; 0x34
    __HAL_DMA_DISABLE(hdma);
 80014ea:	6823      	ldr	r3, [r4, #0]
 80014ec:	f023 0301 	bic.w	r3, r3, #1
 80014f0:	6023      	str	r3, [r4, #0]
 80014f2:	e006      	b.n	8001502 <HAL_DMA_Init+0xd2>
      if((HAL_GetTick() - tickstart ) > HAL_TIMEOUT_DMA_ABORT)
 80014f4:	f7ff fe28 	bl	8001148 <HAL_GetTick>
 80014f8:	1b80      	subs	r0, r0, r6
 80014fa:	2805      	cmp	r0, #5
 80014fc:	f200 8120 	bhi.w	8001740 <HAL_DMA_Init+0x310>
    while((((DMA_Stream_TypeDef   *)hdma->Instance)->CR & DMA_SxCR_EN) != 0U)
 8001500:	682c      	ldr	r4, [r5, #0]
 8001502:	6823      	ldr	r3, [r4, #0]
 8001504:	07df      	lsls	r7, r3, #31
 8001506:	d4f5      	bmi.n	80014f4 <HAL_DMA_Init+0xc4>
    registerValue |=  hdma->Init.Direction           |
 8001508:	e9d5 3002 	ldrd	r3, r0, [r5, #8]
            hdma->Init.PeriphInc           | hdma->Init.MemInc           |
 800150c:	6929      	ldr	r1, [r5, #16]
    registerValue |=  hdma->Init.Direction           |
 800150e:	4303      	orrs	r3, r0
            hdma->Init.PeriphDataAlignment | hdma->Init.MemDataAlignment |
 8001510:	69aa      	ldr	r2, [r5, #24]
    registerValue = ((DMA_Stream_TypeDef   *)hdma->Instance)->CR;
 8001512:	6820      	ldr	r0, [r4, #0]
            hdma->Init.PeriphInc           | hdma->Init.MemInc           |
 8001514:	430b      	orrs	r3, r1
 8001516:	6969      	ldr	r1, [r5, #20]
 8001518:	430b      	orrs	r3, r1
            hdma->Init.PeriphDataAlignment | hdma->Init.MemDataAlignment |
 800151a:	69e9      	ldr	r1, [r5, #28]
 800151c:	4313      	orrs	r3, r2
 800151e:	430b      	orrs	r3, r1
    registerValue &= ((uint32_t)~(DMA_SxCR_MBURST | DMA_SxCR_PBURST | \
 8001520:	496c      	ldr	r1, [pc, #432]	; (80016d4 <HAL_DMA_Init+0x2a4>)
 8001522:	4001      	ands	r1, r0
            hdma->Init.Mode                | hdma->Init.Priority;
 8001524:	6a28      	ldr	r0, [r5, #32]
 8001526:	4303      	orrs	r3, r0
    if((DBGMCU->IDCODE & 0xFFFF0000U) >= 0x20000000U)
 8001528:	486b      	ldr	r0, [pc, #428]	; (80016d8 <HAL_DMA_Init+0x2a8>)
    registerValue |=  hdma->Init.Direction           |
 800152a:	430b      	orrs	r3, r1
    if(hdma->Init.FIFOMode == DMA_FIFOMODE_ENABLE)
 800152c:	6a69      	ldr	r1, [r5, #36]	; 0x24
 800152e:	2904      	cmp	r1, #4
 8001530:	f000 8124 	beq.w	800177c <HAL_DMA_Init+0x34c>
    if((DBGMCU->IDCODE & 0xFFFF0000U) >= 0x20000000U)
 8001534:	6806      	ldr	r6, [r0, #0]
 8001536:	4869      	ldr	r0, [pc, #420]	; (80016dc <HAL_DMA_Init+0x2ac>)
 8001538:	4030      	ands	r0, r6
 800153a:	f1b0 5f00 	cmp.w	r0, #536870912	; 0x20000000
 800153e:	f080 80dd 	bcs.w	80016fc <HAL_DMA_Init+0x2cc>
    ((DMA_Stream_TypeDef   *)hdma->Instance)->CR = registerValue;
 8001542:	6023      	str	r3, [r4, #0]
    registerValue = ((DMA_Stream_TypeDef   *)hdma->Instance)->FCR;
 8001544:	6963      	ldr	r3, [r4, #20]
    registerValue &= (uint32_t)~(DMA_SxFCR_DMDIS | DMA_SxFCR_FTH);
 8001546:	f023 0307 	bic.w	r3, r3, #7
    registerValue |= hdma->Init.FIFOMode;
 800154a:	430b      	orrs	r3, r1
    ((DMA_Stream_TypeDef   *)hdma->Instance)->FCR = registerValue;
 800154c:	6163      	str	r3, [r4, #20]
    regs_dma = (DMA_Base_Registers *)DMA_CalcBaseAndBitshift(hdma);
 800154e:	4628      	mov	r0, r5
 8001550:	f7ff fe8c 	bl	800126c <DMA_CalcBaseAndBitshift>
    regs_dma->IFCR = 0x3FUL << (hdma->StreamIndex & 0x1FU);
 8001554:	6dea      	ldr	r2, [r5, #92]	; 0x5c
 8001556:	233f      	movs	r3, #63	; 0x3f
  if(IS_DMA_DMAMUX_ALL_INSTANCE(hdma->Instance) != 0U) /* No DMAMUX available for BDMA1 */
 8001558:	495b      	ldr	r1, [pc, #364]	; (80016c8 <HAL_DMA_Init+0x298>)
    regs_dma->IFCR = 0x3FUL << (hdma->StreamIndex & 0x1FU);
 800155a:	f002 021f 	and.w	r2, r2, #31
  if(IS_DMA_DMAMUX_ALL_INSTANCE(hdma->Instance) != 0U) /* No DMAMUX available for BDMA1 */
 800155e:	4e60      	ldr	r6, [pc, #384]	; (80016e0 <HAL_DMA_Init+0x2b0>)
 8001560:	4f60      	ldr	r7, [pc, #384]	; (80016e4 <HAL_DMA_Init+0x2b4>)
    regs_dma->IFCR = 0x3FUL << (hdma->StreamIndex & 0x1FU);
 8001562:	4093      	lsls	r3, r2
  if(IS_DMA_DMAMUX_ALL_INSTANCE(hdma->Instance) != 0U) /* No DMAMUX available for BDMA1 */
 8001564:	4a60      	ldr	r2, [pc, #384]	; (80016e8 <HAL_DMA_Init+0x2b8>)
 8001566:	1ba6      	subs	r6, r4, r6
 8001568:	1be7      	subs	r7, r4, r7
    regs_dma->IFCR = 0x3FUL << (hdma->StreamIndex & 0x1FU);
 800156a:	6083      	str	r3, [r0, #8]
  if(IS_DMA_DMAMUX_ALL_INSTANCE(hdma->Instance) != 0U) /* No DMAMUX available for BDMA1 */
 800156c:	eba4 0b02 	sub.w	fp, r4, r2
 8001570:	4b5e      	ldr	r3, [pc, #376]	; (80016ec <HAL_DMA_Init+0x2bc>)
 8001572:	fab6 f686 	clz	r6, r6
 8001576:	fabb fb8b 	clz	fp, fp
 800157a:	fab7 f787 	clz	r7, r7
 800157e:	eba4 0a03 	sub.w	sl, r4, r3
 8001582:	4b5b      	ldr	r3, [pc, #364]	; (80016f0 <HAL_DMA_Init+0x2c0>)
 8001584:	ea4f 1b5b 	mov.w	fp, fp, lsr #5
 8001588:	485a      	ldr	r0, [pc, #360]	; (80016f4 <HAL_DMA_Init+0x2c4>)
 800158a:	429c      	cmp	r4, r3
 800158c:	bf18      	it	ne
 800158e:	428c      	cmpne	r4, r1
 8001590:	f103 0318 	add.w	r3, r3, #24
 8001594:	faba fa8a 	clz	sl, sl
 8001598:	ea4f 1656 	mov.w	r6, r6, lsr #5
 800159c:	bf0c      	ite	eq
 800159e:	2101      	moveq	r1, #1
 80015a0:	2100      	movne	r1, #0
 80015a2:	ea4f 1a5a 	mov.w	sl, sl, lsr #5
 80015a6:	1a22      	subs	r2, r4, r0
 80015a8:	429c      	cmp	r4, r3
 80015aa:	bf08      	it	eq
 80015ac:	f041 0101 	orreq.w	r1, r1, #1
 80015b0:	3318      	adds	r3, #24
 80015b2:	097f      	lsrs	r7, r7, #5
 80015b4:	fab2 f282 	clz	r2, r2
 80015b8:	429c      	cmp	r4, r3
 80015ba:	bf08      	it	eq
 80015bc:	f041 0101 	orreq.w	r1, r1, #1
 80015c0:	3318      	adds	r3, #24
 80015c2:	0952      	lsrs	r2, r2, #5
 80015c4:	429c      	cmp	r4, r3
 80015c6:	bf08      	it	eq
 80015c8:	f041 0101 	orreq.w	r1, r1, #1
 80015cc:	3318      	adds	r3, #24
 80015ce:	9201      	str	r2, [sp, #4]
 80015d0:	429c      	cmp	r4, r3
 80015d2:	bf08      	it	eq
 80015d4:	f041 0101 	orreq.w	r1, r1, #1
 80015d8:	3318      	adds	r3, #24
 80015da:	429c      	cmp	r4, r3
 80015dc:	bf08      	it	eq
 80015de:	f041 0101 	orreq.w	r1, r1, #1
 80015e2:	3318      	adds	r3, #24
 80015e4:	429c      	cmp	r4, r3
 80015e6:	bf08      	it	eq
 80015e8:	f041 0101 	orreq.w	r1, r1, #1
 80015ec:	f503 7356 	add.w	r3, r3, #856	; 0x358
 80015f0:	429c      	cmp	r4, r3
 80015f2:	bf08      	it	eq
 80015f4:	f041 0101 	orreq.w	r1, r1, #1
 80015f8:	3318      	adds	r3, #24
 80015fa:	429c      	cmp	r4, r3
 80015fc:	bf08      	it	eq
 80015fe:	f041 0101 	orreq.w	r1, r1, #1
 8001602:	3318      	adds	r3, #24
 8001604:	429c      	cmp	r4, r3
 8001606:	bf08      	it	eq
 8001608:	f041 0101 	orreq.w	r1, r1, #1
 800160c:	3318      	adds	r3, #24
 800160e:	429c      	cmp	r4, r3
 8001610:	bf08      	it	eq
 8001612:	f041 0101 	orreq.w	r1, r1, #1
 8001616:	3318      	adds	r3, #24
 8001618:	429c      	cmp	r4, r3
 800161a:	bf08      	it	eq
 800161c:	f041 0101 	orreq.w	r1, r1, #1
 8001620:	3318      	adds	r3, #24
 8001622:	429c      	cmp	r4, r3
 8001624:	bf08      	it	eq
 8001626:	f041 0101 	orreq.w	r1, r1, #1
 800162a:	3318      	adds	r3, #24
 800162c:	429c      	cmp	r4, r3
 800162e:	bf08      	it	eq
 8001630:	f041 0101 	orreq.w	r1, r1, #1
 8001634:	3318      	adds	r3, #24
 8001636:	429c      	cmp	r4, r3
 8001638:	bf08      	it	eq
 800163a:	f041 0101 	orreq.w	r1, r1, #1
 800163e:	4b2e      	ldr	r3, [pc, #184]	; (80016f8 <HAL_DMA_Init+0x2c8>)
 8001640:	ea4b 0101 	orr.w	r1, fp, r1
 8001644:	eba4 0803 	sub.w	r8, r4, r3
 8001648:	3314      	adds	r3, #20
 800164a:	ea4a 0101 	orr.w	r1, sl, r1
 800164e:	fab8 f888 	clz	r8, r8
 8001652:	eba4 0903 	sub.w	r9, r4, r3
 8001656:	3314      	adds	r3, #20
 8001658:	4331      	orrs	r1, r6
 800165a:	ea4f 1858 	mov.w	r8, r8, lsr #5
 800165e:	fab9 f989 	clz	r9, r9
 8001662:	1ae3      	subs	r3, r4, r3
 8001664:	4339      	orrs	r1, r7
 8001666:	ea4f 1959 	mov.w	r9, r9, lsr #5
 800166a:	fab3 f383 	clz	r3, r3
 800166e:	ea48 0101 	orr.w	r1, r8, r1
 8001672:	095b      	lsrs	r3, r3, #5
 8001674:	ea49 0101 	orr.w	r1, r9, r1
 8001678:	4319      	orrs	r1, r3
 800167a:	d100      	bne.n	800167e <HAL_DMA_Init+0x24e>
 800167c:	b1da      	cbz	r2, 80016b6 <HAL_DMA_Init+0x286>
    DMA_CalcDMAMUXChannelBaseAndMask(hdma);
 800167e:	4628      	mov	r0, r5
 8001680:	9300      	str	r3, [sp, #0]
 8001682:	f7ff fe6d 	bl	8001360 <DMA_CalcDMAMUXChannelBaseAndMask>
    if(hdma->Init.Direction == DMA_MEMORY_TO_MEMORY)
 8001686:	68a9      	ldr	r1, [r5, #8]
 8001688:	9b00      	ldr	r3, [sp, #0]
 800168a:	2980      	cmp	r1, #128	; 0x80
 800168c:	d066      	beq.n	800175c <HAL_DMA_Init+0x32c>
    hdma->DMAmuxChannel->CCR = (hdma->Init.Request & DMAMUX_CxCR_DMAREQ_ID);
 800168e:	6868      	ldr	r0, [r5, #4]
 8001690:	6e2a      	ldr	r2, [r5, #96]	; 0x60
 8001692:	b2c4      	uxtb	r4, r0
    if((hdma->Init.Request >= DMA_REQUEST_GENERATOR0) && (hdma->Init.Request <= DMA_REQUEST_GENERATOR7))
 8001694:	3801      	subs	r0, #1
    hdma->DMAmuxChannelStatus->CFR = hdma->DMAmuxChannelStatusMask;
 8001696:	e9d5 c119 	ldrd	ip, r1, [r5, #100]	; 0x64
    if((hdma->Init.Request >= DMA_REQUEST_GENERATOR0) && (hdma->Init.Request <= DMA_REQUEST_GENERATOR7))
 800169a:	2807      	cmp	r0, #7
    hdma->DMAmuxChannel->CCR = (hdma->Init.Request & DMAMUX_CxCR_DMAREQ_ID);
 800169c:	6014      	str	r4, [r2, #0]
    hdma->DMAmuxChannelStatus->CFR = hdma->DMAmuxChannelStatusMask;
 800169e:	f8cc 1004 	str.w	r1, [ip, #4]
    if((hdma->Init.Request >= DMA_REQUEST_GENERATOR0) && (hdma->Init.Request <= DMA_REQUEST_GENERATOR7))
 80016a2:	d862      	bhi.n	800176a <HAL_DMA_Init+0x33a>
  */
static void DMA_CalcDMAMUXRequestGenBaseAndMask(DMA_HandleTypeDef *hdma)
{
  uint32_t request =  hdma->Init.Request & DMAMUX_CxCR_DMAREQ_ID;

  if((request >= DMA_REQUEST_GENERATOR0) && (request <= DMA_REQUEST_GENERATOR7))
 80016a4:	1e61      	subs	r1, r4, #1
 80016a6:	2907      	cmp	r1, #7
 80016a8:	d979      	bls.n	800179e <HAL_DMA_Init+0x36e>
      hdma->DMAmuxRequestGenStatus->RGCFR = hdma->DMAmuxRequestGenStatusMask;
 80016aa:	6f6a      	ldr	r2, [r5, #116]	; 0x74
 80016ac:	e9d5 301b 	ldrd	r3, r0, [r5, #108]	; 0x6c
      hdma->DMAmuxRequestGen->RGCR = 0U;
 80016b0:	2100      	movs	r1, #0
 80016b2:	6019      	str	r1, [r3, #0]
      hdma->DMAmuxRequestGenStatus->RGCFR = hdma->DMAmuxRequestGenStatusMask;
 80016b4:	6042      	str	r2, [r0, #4]
  hdma->ErrorCode = HAL_DMA_ERROR_NONE;
 80016b6:	2000      	movs	r0, #0
  hdma->State = HAL_DMA_STATE_READY;
 80016b8:	2301      	movs	r3, #1
  hdma->ErrorCode = HAL_DMA_ERROR_NONE;
 80016ba:	6568      	str	r0, [r5, #84]	; 0x54
  hdma->State = HAL_DMA_STATE_READY;
 80016bc:	f885 3035 	strb.w	r3, [r5, #53]	; 0x35
}
 80016c0:	b003      	add	sp, #12
 80016c2:	e8bd 8ff0 	ldmia.w	sp!, {r4, r5, r6, r7, r8, r9, sl, fp, pc}
 80016c6:	bf00      	nop
 80016c8:	40020010 	.word	0x40020010
 80016cc:	40020040 	.word	0x40020040
 80016d0:	400204b8 	.word	0x400204b8
 80016d4:	fe10803f 	.word	0xfe10803f
 80016d8:	5c001000 	.word	0x5c001000
 80016dc:	ffff0000 	.word	0xffff0000
 80016e0:	58025430 	.word	0x58025430
 80016e4:	58025444 	.word	0x58025444
 80016e8:	58025408 	.word	0x58025408
 80016ec:	5802541c 	.word	0x5802541c
 80016f0:	40020028 	.word	0x40020028
 80016f4:	58025494 	.word	0x58025494
 80016f8:	58025458 	.word	0x58025458
      if(IS_DMA_UART_USART_REQUEST(hdma->Init.Request) != 0U)
 80016fc:	6868      	ldr	r0, [r5, #4]
 80016fe:	f1a0 0629 	sub.w	r6, r0, #41	; 0x29
 8001702:	2e1f      	cmp	r6, #31
 8001704:	d925      	bls.n	8001752 <HAL_DMA_Init+0x322>
 8001706:	384f      	subs	r0, #79	; 0x4f
 8001708:	2803      	cmp	r0, #3
 800170a:	d801      	bhi.n	8001710 <HAL_DMA_Init+0x2e0>
        registerValue |= DMA_SxCR_TRBUFF;
 800170c:	f443 1380 	orr.w	r3, r3, #1048576	; 0x100000
    ((DMA_Stream_TypeDef   *)hdma->Instance)->CR = registerValue;
 8001710:	6023      	str	r3, [r4, #0]
    if(hdma->Init.FIFOMode == DMA_FIFOMODE_ENABLE)
 8001712:	2904      	cmp	r1, #4
    registerValue = ((DMA_Stream_TypeDef   *)hdma->Instance)->FCR;
 8001714:	6963      	ldr	r3, [r4, #20]
    registerValue &= (uint32_t)~(DMA_SxFCR_DMDIS | DMA_SxFCR_FTH);
 8001716:	f023 0307 	bic.w	r3, r3, #7
    registerValue |= hdma->Init.FIFOMode;
 800171a:	ea43 0301 	orr.w	r3, r3, r1
    if(hdma->Init.FIFOMode == DMA_FIFOMODE_ENABLE)
 800171e:	f47f af15 	bne.w	800154c <HAL_DMA_Init+0x11c>
 8001722:	6ae8      	ldr	r0, [r5, #44]	; 0x2c
      registerValue |= hdma->Init.FIFOThreshold;
 8001724:	6aa9      	ldr	r1, [r5, #40]	; 0x28
 8001726:	430b      	orrs	r3, r1
      if(hdma->Init.MemBurst != DMA_MBURST_SINGLE)
 8001728:	2800      	cmp	r0, #0
 800172a:	f43f af0f 	beq.w	800154c <HAL_DMA_Init+0x11c>
  if (hdma->Init.MemDataAlignment == DMA_MDATAALIGN_BYTE)
 800172e:	2a00      	cmp	r2, #0
 8001730:	d153      	bne.n	80017da <HAL_DMA_Init+0x3aa>
    switch (hdma->Init.FIFOThreshold)
 8001732:	2901      	cmp	r1, #1
 8001734:	d072      	beq.n	800181c <HAL_DMA_Init+0x3ec>
 8001736:	f031 0202 	bics.w	r2, r1, #2
 800173a:	f47f af07 	bne.w	800154c <HAL_DMA_Init+0x11c>
 800173e:	e054      	b.n	80017ea <HAL_DMA_Init+0x3ba>
        hdma->ErrorCode = HAL_DMA_ERROR_TIMEOUT;
 8001740:	2220      	movs	r2, #32
        hdma->State = HAL_DMA_STATE_ERROR;
 8001742:	2303      	movs	r3, #3
        return HAL_ERROR;
 8001744:	2001      	movs	r0, #1
        hdma->ErrorCode = HAL_DMA_ERROR_TIMEOUT;
 8001746:	656a      	str	r2, [r5, #84]	; 0x54
        hdma->State = HAL_DMA_STATE_ERROR;
 8001748:	f885 3035 	strb.w	r3, [r5, #53]	; 0x35
}
 800174c:	b003      	add	sp, #12
 800174e:	e8bd 8ff0 	ldmia.w	sp!, {r4, r5, r6, r7, r8, r9, sl, fp, pc}
      if(IS_DMA_UART_USART_REQUEST(hdma->Init.Request) != 0U)
 8001752:	4878      	ldr	r0, [pc, #480]	; (8001934 <HAL_DMA_Init+0x504>)
 8001754:	40f0      	lsrs	r0, r6
 8001756:	07c0      	lsls	r0, r0, #31
 8001758:	d5da      	bpl.n	8001710 <HAL_DMA_Init+0x2e0>
 800175a:	e7d7      	b.n	800170c <HAL_DMA_Init+0x2dc>
      hdma->Init.Request = DMA_REQUEST_MEM2MEM;
 800175c:	2300      	movs	r3, #0
    hdma->DMAmuxChannelStatus->CFR = hdma->DMAmuxChannelStatusMask;
 800175e:	6ea9      	ldr	r1, [r5, #104]	; 0x68
 8001760:	e9d5 0218 	ldrd	r0, r2, [r5, #96]	; 0x60
      hdma->Init.Request = DMA_REQUEST_MEM2MEM;
 8001764:	606b      	str	r3, [r5, #4]
    hdma->DMAmuxChannel->CCR = (hdma->Init.Request & DMAMUX_CxCR_DMAREQ_ID);
 8001766:	6003      	str	r3, [r0, #0]
    hdma->DMAmuxChannelStatus->CFR = hdma->DMAmuxChannelStatusMask;
 8001768:	6051      	str	r1, [r2, #4]
      hdma->DMAmuxRequestGen = 0U;
 800176a:	2300      	movs	r3, #0
      hdma->DMAmuxRequestGenStatus = 0U;
 800176c:	e9c5 331b 	strd	r3, r3, [r5, #108]	; 0x6c
      hdma->DMAmuxRequestGenStatusMask = 0U;
 8001770:	676b      	str	r3, [r5, #116]	; 0x74
 8001772:	e7a0      	b.n	80016b6 <HAL_DMA_Init+0x286>
    return HAL_ERROR;
 8001774:	2001      	movs	r0, #1
}
 8001776:	b003      	add	sp, #12
 8001778:	e8bd 8ff0 	ldmia.w	sp!, {r4, r5, r6, r7, r8, r9, sl, fp, pc}
    if((DBGMCU->IDCODE & 0xFFFF0000U) >= 0x20000000U)
 800177c:	6807      	ldr	r7, [r0, #0]
      registerValue |=  hdma->Init.MemBurst | hdma->Init.PeriphBurst;
 800177e:	e9d5 060b 	ldrd	r0, r6, [r5, #44]	; 0x2c
 8001782:	4306      	orrs	r6, r0
 8001784:	4333      	orrs	r3, r6
    if((DBGMCU->IDCODE & 0xFFFF0000U) >= 0x20000000U)
 8001786:	4e6c      	ldr	r6, [pc, #432]	; (8001938 <HAL_DMA_Init+0x508>)
 8001788:	403e      	ands	r6, r7
 800178a:	f1b6 5f00 	cmp.w	r6, #536870912	; 0x20000000
 800178e:	d2b5      	bcs.n	80016fc <HAL_DMA_Init+0x2cc>
    ((DMA_Stream_TypeDef   *)hdma->Instance)->CR = registerValue;
 8001790:	6023      	str	r3, [r4, #0]
    registerValue = ((DMA_Stream_TypeDef   *)hdma->Instance)->FCR;
 8001792:	6963      	ldr	r3, [r4, #20]
    registerValue &= (uint32_t)~(DMA_SxFCR_DMDIS | DMA_SxFCR_FTH);
 8001794:	f023 0307 	bic.w	r3, r3, #7
    registerValue |= hdma->Init.FIFOMode;
 8001798:	f043 0304 	orr.w	r3, r3, #4
    if(hdma->Init.FIFOMode == DMA_FIFOMODE_ENABLE)
 800179c:	e7c2      	b.n	8001724 <HAL_DMA_Init+0x2f4>
  {
    if(IS_BDMA_CHANNEL_DMAMUX_INSTANCE(hdma->Instance) != 0U)
 800179e:	9a01      	ldr	r2, [sp, #4]
 80017a0:	431a      	orrs	r2, r3
 80017a2:	ea49 0902 	orr.w	r9, r9, r2
 80017a6:	ea48 0809 	orr.w	r8, r8, r9
 80017aa:	ea47 0708 	orr.w	r7, r7, r8
 80017ae:	433e      	orrs	r6, r7
 80017b0:	ea5a 0606 	orrs.w	r6, sl, r6
 80017b4:	d107      	bne.n	80017c6 <HAL_DMA_Init+0x396>
 80017b6:	f1bb 0f00 	cmp.w	fp, #0
 80017ba:	d104      	bne.n	80017c6 <HAL_DMA_Init+0x396>
      hdma->DMAmuxRequestGenStatus = DMAMUX2_RequestGenStatus;
    }
    else
    {
      /* DMA1 and DMA2 Streams use DMAMUX1 request generator blocks */
      hdma->DMAmuxRequestGen = (DMAMUX_RequestGen_TypeDef *)((uint32_t)(((uint32_t)DMAMUX1_RequestGenerator0) + ((request - 1U) * 4U)));
 80017bc:	4b5f      	ldr	r3, [pc, #380]	; (800193c <HAL_DMA_Init+0x50c>)

      hdma->DMAmuxRequestGenStatus = DMAMUX1_RequestGenStatus;
 80017be:	4860      	ldr	r0, [pc, #384]	; (8001940 <HAL_DMA_Init+0x510>)
      hdma->DMAmuxRequestGen = (DMAMUX_RequestGen_TypeDef *)((uint32_t)(((uint32_t)DMAMUX1_RequestGenerator0) + ((request - 1U) * 4U)));
 80017c0:	4423      	add	r3, r4
 80017c2:	009b      	lsls	r3, r3, #2
      hdma->DMAmuxRequestGenStatus = DMAMUX1_RequestGenStatus;
 80017c4:	e003      	b.n	80017ce <HAL_DMA_Init+0x39e>
      hdma->DMAmuxRequestGen = (DMAMUX_RequestGen_TypeDef *)((uint32_t)(((uint32_t)DMAMUX2_RequestGenerator0) + ((request - 1U) * 4U)));
 80017c6:	4b5f      	ldr	r3, [pc, #380]	; (8001944 <HAL_DMA_Init+0x514>)
      hdma->DMAmuxRequestGenStatus = DMAMUX2_RequestGenStatus;
 80017c8:	485f      	ldr	r0, [pc, #380]	; (8001948 <HAL_DMA_Init+0x518>)
      hdma->DMAmuxRequestGen = (DMAMUX_RequestGen_TypeDef *)((uint32_t)(((uint32_t)DMAMUX2_RequestGenerator0) + ((request - 1U) * 4U)));
 80017ca:	4423      	add	r3, r4
 80017cc:	009b      	lsls	r3, r3, #2
    }

    hdma->DMAmuxRequestGenStatusMask = 1UL << (request - 1U);
 80017ce:	2201      	movs	r2, #1
 80017d0:	408a      	lsls	r2, r1
 80017d2:	e9c5 301b 	strd	r3, r0, [r5, #108]	; 0x6c
 80017d6:	676a      	str	r2, [r5, #116]	; 0x74
 80017d8:	e76a      	b.n	80016b0 <HAL_DMA_Init+0x280>
  else if (hdma->Init.MemDataAlignment == DMA_MDATAALIGN_HALFWORD)
 80017da:	f5b2 5f00 	cmp.w	r2, #8192	; 0x2000
 80017de:	d00e      	beq.n	80017fe <HAL_DMA_Init+0x3ce>
    switch (hdma->Init.FIFOThreshold)
 80017e0:	2902      	cmp	r1, #2
 80017e2:	d905      	bls.n	80017f0 <HAL_DMA_Init+0x3c0>
 80017e4:	2903      	cmp	r1, #3
 80017e6:	f47f aeb1 	bne.w	800154c <HAL_DMA_Init+0x11c>
        if ((hdma->Init.MemBurst & DMA_SxCR_MBURST_1) == DMA_SxCR_MBURST_1)
 80017ea:	01c2      	lsls	r2, r0, #7
 80017ec:	f57f aeae 	bpl.w	800154c <HAL_DMA_Init+0x11c>
          hdma->State = HAL_DMA_STATE_READY;
 80017f0:	2301      	movs	r3, #1
          hdma->ErrorCode = HAL_DMA_ERROR_PARAM;
 80017f2:	2240      	movs	r2, #64	; 0x40
          return HAL_ERROR;
 80017f4:	4618      	mov	r0, r3
          hdma->ErrorCode = HAL_DMA_ERROR_PARAM;
 80017f6:	656a      	str	r2, [r5, #84]	; 0x54
          hdma->State = HAL_DMA_STATE_READY;
 80017f8:	f885 3035 	strb.w	r3, [r5, #53]	; 0x35
          return HAL_ERROR;
 80017fc:	e7a6      	b.n	800174c <HAL_DMA_Init+0x31c>
    switch (hdma->Init.FIFOThreshold)
 80017fe:	2903      	cmp	r1, #3
 8001800:	f63f aea4 	bhi.w	800154c <HAL_DMA_Init+0x11c>
 8001804:	a201      	add	r2, pc, #4	; (adr r2, 800180c <HAL_DMA_Init+0x3dc>)
 8001806:	f852 f021 	ldr.w	pc, [r2, r1, lsl #2]
 800180a:	bf00      	nop
 800180c:	080017f1 	.word	0x080017f1
 8001810:	080017eb 	.word	0x080017eb
 8001814:	080017f1 	.word	0x080017f1
 8001818:	0800181d 	.word	0x0800181d
        if (hdma->Init.MemBurst == DMA_MBURST_INC16)
 800181c:	f1b0 7fc0 	cmp.w	r0, #25165824	; 0x1800000
 8001820:	f47f ae94 	bne.w	800154c <HAL_DMA_Init+0x11c>
 8001824:	e7e4      	b.n	80017f0 <HAL_DMA_Init+0x3c0>
  else if(IS_BDMA_CHANNEL_INSTANCE(hdma->Instance) != 0U) /* BDMA instance(s) */
 8001826:	4a49      	ldr	r2, [pc, #292]	; (800194c <HAL_DMA_Init+0x51c>)
 8001828:	4b49      	ldr	r3, [pc, #292]	; (8001950 <HAL_DMA_Init+0x520>)
 800182a:	eba4 0b02 	sub.w	fp, r4, r2
 800182e:	4e49      	ldr	r6, [pc, #292]	; (8001954 <HAL_DMA_Init+0x524>)
 8001830:	eba4 0a03 	sub.w	sl, r4, r3
 8001834:	4f48      	ldr	r7, [pc, #288]	; (8001958 <HAL_DMA_Init+0x528>)
 8001836:	fabb fb8b 	clz	fp, fp
 800183a:	1ba6      	subs	r6, r4, r6
 800183c:	faba fa8a 	clz	sl, sl
 8001840:	333c      	adds	r3, #60	; 0x3c
 8001842:	ea4f 1b5b 	mov.w	fp, fp, lsr #5
 8001846:	fab6 f686 	clz	r6, r6
 800184a:	ea4f 1a5a 	mov.w	sl, sl, lsr #5
 800184e:	1be7      	subs	r7, r4, r7
 8001850:	eba4 0803 	sub.w	r8, r4, r3
 8001854:	0976      	lsrs	r6, r6, #5
 8001856:	3314      	adds	r3, #20
 8001858:	fab7 f787 	clz	r7, r7
 800185c:	ea4b 010a 	orr.w	r1, fp, sl
 8001860:	fab8 f888 	clz	r8, r8
 8001864:	eba4 0903 	sub.w	r9, r4, r3
 8001868:	097f      	lsrs	r7, r7, #5
 800186a:	4331      	orrs	r1, r6
 800186c:	3314      	adds	r3, #20
 800186e:	ea4f 1858 	mov.w	r8, r8, lsr #5
 8001872:	fab9 f989 	clz	r9, r9
 8001876:	4339      	orrs	r1, r7
 8001878:	1ae3      	subs	r3, r4, r3
 800187a:	4838      	ldr	r0, [pc, #224]	; (800195c <HAL_DMA_Init+0x52c>)
 800187c:	ea4f 1959 	mov.w	r9, r9, lsr #5
 8001880:	ea48 0101 	orr.w	r1, r8, r1
 8001884:	fab3 f383 	clz	r3, r3
 8001888:	1a22      	subs	r2, r4, r0
 800188a:	ea49 0101 	orr.w	r1, r9, r1
 800188e:	095b      	lsrs	r3, r3, #5
 8001890:	fab2 f282 	clz	r2, r2
 8001894:	4319      	orrs	r1, r3
 8001896:	ea4f 1252 	mov.w	r2, r2, lsr #5
 800189a:	9201      	str	r2, [sp, #4]
 800189c:	d101      	bne.n	80018a2 <HAL_DMA_Init+0x472>
 800189e:	2a00      	cmp	r2, #0
 80018a0:	d041      	beq.n	8001926 <HAL_DMA_Init+0x4f6>
    hdma->State = HAL_DMA_STATE_BUSY;
 80018a2:	2102      	movs	r1, #2
    registerValue &= ((uint32_t)~(BDMA_CCR_PL    | BDMA_CCR_MSIZE   | BDMA_CCR_PSIZE  | \
 80018a4:	f8df c0c0 	ldr.w	ip, [pc, #192]	; 8001968 <HAL_DMA_Init+0x538>
    hdma->State = HAL_DMA_STATE_BUSY;
 80018a8:	f885 1035 	strb.w	r1, [r5, #53]	; 0x35
    __HAL_UNLOCK(hdma);
 80018ac:	2100      	movs	r1, #0
 80018ae:	f885 1034 	strb.w	r1, [r5, #52]	; 0x34
    registerValue = ((BDMA_Channel_TypeDef *)hdma->Instance)->CCR;
 80018b2:	6821      	ldr	r1, [r4, #0]
    registerValue &= ((uint32_t)~(BDMA_CCR_PL    | BDMA_CCR_MSIZE   | BDMA_CCR_PSIZE  | \
 80018b4:	ea01 0c0c 	and.w	ip, r1, ip
    registerValue |=  DMA_TO_BDMA_DIRECTION(hdma->Init.Direction)            |
 80018b8:	68a9      	ldr	r1, [r5, #8]
 80018ba:	2940      	cmp	r1, #64	; 0x40
 80018bc:	d030      	beq.n	8001920 <HAL_DMA_Init+0x4f0>
 80018be:	f1a1 0180 	sub.w	r1, r1, #128	; 0x80
 80018c2:	fab1 f181 	clz	r1, r1
 80018c6:	0949      	lsrs	r1, r1, #5
 80018c8:	ea4f 3e81 	mov.w	lr, r1, lsl #14
                      DMA_TO_BDMA_MEMORY_INC(hdma->Init.MemInc)              |
 80018cc:	6929      	ldr	r1, [r5, #16]
                      DMA_TO_BDMA_PERIPHERAL_INC(hdma->Init.PeriphInc)       |
 80018ce:	68e8      	ldr	r0, [r5, #12]
                      DMA_TO_BDMA_MEMORY_INC(hdma->Init.MemInc)              |
 80018d0:	08c9      	lsrs	r1, r1, #3
    hdma->StreamIndex = (((uint32_t)((uint32_t*)hdma->Instance) - (uint32_t)BDMA_Channel0) / ((uint32_t)BDMA_Channel1 - (uint32_t)BDMA_Channel0)) << 2U;
 80018d2:	4a23      	ldr	r2, [pc, #140]	; (8001960 <HAL_DMA_Init+0x530>)
 80018d4:	9300      	str	r3, [sp, #0]
 80018d6:	ea41 00d0 	orr.w	r0, r1, r0, lsr #3
                      DMA_TO_BDMA_PDATA_SIZE(hdma->Init.PeriphDataAlignment) |
 80018da:	6969      	ldr	r1, [r5, #20]
    hdma->StreamIndex = (((uint32_t)((uint32_t*)hdma->Instance) - (uint32_t)BDMA_Channel0) / ((uint32_t)BDMA_Channel1 - (uint32_t)BDMA_Channel0)) << 2U;
 80018dc:	4422      	add	r2, r4
 80018de:	ea40 00d1 	orr.w	r0, r0, r1, lsr #3
                      DMA_TO_BDMA_MDATA_SIZE(hdma->Init.MemDataAlignment)    |
 80018e2:	69a9      	ldr	r1, [r5, #24]
 80018e4:	ea40 00d1 	orr.w	r0, r0, r1, lsr #3
                      DMA_TO_BDMA_MODE(hdma->Init.Mode)                      |
 80018e8:	69e9      	ldr	r1, [r5, #28]
 80018ea:	ea40 00d1 	orr.w	r0, r0, r1, lsr #3
                      DMA_TO_BDMA_PRIORITY(hdma->Init.Priority);
 80018ee:	6a29      	ldr	r1, [r5, #32]
 80018f0:	ea40 1111 	orr.w	r1, r0, r1, lsr #4
 80018f4:	ea41 010c 	orr.w	r1, r1, ip
    registerValue |=  DMA_TO_BDMA_DIRECTION(hdma->Init.Direction)            |
 80018f8:	ea4e 0101 	orr.w	r1, lr, r1
    ((BDMA_Channel_TypeDef *)hdma->Instance)->CCR = registerValue;
 80018fc:	6021      	str	r1, [r4, #0]
    hdma->StreamIndex = (((uint32_t)((uint32_t*)hdma->Instance) - (uint32_t)BDMA_Channel0) / ((uint32_t)BDMA_Channel1 - (uint32_t)BDMA_Channel0)) << 2U;
 80018fe:	4919      	ldr	r1, [pc, #100]	; (8001964 <HAL_DMA_Init+0x534>)
 8001900:	fba1 0102 	umull	r0, r1, r1, r2
    regs_bdma = (BDMA_Base_Registers *)DMA_CalcBaseAndBitshift(hdma);
 8001904:	4628      	mov	r0, r5
    hdma->StreamIndex = (((uint32_t)((uint32_t*)hdma->Instance) - (uint32_t)BDMA_Channel0) / ((uint32_t)BDMA_Channel1 - (uint32_t)BDMA_Channel0)) << 2U;
 8001906:	0909      	lsrs	r1, r1, #4
 8001908:	0089      	lsls	r1, r1, #2
 800190a:	65e9      	str	r1, [r5, #92]	; 0x5c
    regs_bdma = (BDMA_Base_Registers *)DMA_CalcBaseAndBitshift(hdma);
 800190c:	f7ff fcae 	bl	800126c <DMA_CalcBaseAndBitshift>
    regs_bdma->IFCR = ((BDMA_IFCR_CGIF0) << (hdma->StreamIndex & 0x1FU));
 8001910:	6de9      	ldr	r1, [r5, #92]	; 0x5c
 8001912:	9b00      	ldr	r3, [sp, #0]
 8001914:	f001 041f 	and.w	r4, r1, #31
 8001918:	2101      	movs	r1, #1
 800191a:	40a1      	lsls	r1, r4
 800191c:	6041      	str	r1, [r0, #4]
 800191e:	e6ae      	b.n	800167e <HAL_DMA_Init+0x24e>
    registerValue |=  DMA_TO_BDMA_DIRECTION(hdma->Init.Direction)            |
 8001920:	f04f 0e10 	mov.w	lr, #16
 8001924:	e7d2      	b.n	80018cc <HAL_DMA_Init+0x49c>
    hdma->ErrorCode = HAL_DMA_ERROR_PARAM;
 8001926:	2240      	movs	r2, #64	; 0x40
    hdma->State     = HAL_DMA_STATE_ERROR;
 8001928:	2303      	movs	r3, #3
    return HAL_ERROR;
 800192a:	2001      	movs	r0, #1
    hdma->ErrorCode = HAL_DMA_ERROR_PARAM;
 800192c:	656a      	str	r2, [r5, #84]	; 0x54
    hdma->State     = HAL_DMA_STATE_ERROR;
 800192e:	f885 3035 	strb.w	r3, [r5, #53]	; 0x35
    return HAL_ERROR;
 8001932:	e70b      	b.n	800174c <HAL_DMA_Init+0x31c>
 8001934:	c3c0003f 	.word	0xc3c0003f
 8001938:	ffff0000 	.word	0xffff0000
 800193c:	1000823f 	.word	0x1000823f
 8001940:	40020940 	.word	0x40020940
 8001944:	1600963f 	.word	0x1600963f
 8001948:	58025940 	.word	0x58025940
 800194c:	58025408 	.word	0x58025408
 8001950:	5802541c 	.word	0x5802541c
 8001954:	58025430 	.word	0x58025430
 8001958:	58025444 	.word	0x58025444
 800195c:	58025494 	.word	0x58025494
 8001960:	a7fdabf8 	.word	0xa7fdabf8
 8001964:	cccccccd 	.word	0xcccccccd
 8001968:	fffe000f 	.word	0xfffe000f

0800196c <HAL_DMA_Start_IT>:
  if(hdma == NULL)
 800196c:	2800      	cmp	r0, #0
 800196e:	f000 8177 	beq.w	8001c60 <HAL_DMA_Start_IT+0x2f4>
 8001972:	4684      	mov	ip, r0
  __HAL_LOCK(hdma);
 8001974:	f890 0034 	ldrb.w	r0, [r0, #52]	; 0x34
 8001978:	2801      	cmp	r0, #1
 800197a:	f000 8173 	beq.w	8001c64 <HAL_DMA_Start_IT+0x2f8>
 800197e:	2001      	movs	r0, #1
{
 8001980:	e92d 47f0 	stmdb	sp!, {r4, r5, r6, r7, r8, r9, sl, lr}
  if(HAL_DMA_STATE_READY == hdma->State)
 8001984:	f89c 4035 	ldrb.w	r4, [ip, #53]	; 0x35
  __HAL_LOCK(hdma);
 8001988:	f88c 0034 	strb.w	r0, [ip, #52]	; 0x34
  if(HAL_DMA_STATE_READY == hdma->State)
 800198c:	4284      	cmp	r4, r0
 800198e:	d008      	beq.n	80019a2 <HAL_DMA_Start_IT+0x36>
    hdma->ErrorCode = HAL_DMA_ERROR_BUSY;
 8001990:	f44f 6200 	mov.w	r2, #2048	; 0x800
    __HAL_UNLOCK(hdma);
 8001994:	2300      	movs	r3, #0
    hdma->ErrorCode = HAL_DMA_ERROR_BUSY;
 8001996:	f8cc 2054 	str.w	r2, [ip, #84]	; 0x54
    __HAL_UNLOCK(hdma);
 800199a:	f88c 3034 	strb.w	r3, [ip, #52]	; 0x34
}
 800199e:	e8bd 87f0 	ldmia.w	sp!, {r4, r5, r6, r7, r8, r9, sl, pc}
    hdma->State = HAL_DMA_STATE_BUSY;
 80019a2:	2002      	movs	r0, #2
    __HAL_DMA_DISABLE(hdma);
 80019a4:	f8dc 4000 	ldr.w	r4, [ip]
 80019a8:	4d53      	ldr	r5, [pc, #332]	; (8001af8 <HAL_DMA_Start_IT+0x18c>)
    hdma->State = HAL_DMA_STATE_BUSY;
 80019aa:	f88c 0035 	strb.w	r0, [ip, #53]	; 0x35
    hdma->ErrorCode = HAL_DMA_ERROR_NONE;
 80019ae:	2000      	movs	r0, #0
    __HAL_DMA_DISABLE(hdma);
 80019b0:	4e52      	ldr	r6, [pc, #328]	; (8001afc <HAL_DMA_Start_IT+0x190>)
    hdma->ErrorCode = HAL_DMA_ERROR_NONE;
 80019b2:	f8cc 0054 	str.w	r0, [ip, #84]	; 0x54
    __HAL_DMA_DISABLE(hdma);
 80019b6:	4852      	ldr	r0, [pc, #328]	; (8001b00 <HAL_DMA_Start_IT+0x194>)
 80019b8:	42ac      	cmp	r4, r5
 80019ba:	bf18      	it	ne
 80019bc:	4284      	cmpne	r4, r0
 80019be:	f105 0518 	add.w	r5, r5, #24
 80019c2:	bf0c      	ite	eq
 80019c4:	2001      	moveq	r0, #1
 80019c6:	2000      	movne	r0, #0
 80019c8:	42ac      	cmp	r4, r5
 80019ca:	bf08      	it	eq
 80019cc:	f040 0001 	orreq.w	r0, r0, #1
 80019d0:	3518      	adds	r5, #24
 80019d2:	42ac      	cmp	r4, r5
 80019d4:	bf08      	it	eq
 80019d6:	f040 0001 	orreq.w	r0, r0, #1
 80019da:	3518      	adds	r5, #24
 80019dc:	42ac      	cmp	r4, r5
 80019de:	bf08      	it	eq
 80019e0:	f040 0001 	orreq.w	r0, r0, #1
 80019e4:	3518      	adds	r5, #24
 80019e6:	42ac      	cmp	r4, r5
 80019e8:	bf08      	it	eq
 80019ea:	f040 0001 	orreq.w	r0, r0, #1
 80019ee:	f505 7556 	add.w	r5, r5, #856	; 0x358
 80019f2:	42ac      	cmp	r4, r5
 80019f4:	bf08      	it	eq
 80019f6:	f040 0001 	orreq.w	r0, r0, #1
 80019fa:	3518      	adds	r5, #24
 80019fc:	42ac      	cmp	r4, r5
 80019fe:	bf08      	it	eq
 8001a00:	f040 0001 	orreq.w	r0, r0, #1
 8001a04:	3518      	adds	r5, #24
 8001a06:	42ac      	cmp	r4, r5
 8001a08:	bf08      	it	eq
 8001a0a:	f040 0001 	orreq.w	r0, r0, #1
 8001a0e:	3518      	adds	r5, #24
 8001a10:	42ac      	cmp	r4, r5
 8001a12:	bf08      	it	eq
 8001a14:	f040 0001 	orreq.w	r0, r0, #1
 8001a18:	3518      	adds	r5, #24
 8001a1a:	42ac      	cmp	r4, r5
 8001a1c:	bf08      	it	eq
 8001a1e:	f040 0001 	orreq.w	r0, r0, #1
 8001a22:	3518      	adds	r5, #24
 8001a24:	42ac      	cmp	r4, r5
 8001a26:	bf08      	it	eq
 8001a28:	f040 0001 	orreq.w	r0, r0, #1
 8001a2c:	3518      	adds	r5, #24
 8001a2e:	42ac      	cmp	r4, r5
 8001a30:	bf08      	it	eq
 8001a32:	f040 0001 	orreq.w	r0, r0, #1
 8001a36:	3518      	adds	r5, #24
 8001a38:	42ac      	cmp	r4, r5
 8001a3a:	bf14      	ite	ne
 8001a3c:	4681      	movne	r9, r0
 8001a3e:	f040 0901 	orreq.w	r9, r0, #1
 8001a42:	f5a5 6595 	sub.w	r5, r5, #1192	; 0x4a8
 8001a46:	42b4      	cmp	r4, r6
 8001a48:	bf18      	it	ne
 8001a4a:	42ac      	cmpne	r4, r5
 8001a4c:	bf0c      	ite	eq
 8001a4e:	2501      	moveq	r5, #1
 8001a50:	2500      	movne	r5, #0
 8001a52:	d002      	beq.n	8001a5a <HAL_DMA_Start_IT+0xee>
 8001a54:	f1b9 0f00 	cmp.w	r9, #0
 8001a58:	d054      	beq.n	8001b04 <HAL_DMA_Start_IT+0x198>
 8001a5a:	6826      	ldr	r6, [r4, #0]
  DMA_Base_Registers  *regs_dma  = (DMA_Base_Registers *)hdma->StreamBaseAddress;
 8001a5c:	f8dc a058 	ldr.w	sl, [ip, #88]	; 0x58
    __HAL_DMA_DISABLE(hdma);
 8001a60:	f026 0601 	bic.w	r6, r6, #1
 8001a64:	6026      	str	r6, [r4, #0]
  if(IS_DMA_DMAMUX_ALL_INSTANCE(hdma->Instance) != 0U) /* No DMAMUX available for BDMA1 */
 8001a66:	2d00      	cmp	r5, #0
 8001a68:	d078      	beq.n	8001b5c <HAL_DMA_Start_IT+0x1f0>
    hdma->DMAmuxChannelStatus->CFR = hdma->DMAmuxChannelStatusMask;
 8001a6a:	e9dc 6719 	ldrd	r6, r7, [ip, #100]	; 0x64
 8001a6e:	6077      	str	r7, [r6, #4]
    if(hdma->DMAmuxRequestGen != 0U)
 8001a70:	f8dc 706c 	ldr.w	r7, [ip, #108]	; 0x6c
 8001a74:	b117      	cbz	r7, 8001a7c <HAL_DMA_Start_IT+0x110>
      hdma->DMAmuxRequestGenStatus->RGCFR = hdma->DMAmuxRequestGenStatusMask;
 8001a76:	e9dc 601c 	ldrd	r6, r0, [ip, #112]	; 0x70
 8001a7a:	6070      	str	r0, [r6, #4]
    regs_dma->IFCR = 0x3FUL << (hdma->StreamIndex & 0x1FU);
 8001a7c:	f8dc 605c 	ldr.w	r6, [ip, #92]	; 0x5c
 8001a80:	f04f 0e3f 	mov.w	lr, #63	; 0x3f
 8001a84:	f006 081f 	and.w	r8, r6, #31
 8001a88:	fa0e fe08 	lsl.w	lr, lr, r8
 8001a8c:	f8ca e008 	str.w	lr, [sl, #8]
    ((DMA_Stream_TypeDef *)hdma->Instance)->CR &= (uint32_t)(~DMA_SxCR_DBM);
 8001a90:	6826      	ldr	r6, [r4, #0]
 8001a92:	f426 2680 	bic.w	r6, r6, #262144	; 0x40000
 8001a96:	6026      	str	r6, [r4, #0]
    ((DMA_Stream_TypeDef *)hdma->Instance)->NDTR = DataLength;
 8001a98:	6063      	str	r3, [r4, #4]
    if((hdma->Init.Direction) == DMA_MEMORY_TO_PERIPH)
 8001a9a:	f8dc 3008 	ldr.w	r3, [ip, #8]
 8001a9e:	2b40      	cmp	r3, #64	; 0x40
 8001aa0:	f000 80e2 	beq.w	8001c68 <HAL_DMA_Start_IT+0x2fc>
      ((DMA_Stream_TypeDef *)hdma->Instance)->PAR = SrcAddress;
 8001aa4:	60a1      	str	r1, [r4, #8]
      ((DMA_Stream_TypeDef *)hdma->Instance)->M0AR = DstAddress;
 8001aa6:	60e2      	str	r2, [r4, #12]
    if(IS_DMA_STREAM_INSTANCE(hdma->Instance) != 0U) /* DMA1 or DMA2 instance */
 8001aa8:	b91d      	cbnz	r5, 8001ab2 <HAL_DMA_Start_IT+0x146>
 8001aaa:	f1b9 0f00 	cmp.w	r9, #0
 8001aae:	f000 80e1 	beq.w	8001c74 <HAL_DMA_Start_IT+0x308>
      MODIFY_REG(((DMA_Stream_TypeDef   *)hdma->Instance)->CR, (DMA_IT_TC | DMA_IT_TE | DMA_IT_DME | DMA_IT_HT), (DMA_IT_TC | DMA_IT_TE | DMA_IT_DME));
 8001ab2:	6823      	ldr	r3, [r4, #0]
 8001ab4:	f023 031e 	bic.w	r3, r3, #30
 8001ab8:	f043 0316 	orr.w	r3, r3, #22
 8001abc:	6023      	str	r3, [r4, #0]
      if(hdma->XferHalfCpltCallback != NULL)
 8001abe:	f8dc 3040 	ldr.w	r3, [ip, #64]	; 0x40
 8001ac2:	b11b      	cbz	r3, 8001acc <HAL_DMA_Start_IT+0x160>
        ((DMA_Stream_TypeDef   *)hdma->Instance)->CR  |= DMA_IT_HT;
 8001ac4:	6823      	ldr	r3, [r4, #0]
 8001ac6:	f043 0308 	orr.w	r3, r3, #8
 8001aca:	6023      	str	r3, [r4, #0]
      if((hdma->DMAmuxChannel->CCR & DMAMUX_CxCR_SE) != 0U)
 8001acc:	f8dc 3060 	ldr.w	r3, [ip, #96]	; 0x60
 8001ad0:	681a      	ldr	r2, [r3, #0]
 8001ad2:	03d2      	lsls	r2, r2, #15
 8001ad4:	d503      	bpl.n	8001ade <HAL_DMA_Start_IT+0x172>
        hdma->DMAmuxChannel->CCR |= DMAMUX_CxCR_SOIE;
 8001ad6:	681a      	ldr	r2, [r3, #0]
 8001ad8:	f442 7280 	orr.w	r2, r2, #256	; 0x100
 8001adc:	601a      	str	r2, [r3, #0]
      if(hdma->DMAmuxRequestGen != 0U)
 8001ade:	b11f      	cbz	r7, 8001ae8 <HAL_DMA_Start_IT+0x17c>
        hdma->DMAmuxRequestGen->RGCR |= DMAMUX_RGxCR_OIE;
 8001ae0:	683b      	ldr	r3, [r7, #0]
 8001ae2:	f443 7380 	orr.w	r3, r3, #256	; 0x100
 8001ae6:	603b      	str	r3, [r7, #0]
    __HAL_DMA_ENABLE(hdma);
 8001ae8:	6823      	ldr	r3, [r4, #0]
  HAL_StatusTypeDef status = HAL_OK;
 8001aea:	2000      	movs	r0, #0
    __HAL_DMA_ENABLE(hdma);
 8001aec:	f043 0301 	orr.w	r3, r3, #1
 8001af0:	6023      	str	r3, [r4, #0]
}
 8001af2:	e8bd 87f0 	ldmia.w	sp!, {r4, r5, r6, r7, r8, r9, sl, pc}
 8001af6:	bf00      	nop
 8001af8:	40020058 	.word	0x40020058
 8001afc:	40020028 	.word	0x40020028
 8001b00:	40020040 	.word	0x40020040
  if(IS_DMA_DMAMUX_ALL_INSTANCE(hdma->Instance) != 0U) /* No DMAMUX available for BDMA1 */
 8001b04:	4f61      	ldr	r7, [pc, #388]	; (8001c8c <HAL_DMA_Start_IT+0x320>)
 8001b06:	4e62      	ldr	r6, [pc, #392]	; (8001c90 <HAL_DMA_Start_IT+0x324>)
  DMA_Base_Registers  *regs_dma  = (DMA_Base_Registers *)hdma->StreamBaseAddress;
 8001b08:	f8dc a058 	ldr.w	sl, [ip, #88]	; 0x58
  if(IS_DMA_DMAMUX_ALL_INSTANCE(hdma->Instance) != 0U) /* No DMAMUX available for BDMA1 */
 8001b0c:	42b4      	cmp	r4, r6
 8001b0e:	bf18      	it	ne
 8001b10:	42bc      	cmpne	r4, r7
 8001b12:	f106 0628 	add.w	r6, r6, #40	; 0x28
 8001b16:	bf0c      	ite	eq
 8001b18:	2701      	moveq	r7, #1
 8001b1a:	2700      	movne	r7, #0
 8001b1c:	42b4      	cmp	r4, r6
 8001b1e:	bf08      	it	eq
 8001b20:	f047 0701 	orreq.w	r7, r7, #1
 8001b24:	3614      	adds	r6, #20
 8001b26:	42b4      	cmp	r4, r6
 8001b28:	bf08      	it	eq
 8001b2a:	f047 0701 	orreq.w	r7, r7, #1
 8001b2e:	3614      	adds	r6, #20
 8001b30:	42b4      	cmp	r4, r6
 8001b32:	bf08      	it	eq
 8001b34:	f047 0701 	orreq.w	r7, r7, #1
 8001b38:	3614      	adds	r6, #20
 8001b3a:	42b4      	cmp	r4, r6
 8001b3c:	bf08      	it	eq
 8001b3e:	f047 0701 	orreq.w	r7, r7, #1
    __HAL_DMA_DISABLE(hdma);
 8001b42:	6826      	ldr	r6, [r4, #0]
 8001b44:	f026 0601 	bic.w	r6, r6, #1
 8001b48:	6026      	str	r6, [r4, #0]
  if(IS_DMA_DMAMUX_ALL_INSTANCE(hdma->Instance) != 0U) /* No DMAMUX available for BDMA1 */
 8001b4a:	4e52      	ldr	r6, [pc, #328]	; (8001c94 <HAL_DMA_Start_IT+0x328>)
 8001b4c:	42b4      	cmp	r4, r6
 8001b4e:	bf08      	it	eq
 8001b50:	f047 0701 	orreq.w	r7, r7, #1
 8001b54:	b917      	cbnz	r7, 8001b5c <HAL_DMA_Start_IT+0x1f0>
 8001b56:	4f50      	ldr	r7, [pc, #320]	; (8001c98 <HAL_DMA_Start_IT+0x32c>)
 8001b58:	42bc      	cmp	r4, r7
 8001b5a:	d10b      	bne.n	8001b74 <HAL_DMA_Start_IT+0x208>
    hdma->DMAmuxChannelStatus->CFR = hdma->DMAmuxChannelStatusMask;
 8001b5c:	e9dc 6719 	ldrd	r6, r7, [ip, #100]	; 0x64
 8001b60:	6077      	str	r7, [r6, #4]
    if(hdma->DMAmuxRequestGen != 0U)
 8001b62:	f8dc 706c 	ldr.w	r7, [ip, #108]	; 0x6c
 8001b66:	b117      	cbz	r7, 8001b6e <HAL_DMA_Start_IT+0x202>
      hdma->DMAmuxRequestGenStatus->RGCFR = hdma->DMAmuxRequestGenStatusMask;
 8001b68:	e9dc 061c 	ldrd	r0, r6, [ip, #112]	; 0x70
 8001b6c:	6046      	str	r6, [r0, #4]
  if(IS_DMA_STREAM_INSTANCE(hdma->Instance) != 0U) /* DMA1 or DMA2 instance */
 8001b6e:	f1b9 0f00 	cmp.w	r9, #0
 8001b72:	d183      	bne.n	8001a7c <HAL_DMA_Start_IT+0x110>
  else if(IS_BDMA_CHANNEL_INSTANCE(hdma->Instance) != 0U) /* BDMA instance(s) */
 8001b74:	4f46      	ldr	r7, [pc, #280]	; (8001c90 <HAL_DMA_Start_IT+0x324>)
 8001b76:	f8df e114 	ldr.w	lr, [pc, #276]	; 8001c8c <HAL_DMA_Start_IT+0x320>
 8001b7a:	4574      	cmp	r4, lr
 8001b7c:	bf18      	it	ne
 8001b7e:	42bc      	cmpne	r4, r7
 8001b80:	f10e 0e14 	add.w	lr, lr, #20
 8001b84:	bf0c      	ite	eq
 8001b86:	2701      	moveq	r7, #1
 8001b88:	2700      	movne	r7, #0
 8001b8a:	4574      	cmp	r4, lr
 8001b8c:	bf08      	it	eq
 8001b8e:	f047 0701 	orreq.w	r7, r7, #1
 8001b92:	f10e 0e14 	add.w	lr, lr, #20
 8001b96:	4574      	cmp	r4, lr
 8001b98:	bf08      	it	eq
 8001b9a:	f047 0701 	orreq.w	r7, r7, #1
 8001b9e:	f10e 0e14 	add.w	lr, lr, #20
 8001ba2:	4574      	cmp	r4, lr
 8001ba4:	bf08      	it	eq
 8001ba6:	f047 0701 	orreq.w	r7, r7, #1
 8001baa:	f10e 0e14 	add.w	lr, lr, #20
 8001bae:	4574      	cmp	r4, lr
 8001bb0:	bf08      	it	eq
 8001bb2:	f047 0701 	orreq.w	r7, r7, #1
 8001bb6:	f10e 0e14 	add.w	lr, lr, #20
 8001bba:	4574      	cmp	r4, lr
 8001bbc:	bf08      	it	eq
 8001bbe:	f047 0701 	orreq.w	r7, r7, #1
 8001bc2:	b917      	cbnz	r7, 8001bca <HAL_DMA_Start_IT+0x25e>
 8001bc4:	4f34      	ldr	r7, [pc, #208]	; (8001c98 <HAL_DMA_Start_IT+0x32c>)
 8001bc6:	42bc      	cmp	r4, r7
 8001bc8:	d154      	bne.n	8001c74 <HAL_DMA_Start_IT+0x308>
    regs_bdma->IFCR = (BDMA_ISR_GIF0) << (hdma->StreamIndex & 0x1FU);
 8001bca:	f8dc 005c 	ldr.w	r0, [ip, #92]	; 0x5c
 8001bce:	2701      	movs	r7, #1
 8001bd0:	f000 0e1f 	and.w	lr, r0, #31
 8001bd4:	fa07 f70e 	lsl.w	r7, r7, lr
 8001bd8:	f8ca 7004 	str.w	r7, [sl, #4]
    ((BDMA_Channel_TypeDef *)hdma->Instance)->CNDTR = DataLength;
 8001bdc:	6063      	str	r3, [r4, #4]
    if((hdma->Init.Direction) == DMA_MEMORY_TO_PERIPH)
 8001bde:	f8dc 3008 	ldr.w	r3, [ip, #8]
 8001be2:	2b40      	cmp	r3, #64	; 0x40
 8001be4:	d043      	beq.n	8001c6e <HAL_DMA_Start_IT+0x302>
      ((BDMA_Channel_TypeDef *)hdma->Instance)->CPAR = SrcAddress;
 8001be6:	60a1      	str	r1, [r4, #8]
      ((BDMA_Channel_TypeDef *)hdma->Instance)->CM0AR = DstAddress;
 8001be8:	60e2      	str	r2, [r4, #12]
      MODIFY_REG(((BDMA_Channel_TypeDef   *)hdma->Instance)->CCR, (BDMA_CCR_TCIE | BDMA_CCR_HTIE | BDMA_CCR_TEIE), (BDMA_CCR_TCIE | BDMA_CCR_TEIE));
 8001bea:	6823      	ldr	r3, [r4, #0]
 8001bec:	f023 030e 	bic.w	r3, r3, #14
 8001bf0:	f043 030a 	orr.w	r3, r3, #10
 8001bf4:	6023      	str	r3, [r4, #0]
      if(hdma->XferHalfCpltCallback != NULL)
 8001bf6:	f8dc 3040 	ldr.w	r3, [ip, #64]	; 0x40
 8001bfa:	2b00      	cmp	r3, #0
 8001bfc:	d02d      	beq.n	8001c5a <HAL_DMA_Start_IT+0x2ee>
        ((BDMA_Channel_TypeDef   *)hdma->Instance)->CCR  |= BDMA_CCR_HTIE;
 8001bfe:	6823      	ldr	r3, [r4, #0]
 8001c00:	f043 0304 	orr.w	r3, r3, #4
 8001c04:	6023      	str	r3, [r4, #0]
    if(IS_DMA_DMAMUX_ALL_INSTANCE(hdma->Instance) != 0U) /* No DMAMUX available for BDMA1 */
 8001c06:	4b21      	ldr	r3, [pc, #132]	; (8001c8c <HAL_DMA_Start_IT+0x320>)
 8001c08:	4a21      	ldr	r2, [pc, #132]	; (8001c90 <HAL_DMA_Start_IT+0x324>)
 8001c0a:	4294      	cmp	r4, r2
 8001c0c:	bf18      	it	ne
 8001c0e:	429c      	cmpne	r4, r3
 8001c10:	f102 0228 	add.w	r2, r2, #40	; 0x28
 8001c14:	bf0c      	ite	eq
 8001c16:	2301      	moveq	r3, #1
 8001c18:	2300      	movne	r3, #0
 8001c1a:	4294      	cmp	r4, r2
 8001c1c:	bf08      	it	eq
 8001c1e:	f043 0301 	orreq.w	r3, r3, #1
 8001c22:	3214      	adds	r2, #20
 8001c24:	4294      	cmp	r4, r2
 8001c26:	bf08      	it	eq
 8001c28:	f043 0301 	orreq.w	r3, r3, #1
 8001c2c:	3214      	adds	r2, #20
 8001c2e:	4294      	cmp	r4, r2
 8001c30:	bf08      	it	eq
 8001c32:	f043 0301 	orreq.w	r3, r3, #1
 8001c36:	3214      	adds	r2, #20
 8001c38:	4294      	cmp	r4, r2
 8001c3a:	bf08      	it	eq
 8001c3c:	f043 0301 	orreq.w	r3, r3, #1
 8001c40:	3214      	adds	r2, #20
 8001c42:	4294      	cmp	r4, r2
 8001c44:	bf08      	it	eq
 8001c46:	f043 0301 	orreq.w	r3, r3, #1
 8001c4a:	3214      	adds	r2, #20
 8001c4c:	4294      	cmp	r4, r2
 8001c4e:	bf08      	it	eq
 8001c50:	f043 0301 	orreq.w	r3, r3, #1
 8001c54:	2b00      	cmp	r3, #0
 8001c56:	f43f af47 	beq.w	8001ae8 <HAL_DMA_Start_IT+0x17c>
 8001c5a:	f8dc 706c 	ldr.w	r7, [ip, #108]	; 0x6c
 8001c5e:	e735      	b.n	8001acc <HAL_DMA_Start_IT+0x160>
    return HAL_ERROR;
 8001c60:	2001      	movs	r0, #1
 8001c62:	4770      	bx	lr
  __HAL_LOCK(hdma);
 8001c64:	2002      	movs	r0, #2
}
 8001c66:	4770      	bx	lr
      ((DMA_Stream_TypeDef *)hdma->Instance)->PAR = DstAddress;
 8001c68:	60a2      	str	r2, [r4, #8]
      ((DMA_Stream_TypeDef *)hdma->Instance)->M0AR = SrcAddress;
 8001c6a:	60e1      	str	r1, [r4, #12]
 8001c6c:	e71c      	b.n	8001aa8 <HAL_DMA_Start_IT+0x13c>
      ((BDMA_Channel_TypeDef *)hdma->Instance)->CPAR = DstAddress;
 8001c6e:	60a2      	str	r2, [r4, #8]
      ((BDMA_Channel_TypeDef *)hdma->Instance)->CM0AR = SrcAddress;
 8001c70:	60e1      	str	r1, [r4, #12]
 8001c72:	e7ba      	b.n	8001bea <HAL_DMA_Start_IT+0x27e>
      MODIFY_REG(((BDMA_Channel_TypeDef   *)hdma->Instance)->CCR, (BDMA_CCR_TCIE | BDMA_CCR_HTIE | BDMA_CCR_TEIE), (BDMA_CCR_TCIE | BDMA_CCR_TEIE));
 8001c74:	6823      	ldr	r3, [r4, #0]
 8001c76:	f023 030e 	bic.w	r3, r3, #14
 8001c7a:	f043 030a 	orr.w	r3, r3, #10
 8001c7e:	6023      	str	r3, [r4, #0]
      if(hdma->XferHalfCpltCallback != NULL)
 8001c80:	f8dc 3040 	ldr.w	r3, [ip, #64]	; 0x40
 8001c84:	2b00      	cmp	r3, #0
 8001c86:	d1ba      	bne.n	8001bfe <HAL_DMA_Start_IT+0x292>
 8001c88:	e7bd      	b.n	8001c06 <HAL_DMA_Start_IT+0x29a>
 8001c8a:	bf00      	nop
 8001c8c:	5802541c 	.word	0x5802541c
 8001c90:	58025408 	.word	0x58025408
 8001c94:	58025480 	.word	0x58025480
 8001c98:	58025494 	.word	0x58025494

08001c9c <HAL_DMA_IRQHandler>:
{
 8001c9c:	e92d 41f0 	stmdb	sp!, {r4, r5, r6, r7, r8, lr}
  __IO uint32_t count = 0U;
 8001ca0:	2200      	movs	r2, #0
  uint32_t timeout = SystemCoreClock / 9600U;
 8001ca2:	4b9e      	ldr	r3, [pc, #632]	; (8001f1c <HAL_DMA_IRQHandler+0x280>)
{
 8001ca4:	b082      	sub	sp, #8
  DMA_Base_Registers  *regs_dma  = (DMA_Base_Registers *)hdma->StreamBaseAddress;
 8001ca6:	6d84      	ldr	r4, [r0, #88]	; 0x58
{
 8001ca8:	4606      	mov	r6, r0
  uint32_t timeout = SystemCoreClock / 9600U;
 8001caa:	681d      	ldr	r5, [r3, #0]
  __IO uint32_t count = 0U;
 8001cac:	9201      	str	r2, [sp, #4]
  if(IS_DMA_STREAM_INSTANCE(hdma->Instance) != 0U)  /* DMA1 or DMA2 instance */
 8001cae:	6803      	ldr	r3, [r0, #0]
 8001cb0:	4a9b      	ldr	r2, [pc, #620]	; (8001f20 <HAL_DMA_IRQHandler+0x284>)
 8001cb2:	489c      	ldr	r0, [pc, #624]	; (8001f24 <HAL_DMA_IRQHandler+0x288>)
  tmpisr_dma  = regs_dma->ISR;
 8001cb4:	6827      	ldr	r7, [r4, #0]
  if(IS_DMA_STREAM_INSTANCE(hdma->Instance) != 0U)  /* DMA1 or DMA2 instance */
 8001cb6:	4293      	cmp	r3, r2
 8001cb8:	bf18      	it	ne
 8001cba:	4283      	cmpne	r3, r0
  tmpisr_bdma = regs_bdma->ISR;
 8001cbc:	6821      	ldr	r1, [r4, #0]
  if(IS_DMA_STREAM_INSTANCE(hdma->Instance) != 0U)  /* DMA1 or DMA2 instance */
 8001cbe:	bf0c      	ite	eq
 8001cc0:	2001      	moveq	r0, #1
 8001cc2:	2000      	movne	r0, #0
 8001cc4:	d04f      	beq.n	8001d66 <HAL_DMA_IRQHandler+0xca>
 8001cc6:	3218      	adds	r2, #24
 8001cc8:	f8df c260 	ldr.w	ip, [pc, #608]	; 8001f2c <HAL_DMA_IRQHandler+0x290>
 8001ccc:	4563      	cmp	r3, ip
 8001cce:	bf18      	it	ne
 8001cd0:	4293      	cmpne	r3, r2
 8001cd2:	f10c 0c18 	add.w	ip, ip, #24
 8001cd6:	bf0c      	ite	eq
 8001cd8:	2201      	moveq	r2, #1
 8001cda:	2200      	movne	r2, #0
 8001cdc:	4563      	cmp	r3, ip
 8001cde:	bf08      	it	eq
 8001ce0:	f042 0201 	orreq.w	r2, r2, #1
 8001ce4:	f10c 0c18 	add.w	ip, ip, #24
 8001ce8:	4563      	cmp	r3, ip
 8001cea:	bf08      	it	eq
 8001cec:	f042 0201 	orreq.w	r2, r2, #1
 8001cf0:	f10c 0c18 	add.w	ip, ip, #24
 8001cf4:	4563      	cmp	r3, ip
 8001cf6:	bf08      	it	eq
 8001cf8:	f042 0201 	orreq.w	r2, r2, #1
 8001cfc:	f10c 0c18 	add.w	ip, ip, #24
 8001d00:	4563      	cmp	r3, ip
 8001d02:	bf08      	it	eq
 8001d04:	f042 0201 	orreq.w	r2, r2, #1
 8001d08:	f50c 7c56 	add.w	ip, ip, #856	; 0x358
 8001d0c:	4563      	cmp	r3, ip
 8001d0e:	bf08      	it	eq
 8001d10:	f042 0201 	orreq.w	r2, r2, #1
 8001d14:	f10c 0c18 	add.w	ip, ip, #24
 8001d18:	4563      	cmp	r3, ip
 8001d1a:	bf08      	it	eq
 8001d1c:	f042 0201 	orreq.w	r2, r2, #1
 8001d20:	f10c 0c18 	add.w	ip, ip, #24
 8001d24:	4563      	cmp	r3, ip
 8001d26:	bf08      	it	eq
 8001d28:	f042 0201 	orreq.w	r2, r2, #1
 8001d2c:	f10c 0c18 	add.w	ip, ip, #24
 8001d30:	4563      	cmp	r3, ip
 8001d32:	bf08      	it	eq
 8001d34:	f042 0201 	orreq.w	r2, r2, #1
 8001d38:	f10c 0c18 	add.w	ip, ip, #24
 8001d3c:	4563      	cmp	r3, ip
 8001d3e:	bf08      	it	eq
 8001d40:	f042 0201 	orreq.w	r2, r2, #1
 8001d44:	f10c 0c18 	add.w	ip, ip, #24
 8001d48:	4563      	cmp	r3, ip
 8001d4a:	bf08      	it	eq
 8001d4c:	f042 0201 	orreq.w	r2, r2, #1
 8001d50:	f10c 0c18 	add.w	ip, ip, #24
 8001d54:	4563      	cmp	r3, ip
 8001d56:	bf08      	it	eq
 8001d58:	f042 0201 	orreq.w	r2, r2, #1
 8001d5c:	b91a      	cbnz	r2, 8001d66 <HAL_DMA_IRQHandler+0xca>
 8001d5e:	4a72      	ldr	r2, [pc, #456]	; (8001f28 <HAL_DMA_IRQHandler+0x28c>)
 8001d60:	4293      	cmp	r3, r2
 8001d62:	f040 824b 	bne.w	80021fc <HAL_DMA_IRQHandler+0x560>
    if ((tmpisr_dma & (DMA_FLAG_TEIF0_4 << (hdma->StreamIndex & 0x1FU))) != 0U)
 8001d66:	6df1      	ldr	r1, [r6, #92]	; 0x5c
 8001d68:	2208      	movs	r2, #8
 8001d6a:	f001 0c1f 	and.w	ip, r1, #31
 8001d6e:	fa02 f20c 	lsl.w	r2, r2, ip
 8001d72:	4217      	tst	r7, r2
 8001d74:	f040 817d 	bne.w	8002072 <HAL_DMA_IRQHandler+0x3d6>
    if ((tmpisr_dma & (DMA_FLAG_FEIF0_4 << (hdma->StreamIndex & 0x1FU))) != 0U)
 8001d78:	fa27 f20c 	lsr.w	r2, r7, ip
 8001d7c:	07d2      	lsls	r2, r2, #31
 8001d7e:	d50a      	bpl.n	8001d96 <HAL_DMA_IRQHandler+0xfa>
      if(__HAL_DMA_GET_IT_SOURCE(hdma, DMA_IT_FE) != 0U)
 8001d80:	695a      	ldr	r2, [r3, #20]
 8001d82:	0612      	lsls	r2, r2, #24
 8001d84:	d507      	bpl.n	8001d96 <HAL_DMA_IRQHandler+0xfa>
        regs_dma->IFCR = DMA_FLAG_FEIF0_4 << (hdma->StreamIndex & 0x1FU);
 8001d86:	2201      	movs	r2, #1
 8001d88:	fa02 f20c 	lsl.w	r2, r2, ip
 8001d8c:	60a2      	str	r2, [r4, #8]
        hdma->ErrorCode |= HAL_DMA_ERROR_FE;
 8001d8e:	6d72      	ldr	r2, [r6, #84]	; 0x54
 8001d90:	f042 0202 	orr.w	r2, r2, #2
 8001d94:	6572      	str	r2, [r6, #84]	; 0x54
    if ((tmpisr_dma & (DMA_FLAG_DMEIF0_4 << (hdma->StreamIndex & 0x1FU))) != 0U)
 8001d96:	f04f 0e04 	mov.w	lr, #4
 8001d9a:	fa0e fe0c 	lsl.w	lr, lr, ip
 8001d9e:	ea1e 0f07 	tst.w	lr, r7
 8001da2:	d05a      	beq.n	8001e5a <HAL_DMA_IRQHandler+0x1be>
      if(__HAL_DMA_GET_IT_SOURCE(hdma, DMA_IT_DME) != 0U)
 8001da4:	2800      	cmp	r0, #0
 8001da6:	d14f      	bne.n	8001e48 <HAL_DMA_IRQHandler+0x1ac>
 8001da8:	4a60      	ldr	r2, [pc, #384]	; (8001f2c <HAL_DMA_IRQHandler+0x290>)
 8001daa:	f8df 8184 	ldr.w	r8, [pc, #388]	; 8001f30 <HAL_DMA_IRQHandler+0x294>
 8001dae:	4543      	cmp	r3, r8
 8001db0:	bf18      	it	ne
 8001db2:	4293      	cmpne	r3, r2
 8001db4:	f108 0830 	add.w	r8, r8, #48	; 0x30
 8001db8:	bf0c      	ite	eq
 8001dba:	2201      	moveq	r2, #1
 8001dbc:	2200      	movne	r2, #0
 8001dbe:	4543      	cmp	r3, r8
 8001dc0:	bf08      	it	eq
 8001dc2:	f042 0201 	orreq.w	r2, r2, #1
 8001dc6:	f108 0818 	add.w	r8, r8, #24
 8001dca:	4543      	cmp	r3, r8
 8001dcc:	bf08      	it	eq
 8001dce:	f042 0201 	orreq.w	r2, r2, #1
 8001dd2:	f108 0818 	add.w	r8, r8, #24
 8001dd6:	4543      	cmp	r3, r8
 8001dd8:	bf08      	it	eq
 8001dda:	f042 0201 	orreq.w	r2, r2, #1
 8001dde:	f108 0818 	add.w	r8, r8, #24
 8001de2:	4543      	cmp	r3, r8
 8001de4:	bf08      	it	eq
 8001de6:	f042 0201 	orreq.w	r2, r2, #1
 8001dea:	f508 7856 	add.w	r8, r8, #856	; 0x358
 8001dee:	4543      	cmp	r3, r8
 8001df0:	bf08      	it	eq
 8001df2:	f042 0201 	orreq.w	r2, r2, #1
 8001df6:	f108 0818 	add.w	r8, r8, #24
 8001dfa:	4543      	cmp	r3, r8
 8001dfc:	bf08      	it	eq
 8001dfe:	f042 0201 	orreq.w	r2, r2, #1
 8001e02:	f108 0818 	add.w	r8, r8, #24
 8001e06:	4543      	cmp	r3, r8
 8001e08:	bf08      	it	eq
 8001e0a:	f042 0201 	orreq.w	r2, r2, #1
 8001e0e:	f108 0818 	add.w	r8, r8, #24
 8001e12:	4543      	cmp	r3, r8
 8001e14:	bf08      	it	eq
 8001e16:	f042 0201 	orreq.w	r2, r2, #1
 8001e1a:	f108 0818 	add.w	r8, r8, #24
 8001e1e:	4543      	cmp	r3, r8
 8001e20:	bf08      	it	eq
 8001e22:	f042 0201 	orreq.w	r2, r2, #1
 8001e26:	f108 0818 	add.w	r8, r8, #24
 8001e2a:	4543      	cmp	r3, r8
 8001e2c:	bf08      	it	eq
 8001e2e:	f042 0201 	orreq.w	r2, r2, #1
 8001e32:	f108 0818 	add.w	r8, r8, #24
 8001e36:	4543      	cmp	r3, r8
 8001e38:	bf08      	it	eq
 8001e3a:	f042 0201 	orreq.w	r2, r2, #1
 8001e3e:	b91a      	cbnz	r2, 8001e48 <HAL_DMA_IRQHandler+0x1ac>
 8001e40:	4a39      	ldr	r2, [pc, #228]	; (8001f28 <HAL_DMA_IRQHandler+0x28c>)
 8001e42:	4293      	cmp	r3, r2
 8001e44:	f040 8214 	bne.w	8002270 <HAL_DMA_IRQHandler+0x5d4>
 8001e48:	681a      	ldr	r2, [r3, #0]
 8001e4a:	0792      	lsls	r2, r2, #30
 8001e4c:	d505      	bpl.n	8001e5a <HAL_DMA_IRQHandler+0x1be>
        regs_dma->IFCR = DMA_FLAG_DMEIF0_4 << (hdma->StreamIndex & 0x1FU);
 8001e4e:	f8c4 e008 	str.w	lr, [r4, #8]
        hdma->ErrorCode |= HAL_DMA_ERROR_DME;
 8001e52:	6d72      	ldr	r2, [r6, #84]	; 0x54
 8001e54:	f042 0204 	orr.w	r2, r2, #4
 8001e58:	6572      	str	r2, [r6, #84]	; 0x54
    if ((tmpisr_dma & (DMA_FLAG_HTIF0_4 << (hdma->StreamIndex & 0x1FU))) != 0U)
 8001e5a:	2210      	movs	r2, #16
 8001e5c:	fa02 fc0c 	lsl.w	ip, r2, ip
 8001e60:	ea1c 0f07 	tst.w	ip, r7
 8001e64:	d069      	beq.n	8001f3a <HAL_DMA_IRQHandler+0x29e>
      if(__HAL_DMA_GET_IT_SOURCE(hdma, DMA_IT_HT) != 0U)
 8001e66:	2800      	cmp	r0, #0
 8001e68:	d145      	bne.n	8001ef6 <HAL_DMA_IRQHandler+0x25a>
 8001e6a:	4a30      	ldr	r2, [pc, #192]	; (8001f2c <HAL_DMA_IRQHandler+0x290>)
 8001e6c:	4830      	ldr	r0, [pc, #192]	; (8001f30 <HAL_DMA_IRQHandler+0x294>)
 8001e6e:	4283      	cmp	r3, r0
 8001e70:	bf18      	it	ne
 8001e72:	4293      	cmpne	r3, r2
 8001e74:	f100 0030 	add.w	r0, r0, #48	; 0x30
 8001e78:	bf0c      	ite	eq
 8001e7a:	2201      	moveq	r2, #1
 8001e7c:	2200      	movne	r2, #0
 8001e7e:	4283      	cmp	r3, r0
 8001e80:	bf08      	it	eq
 8001e82:	f042 0201 	orreq.w	r2, r2, #1
 8001e86:	3018      	adds	r0, #24
 8001e88:	4283      	cmp	r3, r0
 8001e8a:	bf08      	it	eq
 8001e8c:	f042 0201 	orreq.w	r2, r2, #1
 8001e90:	3018      	adds	r0, #24
 8001e92:	4283      	cmp	r3, r0
 8001e94:	bf08      	it	eq
 8001e96:	f042 0201 	orreq.w	r2, r2, #1
 8001e9a:	3018      	adds	r0, #24
 8001e9c:	4283      	cmp	r3, r0
 8001e9e:	bf08      	it	eq
 8001ea0:	f042 0201 	orreq.w	r2, r2, #1
 8001ea4:	f500 7056 	add.w	r0, r0, #856	; 0x358
 8001ea8:	4283      	cmp	r3, r0
 8001eaa:	bf08      	it	eq
 8001eac:	f042 0201 	orreq.w	r2, r2, #1
 8001eb0:	3018      	adds	r0, #24
 8001eb2:	4283      	cmp	r3, r0
 8001eb4:	bf08      	it	eq
 8001eb6:	f042 0201 	orreq.w	r2, r2, #1
 8001eba:	3018      	adds	r0, #24
 8001ebc:	4283      	cmp	r3, r0
 8001ebe:	bf08      	it	eq
 8001ec0:	f042 0201 	orreq.w	r2, r2, #1
 8001ec4:	3018      	adds	r0, #24
 8001ec6:	4283      	cmp	r3, r0
 8001ec8:	bf08      	it	eq
 8001eca:	f042 0201 	orreq.w	r2, r2, #1
 8001ece:	3018      	adds	r0, #24
 8001ed0:	4283      	cmp	r3, r0
 8001ed2:	bf08      	it	eq
 8001ed4:	f042 0201 	orreq.w	r2, r2, #1
 8001ed8:	3018      	adds	r0, #24
 8001eda:	4283      	cmp	r3, r0
 8001edc:	bf08      	it	eq
 8001ede:	f042 0201 	orreq.w	r2, r2, #1
 8001ee2:	3018      	adds	r0, #24
 8001ee4:	4283      	cmp	r3, r0
 8001ee6:	bf08      	it	eq
 8001ee8:	f042 0201 	orreq.w	r2, r2, #1
 8001eec:	b91a      	cbnz	r2, 8001ef6 <HAL_DMA_IRQHandler+0x25a>
 8001eee:	4a0e      	ldr	r2, [pc, #56]	; (8001f28 <HAL_DMA_IRQHandler+0x28c>)
 8001ef0:	4293      	cmp	r3, r2
 8001ef2:	f040 81c5 	bne.w	8002280 <HAL_DMA_IRQHandler+0x5e4>
 8001ef6:	681a      	ldr	r2, [r3, #0]
 8001ef8:	0712      	lsls	r2, r2, #28
 8001efa:	d51e      	bpl.n	8001f3a <HAL_DMA_IRQHandler+0x29e>
        regs_dma->IFCR = DMA_FLAG_HTIF0_4 << (hdma->StreamIndex & 0x1FU);
 8001efc:	f8c4 c008 	str.w	ip, [r4, #8]
        if(((((DMA_Stream_TypeDef   *)hdma->Instance)->CR) & (uint32_t)(DMA_SxCR_DBM)) != 0U)
 8001f00:	681a      	ldr	r2, [r3, #0]
 8001f02:	0352      	lsls	r2, r2, #13
 8001f04:	f100 814e 	bmi.w	80021a4 <HAL_DMA_IRQHandler+0x508>
          if((((DMA_Stream_TypeDef   *)hdma->Instance)->CR & DMA_SxCR_CIRC) == 0U)
 8001f08:	681a      	ldr	r2, [r3, #0]
 8001f0a:	05d2      	lsls	r2, r2, #23
 8001f0c:	d403      	bmi.n	8001f16 <HAL_DMA_IRQHandler+0x27a>
            ((DMA_Stream_TypeDef   *)hdma->Instance)->CR  &= ~(DMA_IT_HT);
 8001f0e:	681a      	ldr	r2, [r3, #0]
 8001f10:	f022 0208 	bic.w	r2, r2, #8
 8001f14:	601a      	str	r2, [r3, #0]
          if(hdma->XferHalfCpltCallback != NULL)
 8001f16:	6c33      	ldr	r3, [r6, #64]	; 0x40
 8001f18:	b17b      	cbz	r3, 8001f3a <HAL_DMA_IRQHandler+0x29e>
 8001f1a:	e00b      	b.n	8001f34 <HAL_DMA_IRQHandler+0x298>
 8001f1c:	24000000 	.word	0x24000000
 8001f20:	40020028 	.word	0x40020028
 8001f24:	40020010 	.word	0x40020010
 8001f28:	400204b8 	.word	0x400204b8
 8001f2c:	40020058 	.word	0x40020058
 8001f30:	40020040 	.word	0x40020040
            hdma->XferHalfCpltCallback(hdma);
 8001f34:	4630      	mov	r0, r6
 8001f36:	4798      	blx	r3
 8001f38:	6df1      	ldr	r1, [r6, #92]	; 0x5c
    if ((tmpisr_dma & (DMA_FLAG_TCIF0_4 << (hdma->StreamIndex & 0x1FU))) != 0U)
 8001f3a:	f001 011f 	and.w	r1, r1, #31
 8001f3e:	2020      	movs	r0, #32
 8001f40:	4088      	lsls	r0, r1
 8001f42:	4238      	tst	r0, r7
 8001f44:	d066      	beq.n	8002014 <HAL_DMA_IRQHandler+0x378>
      if(__HAL_DMA_GET_IT_SOURCE(hdma, DMA_IT_TC) != 0U)
 8001f46:	6832      	ldr	r2, [r6, #0]
 8001f48:	4ba4      	ldr	r3, [pc, #656]	; (80021dc <HAL_DMA_IRQHandler+0x540>)
 8001f4a:	4fa5      	ldr	r7, [pc, #660]	; (80021e0 <HAL_DMA_IRQHandler+0x544>)
 8001f4c:	42ba      	cmp	r2, r7
 8001f4e:	bf18      	it	ne
 8001f50:	429a      	cmpne	r2, r3
 8001f52:	f107 0718 	add.w	r7, r7, #24
 8001f56:	bf0c      	ite	eq
 8001f58:	2301      	moveq	r3, #1
 8001f5a:	2300      	movne	r3, #0
 8001f5c:	42ba      	cmp	r2, r7
 8001f5e:	bf08      	it	eq
 8001f60:	f043 0301 	orreq.w	r3, r3, #1
 8001f64:	3718      	adds	r7, #24
 8001f66:	42ba      	cmp	r2, r7
 8001f68:	bf08      	it	eq
 8001f6a:	f043 0301 	orreq.w	r3, r3, #1
 8001f6e:	3718      	adds	r7, #24
 8001f70:	42ba      	cmp	r2, r7
 8001f72:	bf08      	it	eq
 8001f74:	f043 0301 	orreq.w	r3, r3, #1
 8001f78:	3718      	adds	r7, #24
 8001f7a:	42ba      	cmp	r2, r7
 8001f7c:	bf08      	it	eq
 8001f7e:	f043 0301 	orreq.w	r3, r3, #1
 8001f82:	3718      	adds	r7, #24
 8001f84:	42ba      	cmp	r2, r7
 8001f86:	bf08      	it	eq
 8001f88:	f043 0301 	orreq.w	r3, r3, #1
 8001f8c:	3718      	adds	r7, #24
 8001f8e:	42ba      	cmp	r2, r7
 8001f90:	bf08      	it	eq
 8001f92:	f043 0301 	orreq.w	r3, r3, #1
 8001f96:	f507 7756 	add.w	r7, r7, #856	; 0x358
 8001f9a:	42ba      	cmp	r2, r7
 8001f9c:	bf08      	it	eq
 8001f9e:	f043 0301 	orreq.w	r3, r3, #1
 8001fa2:	3718      	adds	r7, #24
 8001fa4:	42ba      	cmp	r2, r7
 8001fa6:	bf08      	it	eq
 8001fa8:	f043 0301 	orreq.w	r3, r3, #1
 8001fac:	3718      	adds	r7, #24
 8001fae:	42ba      	cmp	r2, r7
 8001fb0:	bf08      	it	eq
 8001fb2:	f043 0301 	orreq.w	r3, r3, #1
 8001fb6:	3718      	adds	r7, #24
 8001fb8:	42ba      	cmp	r2, r7
 8001fba:	bf08      	it	eq
 8001fbc:	f043 0301 	orreq.w	r3, r3, #1
 8001fc0:	3718      	adds	r7, #24
 8001fc2:	42ba      	cmp	r2, r7
 8001fc4:	bf08      	it	eq
 8001fc6:	f043 0301 	orreq.w	r3, r3, #1
 8001fca:	3718      	adds	r7, #24
 8001fcc:	42ba      	cmp	r2, r7
 8001fce:	bf08      	it	eq
 8001fd0:	f043 0301 	orreq.w	r3, r3, #1
 8001fd4:	3718      	adds	r7, #24
 8001fd6:	42ba      	cmp	r2, r7
 8001fd8:	bf08      	it	eq
 8001fda:	f043 0301 	orreq.w	r3, r3, #1
 8001fde:	b91b      	cbnz	r3, 8001fe8 <HAL_DMA_IRQHandler+0x34c>
 8001fe0:	4b80      	ldr	r3, [pc, #512]	; (80021e4 <HAL_DMA_IRQHandler+0x548>)
 8001fe2:	429a      	cmp	r2, r3
 8001fe4:	f040 8161 	bne.w	80022aa <HAL_DMA_IRQHandler+0x60e>
 8001fe8:	6813      	ldr	r3, [r2, #0]
 8001fea:	06df      	lsls	r7, r3, #27
 8001fec:	d512      	bpl.n	8002014 <HAL_DMA_IRQHandler+0x378>
        regs_dma->IFCR = DMA_FLAG_TCIF0_4 << (hdma->StreamIndex & 0x1FU);
 8001fee:	60a0      	str	r0, [r4, #8]
        if(HAL_DMA_STATE_ABORT == hdma->State)
 8001ff0:	f896 3035 	ldrb.w	r3, [r6, #53]	; 0x35
 8001ff4:	2b04      	cmp	r3, #4
          ((DMA_Stream_TypeDef   *)hdma->Instance)->CR  &= ~(DMA_IT_TC | DMA_IT_TE | DMA_IT_DME);
 8001ff6:	6813      	ldr	r3, [r2, #0]
        if(HAL_DMA_STATE_ABORT == hdma->State)
 8001ff8:	f000 80b6 	beq.w	8002168 <HAL_DMA_IRQHandler+0x4cc>
        if(((((DMA_Stream_TypeDef   *)hdma->Instance)->CR) & (uint32_t)(DMA_SxCR_DBM)) != 0U)
 8001ffc:	f413 2f80 	tst.w	r3, #262144	; 0x40000
          if((((DMA_Stream_TypeDef   *)hdma->Instance)->CR & DMA_SxCR_CT) == 0U)
 8002000:	6813      	ldr	r3, [r2, #0]
        if(((((DMA_Stream_TypeDef   *)hdma->Instance)->CR) & (uint32_t)(DMA_SxCR_DBM)) != 0U)
 8002002:	f000 80d8 	beq.w	80021b6 <HAL_DMA_IRQHandler+0x51a>
          if((((DMA_Stream_TypeDef   *)hdma->Instance)->CR & DMA_SxCR_CT) == 0U)
 8002006:	031f      	lsls	r7, r3, #12
 8002008:	f140 80e3 	bpl.w	80021d2 <HAL_DMA_IRQHandler+0x536>
          if(hdma->XferCpltCallback != NULL)
 800200c:	6bf3      	ldr	r3, [r6, #60]	; 0x3c
 800200e:	b10b      	cbz	r3, 8002014 <HAL_DMA_IRQHandler+0x378>
            hdma->XferCpltCallback(hdma);
 8002010:	4630      	mov	r0, r6
 8002012:	4798      	blx	r3
    if(hdma->ErrorCode != HAL_DMA_ERROR_NONE)
 8002014:	6d73      	ldr	r3, [r6, #84]	; 0x54
 8002016:	2b00      	cmp	r3, #0
 8002018:	f000 80c1 	beq.w	800219e <HAL_DMA_IRQHandler+0x502>
      if((hdma->ErrorCode & HAL_DMA_ERROR_TE) != 0U)
 800201c:	6d73      	ldr	r3, [r6, #84]	; 0x54
 800201e:	07dc      	lsls	r4, r3, #31
 8002020:	d51e      	bpl.n	8002060 <HAL_DMA_IRQHandler+0x3c4>
        __HAL_DMA_DISABLE(hdma);
 8002022:	6832      	ldr	r2, [r6, #0]
        hdma->State = HAL_DMA_STATE_ABORT;
 8002024:	2104      	movs	r1, #4
 8002026:	f886 1035 	strb.w	r1, [r6, #53]	; 0x35
  uint32_t timeout = SystemCoreClock / 9600U;
 800202a:	496f      	ldr	r1, [pc, #444]	; (80021e8 <HAL_DMA_IRQHandler+0x54c>)
        __HAL_DMA_DISABLE(hdma);
 800202c:	6813      	ldr	r3, [r2, #0]
  uint32_t timeout = SystemCoreClock / 9600U;
 800202e:	fba1 5105 	umull	r5, r1, r1, r5
        __HAL_DMA_DISABLE(hdma);
 8002032:	f023 0301 	bic.w	r3, r3, #1
  uint32_t timeout = SystemCoreClock / 9600U;
 8002036:	0a89      	lsrs	r1, r1, #10
        __HAL_DMA_DISABLE(hdma);
 8002038:	6013      	str	r3, [r2, #0]
 800203a:	e002      	b.n	8002042 <HAL_DMA_IRQHandler+0x3a6>
        while((((DMA_Stream_TypeDef   *)hdma->Instance)->CR & DMA_SxCR_EN) != 0U);
 800203c:	6813      	ldr	r3, [r2, #0]
 800203e:	07d8      	lsls	r0, r3, #31
 8002040:	d504      	bpl.n	800204c <HAL_DMA_IRQHandler+0x3b0>
          if (++count > timeout)
 8002042:	9b01      	ldr	r3, [sp, #4]
 8002044:	3301      	adds	r3, #1
 8002046:	428b      	cmp	r3, r1
 8002048:	9301      	str	r3, [sp, #4]
 800204a:	d9f7      	bls.n	800203c <HAL_DMA_IRQHandler+0x3a0>
        if((((DMA_Stream_TypeDef   *)hdma->Instance)->CR & DMA_SxCR_EN) != 0U)
 800204c:	6813      	ldr	r3, [r2, #0]
 800204e:	07db      	lsls	r3, r3, #31
          hdma->State = HAL_DMA_STATE_ERROR;
 8002050:	bf4c      	ite	mi
 8002052:	2303      	movmi	r3, #3
          hdma->State = HAL_DMA_STATE_READY;
 8002054:	2301      	movpl	r3, #1
 8002056:	f886 3035 	strb.w	r3, [r6, #53]	; 0x35
        __HAL_UNLOCK(hdma);
 800205a:	2300      	movs	r3, #0
 800205c:	f886 3034 	strb.w	r3, [r6, #52]	; 0x34
      if(hdma->XferErrorCallback != NULL)
 8002060:	6cf3      	ldr	r3, [r6, #76]	; 0x4c
 8002062:	2b00      	cmp	r3, #0
 8002064:	f000 809b 	beq.w	800219e <HAL_DMA_IRQHandler+0x502>
          hdma->XferCpltCallback(hdma);
 8002068:	4630      	mov	r0, r6
}
 800206a:	b002      	add	sp, #8
 800206c:	e8bd 41f0 	ldmia.w	sp!, {r4, r5, r6, r7, r8, lr}
          hdma->XferCpltCallback(hdma);
 8002070:	4718      	bx	r3
      if(__HAL_DMA_GET_IT_SOURCE(hdma, DMA_IT_TE) != 0U)
 8002072:	f8d3 e000 	ldr.w	lr, [r3]
 8002076:	f01e 0f04 	tst.w	lr, #4
 800207a:	d00a      	beq.n	8002092 <HAL_DMA_IRQHandler+0x3f6>
        ((DMA_Stream_TypeDef   *)hdma->Instance)->CR  &= ~(DMA_IT_TE);
 800207c:	f8d3 e000 	ldr.w	lr, [r3]
 8002080:	f02e 0e04 	bic.w	lr, lr, #4
 8002084:	f8c3 e000 	str.w	lr, [r3]
        regs_dma->IFCR = DMA_FLAG_TEIF0_4 << (hdma->StreamIndex & 0x1FU);
 8002088:	60a2      	str	r2, [r4, #8]
        hdma->ErrorCode |= HAL_DMA_ERROR_TE;
 800208a:	6d72      	ldr	r2, [r6, #84]	; 0x54
 800208c:	f042 0201 	orr.w	r2, r2, #1
 8002090:	6572      	str	r2, [r6, #84]	; 0x54
    if ((tmpisr_dma & (DMA_FLAG_FEIF0_4 << (hdma->StreamIndex & 0x1FU))) != 0U)
 8002092:	fa27 f20c 	lsr.w	r2, r7, ip
 8002096:	07d2      	lsls	r2, r2, #31
 8002098:	f57f ae7d 	bpl.w	8001d96 <HAL_DMA_IRQHandler+0xfa>
      if(__HAL_DMA_GET_IT_SOURCE(hdma, DMA_IT_FE) != 0U)
 800209c:	4a53      	ldr	r2, [pc, #332]	; (80021ec <HAL_DMA_IRQHandler+0x550>)
 800209e:	f8df e150 	ldr.w	lr, [pc, #336]	; 80021f0 <HAL_DMA_IRQHandler+0x554>
 80020a2:	4573      	cmp	r3, lr
 80020a4:	bf18      	it	ne
 80020a6:	4293      	cmpne	r3, r2
 80020a8:	f10e 0e30 	add.w	lr, lr, #48	; 0x30
 80020ac:	bf0c      	ite	eq
 80020ae:	2201      	moveq	r2, #1
 80020b0:	2200      	movne	r2, #0
 80020b2:	4573      	cmp	r3, lr
 80020b4:	bf08      	it	eq
 80020b6:	f042 0201 	orreq.w	r2, r2, #1
 80020ba:	f10e 0e18 	add.w	lr, lr, #24
 80020be:	4573      	cmp	r3, lr
 80020c0:	bf08      	it	eq
 80020c2:	f042 0201 	orreq.w	r2, r2, #1
 80020c6:	f10e 0e18 	add.w	lr, lr, #24
 80020ca:	4573      	cmp	r3, lr
 80020cc:	bf08      	it	eq
 80020ce:	f042 0201 	orreq.w	r2, r2, #1
 80020d2:	f10e 0e18 	add.w	lr, lr, #24
 80020d6:	4573      	cmp	r3, lr
 80020d8:	bf08      	it	eq
 80020da:	f042 0201 	orreq.w	r2, r2, #1
 80020de:	f50e 7e56 	add.w	lr, lr, #856	; 0x358
 80020e2:	4573      	cmp	r3, lr
 80020e4:	bf08      	it	eq
 80020e6:	f042 0201 	orreq.w	r2, r2, #1
 80020ea:	f10e 0e18 	add.w	lr, lr, #24
 80020ee:	4573      	cmp	r3, lr
 80020f0:	bf08      	it	eq
 80020f2:	f042 0201 	orreq.w	r2, r2, #1
 80020f6:	f10e 0e18 	add.w	lr, lr, #24
 80020fa:	4573      	cmp	r3, lr
 80020fc:	bf08      	it	eq
 80020fe:	f042 0201 	orreq.w	r2, r2, #1
 8002102:	f10e 0e18 	add.w	lr, lr, #24
 8002106:	4573      	cmp	r3, lr
 8002108:	bf08      	it	eq
 800210a:	f042 0201 	orreq.w	r2, r2, #1
 800210e:	f10e 0e18 	add.w	lr, lr, #24
 8002112:	4573      	cmp	r3, lr
 8002114:	bf08      	it	eq
 8002116:	f042 0201 	orreq.w	r2, r2, #1
 800211a:	f10e 0e18 	add.w	lr, lr, #24
 800211e:	4573      	cmp	r3, lr
 8002120:	bf08      	it	eq
 8002122:	f042 0201 	orreq.w	r2, r2, #1
 8002126:	f10e 0e18 	add.w	lr, lr, #24
 800212a:	4573      	cmp	r3, lr
 800212c:	bf08      	it	eq
 800212e:	f042 0201 	orreq.w	r2, r2, #1
 8002132:	f10e 0e18 	add.w	lr, lr, #24
 8002136:	4573      	cmp	r3, lr
 8002138:	bf08      	it	eq
 800213a:	f042 0201 	orreq.w	r2, r2, #1
 800213e:	2a00      	cmp	r2, #0
 8002140:	f47f ae1e 	bne.w	8001d80 <HAL_DMA_IRQHandler+0xe4>
 8002144:	2800      	cmp	r0, #0
 8002146:	f47f ae1b 	bne.w	8001d80 <HAL_DMA_IRQHandler+0xe4>
 800214a:	681a      	ldr	r2, [r3, #0]
    if ((tmpisr_dma & (DMA_FLAG_DMEIF0_4 << (hdma->StreamIndex & 0x1FU))) != 0U)
 800214c:	2204      	movs	r2, #4
 800214e:	fa02 f20c 	lsl.w	r2, r2, ip
 8002152:	423a      	tst	r2, r7
 8002154:	f040 808c 	bne.w	8002270 <HAL_DMA_IRQHandler+0x5d4>
    if ((tmpisr_dma & (DMA_FLAG_HTIF0_4 << (hdma->StreamIndex & 0x1FU))) != 0U)
 8002158:	2210      	movs	r2, #16
 800215a:	fa02 fc0c 	lsl.w	ip, r2, ip
 800215e:	ea17 0f0c 	tst.w	r7, ip
 8002162:	f43f aeea 	beq.w	8001f3a <HAL_DMA_IRQHandler+0x29e>
 8002166:	e680      	b.n	8001e6a <HAL_DMA_IRQHandler+0x1ce>
          ((DMA_Stream_TypeDef   *)hdma->Instance)->CR  &= ~(DMA_IT_TC | DMA_IT_TE | DMA_IT_DME);
 8002168:	f023 0316 	bic.w	r3, r3, #22
 800216c:	6013      	str	r3, [r2, #0]
          ((DMA_Stream_TypeDef   *)hdma->Instance)->FCR &= ~(DMA_IT_FE);
 800216e:	6953      	ldr	r3, [r2, #20]
 8002170:	f023 0380 	bic.w	r3, r3, #128	; 0x80
 8002174:	6153      	str	r3, [r2, #20]
          if((hdma->XferHalfCpltCallback != NULL) || (hdma->XferM1HalfCpltCallback != NULL))
 8002176:	6c33      	ldr	r3, [r6, #64]	; 0x40
 8002178:	2b00      	cmp	r3, #0
 800217a:	d03b      	beq.n	80021f4 <HAL_DMA_IRQHandler+0x558>
            ((DMA_Stream_TypeDef   *)hdma->Instance)->CR  &= ~(DMA_IT_HT);
 800217c:	6813      	ldr	r3, [r2, #0]
 800217e:	f023 0308 	bic.w	r3, r3, #8
 8002182:	6013      	str	r3, [r2, #0]
          regs_dma->IFCR = 0x3FUL << (hdma->StreamIndex & 0x1FU);
 8002184:	233f      	movs	r3, #63	; 0x3f
          hdma->State = HAL_DMA_STATE_READY;
 8002186:	2001      	movs	r0, #1
          __HAL_UNLOCK(hdma);
 8002188:	2200      	movs	r2, #0
          regs_dma->IFCR = 0x3FUL << (hdma->StreamIndex & 0x1FU);
 800218a:	408b      	lsls	r3, r1
 800218c:	60a3      	str	r3, [r4, #8]
          if(hdma->XferAbortCallback != NULL)
 800218e:	6d33      	ldr	r3, [r6, #80]	; 0x50
          hdma->State = HAL_DMA_STATE_READY;
 8002190:	f886 0035 	strb.w	r0, [r6, #53]	; 0x35
          __HAL_UNLOCK(hdma);
 8002194:	f886 2034 	strb.w	r2, [r6, #52]	; 0x34
          if(hdma->XferAbortCallback != NULL)
 8002198:	2b00      	cmp	r3, #0
 800219a:	f47f af65 	bne.w	8002068 <HAL_DMA_IRQHandler+0x3cc>
}
 800219e:	b002      	add	sp, #8
 80021a0:	e8bd 81f0 	ldmia.w	sp!, {r4, r5, r6, r7, r8, pc}
          if((((DMA_Stream_TypeDef   *)hdma->Instance)->CR & DMA_SxCR_CT) == 0U)
 80021a4:	681b      	ldr	r3, [r3, #0]
 80021a6:	0318      	lsls	r0, r3, #12
 80021a8:	f57f aeb5 	bpl.w	8001f16 <HAL_DMA_IRQHandler+0x27a>
            if(hdma->XferM1HalfCpltCallback != NULL)
 80021ac:	6cb3      	ldr	r3, [r6, #72]	; 0x48
 80021ae:	2b00      	cmp	r3, #0
 80021b0:	f47f aec0 	bne.w	8001f34 <HAL_DMA_IRQHandler+0x298>
 80021b4:	e6c1      	b.n	8001f3a <HAL_DMA_IRQHandler+0x29e>
          if((((DMA_Stream_TypeDef   *)hdma->Instance)->CR & DMA_SxCR_CIRC) == 0U)
 80021b6:	f413 7380 	ands.w	r3, r3, #256	; 0x100
 80021ba:	f47f af27 	bne.w	800200c <HAL_DMA_IRQHandler+0x370>
            ((DMA_Stream_TypeDef   *)hdma->Instance)->CR  &= ~(DMA_IT_TC);
 80021be:	6811      	ldr	r1, [r2, #0]
 80021c0:	f021 0110 	bic.w	r1, r1, #16
 80021c4:	6011      	str	r1, [r2, #0]
            hdma->State = HAL_DMA_STATE_READY;
 80021c6:	2201      	movs	r2, #1
            __HAL_UNLOCK(hdma);
 80021c8:	f886 3034 	strb.w	r3, [r6, #52]	; 0x34
            hdma->State = HAL_DMA_STATE_READY;
 80021cc:	f886 2035 	strb.w	r2, [r6, #53]	; 0x35
            __HAL_UNLOCK(hdma);
 80021d0:	e71c      	b.n	800200c <HAL_DMA_IRQHandler+0x370>
            if(hdma->XferM1CpltCallback != NULL)
 80021d2:	6c73      	ldr	r3, [r6, #68]	; 0x44
 80021d4:	2b00      	cmp	r3, #0
 80021d6:	f47f af1b 	bne.w	8002010 <HAL_DMA_IRQHandler+0x374>
 80021da:	e71b      	b.n	8002014 <HAL_DMA_IRQHandler+0x378>
 80021dc:	40020010 	.word	0x40020010
 80021e0:	40020028 	.word	0x40020028
 80021e4:	400204b8 	.word	0x400204b8
 80021e8:	1b4e81b5 	.word	0x1b4e81b5
 80021ec:	40020058 	.word	0x40020058
 80021f0:	40020040 	.word	0x40020040
          if((hdma->XferHalfCpltCallback != NULL) || (hdma->XferM1HalfCpltCallback != NULL))
 80021f4:	6cb3      	ldr	r3, [r6, #72]	; 0x48
 80021f6:	2b00      	cmp	r3, #0
 80021f8:	d1c0      	bne.n	800217c <HAL_DMA_IRQHandler+0x4e0>
 80021fa:	e7c3      	b.n	8002184 <HAL_DMA_IRQHandler+0x4e8>
  else if(IS_BDMA_CHANNEL_INSTANCE(hdma->Instance) != 0U)  /* BDMA instance(s) */
 80021fc:	4a4b      	ldr	r2, [pc, #300]	; (800232c <HAL_DMA_IRQHandler+0x690>)
 80021fe:	484c      	ldr	r0, [pc, #304]	; (8002330 <HAL_DMA_IRQHandler+0x694>)
 8002200:	4283      	cmp	r3, r0
 8002202:	bf18      	it	ne
 8002204:	4293      	cmpne	r3, r2
 8002206:	f100 0014 	add.w	r0, r0, #20
 800220a:	bf0c      	ite	eq
 800220c:	2201      	moveq	r2, #1
 800220e:	2200      	movne	r2, #0
 8002210:	4283      	cmp	r3, r0
 8002212:	bf08      	it	eq
 8002214:	f042 0201 	orreq.w	r2, r2, #1
 8002218:	3014      	adds	r0, #20
 800221a:	4283      	cmp	r3, r0
 800221c:	bf08      	it	eq
 800221e:	f042 0201 	orreq.w	r2, r2, #1
 8002222:	3014      	adds	r0, #20
 8002224:	4283      	cmp	r3, r0
 8002226:	bf08      	it	eq
 8002228:	f042 0201 	orreq.w	r2, r2, #1
 800222c:	3014      	adds	r0, #20
 800222e:	4283      	cmp	r3, r0
 8002230:	bf08      	it	eq
 8002232:	f042 0201 	orreq.w	r2, r2, #1
 8002236:	3014      	adds	r0, #20
 8002238:	4283      	cmp	r3, r0
 800223a:	bf08      	it	eq
 800223c:	f042 0201 	orreq.w	r2, r2, #1
 8002240:	b912      	cbnz	r2, 8002248 <HAL_DMA_IRQHandler+0x5ac>
 8002242:	4a3c      	ldr	r2, [pc, #240]	; (8002334 <HAL_DMA_IRQHandler+0x698>)
 8002244:	4293      	cmp	r3, r2
 8002246:	d1aa      	bne.n	800219e <HAL_DMA_IRQHandler+0x502>
    if (((tmpisr_bdma & (BDMA_FLAG_HT0 << (hdma->StreamIndex & 0x1FU))) != 0U) && ((ccr_reg & BDMA_CCR_HTIE) != 0U))
 8002248:	6df0      	ldr	r0, [r6, #92]	; 0x5c
 800224a:	2504      	movs	r5, #4
    ccr_reg = (((BDMA_Channel_TypeDef   *)hdma->Instance)->CCR);
 800224c:	681a      	ldr	r2, [r3, #0]
    if (((tmpisr_bdma & (BDMA_FLAG_HT0 << (hdma->StreamIndex & 0x1FU))) != 0U) && ((ccr_reg & BDMA_CCR_HTIE) != 0U))
 800224e:	f000 001f 	and.w	r0, r0, #31
 8002252:	4085      	lsls	r5, r0
 8002254:	420d      	tst	r5, r1
 8002256:	d018      	beq.n	800228a <HAL_DMA_IRQHandler+0x5ee>
 8002258:	0757      	lsls	r7, r2, #29
 800225a:	d516      	bpl.n	800228a <HAL_DMA_IRQHandler+0x5ee>
      if((ccr_reg & BDMA_CCR_DBM) != 0U)
 800225c:	0410      	lsls	r0, r2, #16
      regs_bdma->IFCR = (BDMA_ISR_HTIF0 << (hdma->StreamIndex & 0x1FU));
 800225e:	6065      	str	r5, [r4, #4]
      if((ccr_reg & BDMA_CCR_DBM) != 0U)
 8002260:	d547      	bpl.n	80022f2 <HAL_DMA_IRQHandler+0x656>
        if((ccr_reg & BDMA_CCR_CT) == 0U)
 8002262:	03d1      	lsls	r1, r2, #15
 8002264:	d44b      	bmi.n	80022fe <HAL_DMA_IRQHandler+0x662>
          if(hdma->XferM1HalfCpltCallback != NULL)
 8002266:	6cb3      	ldr	r3, [r6, #72]	; 0x48
 8002268:	2b00      	cmp	r3, #0
 800226a:	f47f aefd 	bne.w	8002068 <HAL_DMA_IRQHandler+0x3cc>
 800226e:	e796      	b.n	800219e <HAL_DMA_IRQHandler+0x502>
      if(__HAL_DMA_GET_IT_SOURCE(hdma, DMA_IT_DME) != 0U)
 8002270:	681a      	ldr	r2, [r3, #0]
    if ((tmpisr_dma & (DMA_FLAG_HTIF0_4 << (hdma->StreamIndex & 0x1FU))) != 0U)
 8002272:	2210      	movs	r2, #16
 8002274:	fa02 fc0c 	lsl.w	ip, r2, ip
 8002278:	ea17 0f0c 	tst.w	r7, ip
 800227c:	f43f ae5d 	beq.w	8001f3a <HAL_DMA_IRQHandler+0x29e>
      if(__HAL_DMA_GET_IT_SOURCE(hdma, DMA_IT_HT) != 0U)
 8002280:	681a      	ldr	r2, [r3, #0]
 8002282:	0750      	lsls	r0, r2, #29
 8002284:	f57f ae59 	bpl.w	8001f3a <HAL_DMA_IRQHandler+0x29e>
 8002288:	e638      	b.n	8001efc <HAL_DMA_IRQHandler+0x260>
    else if (((tmpisr_bdma & (BDMA_FLAG_TC0 << (hdma->StreamIndex & 0x1FU))) != 0U) && ((ccr_reg & BDMA_CCR_TCIE) != 0U))
 800228a:	2502      	movs	r5, #2
 800228c:	4085      	lsls	r5, r0
 800228e:	420d      	tst	r5, r1
 8002290:	d010      	beq.n	80022b4 <HAL_DMA_IRQHandler+0x618>
 8002292:	0797      	lsls	r7, r2, #30
 8002294:	d50e      	bpl.n	80022b4 <HAL_DMA_IRQHandler+0x618>
      regs_bdma->IFCR = (BDMA_ISR_TCIF0) << (hdma->StreamIndex & 0x1FU);
 8002296:	6065      	str	r5, [r4, #4]
      if((ccr_reg & BDMA_CCR_DBM) != 0U)
 8002298:	0414      	lsls	r4, r2, #16
 800229a:	d535      	bpl.n	8002308 <HAL_DMA_IRQHandler+0x66c>
        if((ccr_reg & BDMA_CCR_CT) == 0U)
 800229c:	03d0      	lsls	r0, r2, #15
 800229e:	d43f      	bmi.n	8002320 <HAL_DMA_IRQHandler+0x684>
          if(hdma->XferM1CpltCallback != NULL)
 80022a0:	6c73      	ldr	r3, [r6, #68]	; 0x44
 80022a2:	2b00      	cmp	r3, #0
 80022a4:	f47f aee0 	bne.w	8002068 <HAL_DMA_IRQHandler+0x3cc>
 80022a8:	e779      	b.n	800219e <HAL_DMA_IRQHandler+0x502>
      if(__HAL_DMA_GET_IT_SOURCE(hdma, DMA_IT_TC) != 0U)
 80022aa:	6813      	ldr	r3, [r2, #0]
 80022ac:	079b      	lsls	r3, r3, #30
 80022ae:	f57f aeb1 	bpl.w	8002014 <HAL_DMA_IRQHandler+0x378>
 80022b2:	e69c      	b.n	8001fee <HAL_DMA_IRQHandler+0x352>
    else if (((tmpisr_bdma & (BDMA_FLAG_TE0 << (hdma->StreamIndex & 0x1FU))) != 0U) && ((ccr_reg & BDMA_CCR_TEIE) != 0U))
 80022b4:	2508      	movs	r5, #8
 80022b6:	4085      	lsls	r5, r0
 80022b8:	420d      	tst	r5, r1
 80022ba:	f43f af70 	beq.w	800219e <HAL_DMA_IRQHandler+0x502>
 80022be:	0711      	lsls	r1, r2, #28
 80022c0:	f57f af6d 	bpl.w	800219e <HAL_DMA_IRQHandler+0x502>
      __HAL_DMA_DISABLE_IT(hdma, (DMA_IT_TC | DMA_IT_HT | DMA_IT_TE));
 80022c4:	681a      	ldr	r2, [r3, #0]
      __HAL_UNLOCK(hdma);
 80022c6:	2100      	movs	r1, #0
      __HAL_DMA_DISABLE_IT(hdma, (DMA_IT_TC | DMA_IT_HT | DMA_IT_TE));
 80022c8:	f022 020e 	bic.w	r2, r2, #14
 80022cc:	601a      	str	r2, [r3, #0]
      regs_bdma->IFCR = (BDMA_ISR_GIF0) << (hdma->StreamIndex & 0x1FU);
 80022ce:	2301      	movs	r3, #1
      if (hdma->XferErrorCallback != NULL)
 80022d0:	6cf2      	ldr	r2, [r6, #76]	; 0x4c
      regs_bdma->IFCR = (BDMA_ISR_GIF0) << (hdma->StreamIndex & 0x1FU);
 80022d2:	fa03 f000 	lsl.w	r0, r3, r0
 80022d6:	6060      	str	r0, [r4, #4]
      hdma->ErrorCode = HAL_DMA_ERROR_TE;
 80022d8:	6573      	str	r3, [r6, #84]	; 0x54
      __HAL_UNLOCK(hdma);
 80022da:	f886 1034 	strb.w	r1, [r6, #52]	; 0x34
      hdma->State = HAL_DMA_STATE_READY;
 80022de:	f886 3035 	strb.w	r3, [r6, #53]	; 0x35
      if (hdma->XferErrorCallback != NULL)
 80022e2:	2a00      	cmp	r2, #0
 80022e4:	f43f af5b 	beq.w	800219e <HAL_DMA_IRQHandler+0x502>
        hdma->XferErrorCallback(hdma);
 80022e8:	4630      	mov	r0, r6
}
 80022ea:	b002      	add	sp, #8
 80022ec:	e8bd 41f0 	ldmia.w	sp!, {r4, r5, r6, r7, r8, lr}
        hdma->XferErrorCallback(hdma);
 80022f0:	4710      	bx	r2
        if((ccr_reg & BDMA_CCR_CIRC) == 0U)
 80022f2:	0692      	lsls	r2, r2, #26
 80022f4:	d403      	bmi.n	80022fe <HAL_DMA_IRQHandler+0x662>
          __HAL_DMA_DISABLE_IT(hdma, DMA_IT_HT);
 80022f6:	681a      	ldr	r2, [r3, #0]
 80022f8:	f022 0204 	bic.w	r2, r2, #4
 80022fc:	601a      	str	r2, [r3, #0]
       if(hdma->XferHalfCpltCallback != NULL)
 80022fe:	6c33      	ldr	r3, [r6, #64]	; 0x40
 8002300:	2b00      	cmp	r3, #0
 8002302:	f47f aeb1 	bne.w	8002068 <HAL_DMA_IRQHandler+0x3cc>
 8002306:	e74a      	b.n	800219e <HAL_DMA_IRQHandler+0x502>
        if((ccr_reg & BDMA_CCR_CIRC) == 0U)
 8002308:	f012 0220 	ands.w	r2, r2, #32
 800230c:	d108      	bne.n	8002320 <HAL_DMA_IRQHandler+0x684>
          __HAL_DMA_DISABLE_IT(hdma, DMA_IT_TE | DMA_IT_TC);
 800230e:	6819      	ldr	r1, [r3, #0]
          hdma->State = HAL_DMA_STATE_READY;
 8002310:	2001      	movs	r0, #1
          __HAL_DMA_DISABLE_IT(hdma, DMA_IT_TE | DMA_IT_TC);
 8002312:	f021 010a 	bic.w	r1, r1, #10
 8002316:	6019      	str	r1, [r3, #0]
          hdma->State = HAL_DMA_STATE_READY;
 8002318:	f886 0035 	strb.w	r0, [r6, #53]	; 0x35
          __HAL_UNLOCK(hdma);
 800231c:	f886 2034 	strb.w	r2, [r6, #52]	; 0x34
        if(hdma->XferCpltCallback != NULL)
 8002320:	6bf3      	ldr	r3, [r6, #60]	; 0x3c
 8002322:	2b00      	cmp	r3, #0
 8002324:	f47f aea0 	bne.w	8002068 <HAL_DMA_IRQHandler+0x3cc>
 8002328:	e739      	b.n	800219e <HAL_DMA_IRQHandler+0x502>
 800232a:	bf00      	nop
 800232c:	58025408 	.word	0x58025408
 8002330:	5802541c 	.word	0x5802541c
 8002334:	58025494 	.word	0x58025494

08002338 <HAL_GPIO_Init>:
  * @param  GPIO_Init: pointer to a GPIO_InitTypeDef structure that contains
  *         the configuration information for the specified GPIO peripheral.
  * @retval None
  */
void HAL_GPIO_Init(GPIO_TypeDef  *GPIOx, GPIO_InitTypeDef *GPIO_Init)
{
 8002338:	e92d 4ff0 	stmdb	sp!, {r4, r5, r6, r7, r8, r9, sl, fp, lr}
  assert_param(IS_GPIO_ALL_INSTANCE(GPIOx));
  assert_param(IS_GPIO_PIN(GPIO_Init->Pin));
  assert_param(IS_GPIO_MODE(GPIO_Init->Mode));

  /* Configure the port pins */
  while (((GPIO_Init->Pin) >> position) != 0x00U)
 800233c:	680c      	ldr	r4, [r1, #0]
{
 800233e:	b083      	sub	sp, #12
  while (((GPIO_Init->Pin) >> position) != 0x00U)
 8002340:	2c00      	cmp	r4, #0
 8002342:	f000 80a7 	beq.w	8002494 <HAL_GPIO_Init+0x15c>
 8002346:	f04f 0c00 	mov.w	ip, #0
      /*--------------------- EXTI Mode Configuration ------------------------*/
      /* Configure the External Interrupt or event for the current IO */
      if ((GPIO_Init->Mode & EXTI_MODE) != 0x00U)
      {
        /* Enable SYSCFG Clock */
        __HAL_RCC_SYSCFG_CLK_ENABLE();
 800234a:	4f8a      	ldr	r7, [pc, #552]	; (8002574 <HAL_GPIO_Init+0x23c>)
  uint32_t position = 0x00U;
 800234c:	4663      	mov	r3, ip
    iocurrent = (GPIO_Init->Pin) & (1UL << position);
 800234e:	2201      	movs	r2, #1
 8002350:	409a      	lsls	r2, r3
    if (iocurrent != 0x00U)
 8002352:	ea12 0e04 	ands.w	lr, r2, r4
 8002356:	f000 8096 	beq.w	8002486 <HAL_GPIO_Init+0x14e>
      if (((GPIO_Init->Mode & GPIO_MODE) == MODE_OUTPUT) || ((GPIO_Init->Mode & GPIO_MODE) == MODE_AF))
 800235a:	684d      	ldr	r5, [r1, #4]
 800235c:	f005 0903 	and.w	r9, r5, #3
 8002360:	f109 36ff 	add.w	r6, r9, #4294967295
 8002364:	2e01      	cmp	r6, #1
 8002366:	f240 8098 	bls.w	800249a <HAL_GPIO_Init+0x162>
      if ((GPIO_Init->Mode & GPIO_MODE) != MODE_ANALOG)
 800236a:	f1b9 0f03 	cmp.w	r9, #3
 800236e:	f040 80d2 	bne.w	8002516 <HAL_GPIO_Init+0x1de>
        temp &= ~(GPIO_OSPEEDR_OSPEED0 << (position * 2U));
 8002372:	fa09 f20c 	lsl.w	r2, r9, ip
 8002376:	ea6f 0802 	mvn.w	r8, r2
      temp = GPIOx->MODER;
 800237a:	6806      	ldr	r6, [r0, #0]
      if ((GPIO_Init->Mode & EXTI_MODE) != 0x00U)
 800237c:	f415 3f40 	tst.w	r5, #196608	; 0x30000
      temp &= ~(GPIO_MODER_MODE0 << (position * 2U));
 8002380:	ea06 0608 	and.w	r6, r6, r8
      temp |= ((GPIO_Init->Mode & GPIO_MODE) << (position * 2U));
 8002384:	ea42 0206 	orr.w	r2, r2, r6
      GPIOx->MODER = temp;
 8002388:	6002      	str	r2, [r0, #0]
      if ((GPIO_Init->Mode & EXTI_MODE) != 0x00U)
 800238a:	d07c      	beq.n	8002486 <HAL_GPIO_Init+0x14e>
        __HAL_RCC_SYSCFG_CLK_ENABLE();
 800238c:	f8d7 20f4 	ldr.w	r2, [r7, #244]	; 0xf4
 8002390:	f023 0803 	bic.w	r8, r3, #3

        temp = SYSCFG->EXTICR[position >> 2U];
        temp &= ~(0x0FUL << (4U * (position & 0x03U)));
 8002394:	f003 0903 	and.w	r9, r3, #3
 8002398:	260f      	movs	r6, #15
        __HAL_RCC_SYSCFG_CLK_ENABLE();
 800239a:	f042 0202 	orr.w	r2, r2, #2
 800239e:	f108 48b0 	add.w	r8, r8, #1476395008	; 0x58000000
        temp &= ~(0x0FUL << (4U * (position & 0x03U)));
 80023a2:	ea4f 0989 	mov.w	r9, r9, lsl #2
        __HAL_RCC_SYSCFG_CLK_ENABLE();
 80023a6:	f8c7 20f4 	str.w	r2, [r7, #244]	; 0xf4
 80023aa:	f508 6880 	add.w	r8, r8, #1024	; 0x400
 80023ae:	f8d7 20f4 	ldr.w	r2, [r7, #244]	; 0xf4
        temp &= ~(0x0FUL << (4U * (position & 0x03U)));
 80023b2:	fa06 f609 	lsl.w	r6, r6, r9
        __HAL_RCC_SYSCFG_CLK_ENABLE();
 80023b6:	f002 0202 	and.w	r2, r2, #2
 80023ba:	9201      	str	r2, [sp, #4]
 80023bc:	9a01      	ldr	r2, [sp, #4]
        temp = SYSCFG->EXTICR[position >> 2U];
 80023be:	f8d8 2008 	ldr.w	r2, [r8, #8]
        temp &= ~(0x0FUL << (4U * (position & 0x03U)));
 80023c2:	ea22 0206 	bic.w	r2, r2, r6
        temp |= (GPIO_GET_INDEX(GPIOx) << (4U * (position & 0x03U)));
 80023c6:	4e6c      	ldr	r6, [pc, #432]	; (8002578 <HAL_GPIO_Init+0x240>)
 80023c8:	42b0      	cmp	r0, r6
 80023ca:	d028      	beq.n	800241e <HAL_GPIO_Init+0xe6>
 80023cc:	f506 6680 	add.w	r6, r6, #1024	; 0x400
 80023d0:	42b0      	cmp	r0, r6
 80023d2:	f000 80ac 	beq.w	800252e <HAL_GPIO_Init+0x1f6>
 80023d6:	4e69      	ldr	r6, [pc, #420]	; (800257c <HAL_GPIO_Init+0x244>)
 80023d8:	42b0      	cmp	r0, r6
 80023da:	f000 80ad 	beq.w	8002538 <HAL_GPIO_Init+0x200>
 80023de:	4e68      	ldr	r6, [pc, #416]	; (8002580 <HAL_GPIO_Init+0x248>)
 80023e0:	42b0      	cmp	r0, r6
 80023e2:	f000 809f 	beq.w	8002524 <HAL_GPIO_Init+0x1ec>
 80023e6:	4e67      	ldr	r6, [pc, #412]	; (8002584 <HAL_GPIO_Init+0x24c>)
 80023e8:	42b0      	cmp	r0, r6
 80023ea:	f000 80af 	beq.w	800254c <HAL_GPIO_Init+0x214>
 80023ee:	4e66      	ldr	r6, [pc, #408]	; (8002588 <HAL_GPIO_Init+0x250>)
 80023f0:	42b0      	cmp	r0, r6
 80023f2:	f000 80b0 	beq.w	8002556 <HAL_GPIO_Init+0x21e>
 80023f6:	4e65      	ldr	r6, [pc, #404]	; (800258c <HAL_GPIO_Init+0x254>)
 80023f8:	42b0      	cmp	r0, r6
 80023fa:	f000 80a2 	beq.w	8002542 <HAL_GPIO_Init+0x20a>
 80023fe:	4e64      	ldr	r6, [pc, #400]	; (8002590 <HAL_GPIO_Init+0x258>)
 8002400:	42b0      	cmp	r0, r6
 8002402:	f000 80ad 	beq.w	8002560 <HAL_GPIO_Init+0x228>
 8002406:	4e63      	ldr	r6, [pc, #396]	; (8002594 <HAL_GPIO_Init+0x25c>)
 8002408:	42b0      	cmp	r0, r6
 800240a:	f000 80ae 	beq.w	800256a <HAL_GPIO_Init+0x232>
 800240e:	4e62      	ldr	r6, [pc, #392]	; (8002598 <HAL_GPIO_Init+0x260>)
 8002410:	42b0      	cmp	r0, r6
 8002412:	bf0c      	ite	eq
 8002414:	2609      	moveq	r6, #9
 8002416:	260a      	movne	r6, #10
 8002418:	fa06 f609 	lsl.w	r6, r6, r9
 800241c:	4332      	orrs	r2, r6
        SYSCFG->EXTICR[position >> 2U] = temp;
 800241e:	f8c8 2008 	str.w	r2, [r8, #8]

        /* Clear Rising Falling edge configuration */
        temp = EXTI->RTSR1;
 8002422:	f04f 42b0 	mov.w	r2, #1476395008	; 0x58000000
        temp &= ~(iocurrent);
        if ((GPIO_Init->Mode & TRIGGER_RISING) != 0x00U)
 8002426:	f415 1f80 	tst.w	r5, #1048576	; 0x100000
        temp &= ~(iocurrent);
 800242a:	ea6f 060e 	mvn.w	r6, lr
        temp = EXTI->RTSR1;
 800242e:	6812      	ldr	r2, [r2, #0]
        {
          temp |= iocurrent;
        }
        EXTI->RTSR1 = temp;
 8002430:	f04f 48b0 	mov.w	r8, #1476395008	; 0x58000000
        temp &= ~(iocurrent);
 8002434:	bf0c      	ite	eq
 8002436:	4032      	andeq	r2, r6
          temp |= iocurrent;
 8002438:	ea4e 0202 	orrne.w	r2, lr, r2

        temp = EXTI->FTSR1;
        temp &= ~(iocurrent);
        if ((GPIO_Init->Mode & TRIGGER_FALLING) != 0x00U)
 800243c:	f415 1f00 	tst.w	r5, #2097152	; 0x200000
        EXTI->RTSR1 = temp;
 8002440:	f8c8 2000 	str.w	r2, [r8]
        temp = EXTI->FTSR1;
 8002444:	f8d8 2004 	ldr.w	r2, [r8, #4]
        {
          temp |= iocurrent;
        }
        EXTI->FTSR1 = temp;
 8002448:	f04f 48b0 	mov.w	r8, #1476395008	; 0x58000000
        temp &= ~(iocurrent);
 800244c:	bf0c      	ite	eq
 800244e:	4032      	andeq	r2, r6
          temp |= iocurrent;
 8002450:	ea4e 0202 	orrne.w	r2, lr, r2

        temp = EXTI_CurrentCPU->EMR1;
        temp &= ~(iocurrent);
        if ((GPIO_Init->Mode & EXTI_EVT) != 0x00U)
 8002454:	f415 3f00 	tst.w	r5, #131072	; 0x20000
        EXTI->FTSR1 = temp;
 8002458:	f8c8 2004 	str.w	r2, [r8, #4]
        temp = EXTI_CurrentCPU->EMR1;
 800245c:	f8d8 2084 	ldr.w	r2, [r8, #132]	; 0x84
        {
          temp |= iocurrent;
        }
        EXTI_CurrentCPU->EMR1 = temp;
 8002460:	f04f 48b0 	mov.w	r8, #1476395008	; 0x58000000
        temp &= ~(iocurrent);
 8002464:	bf0c      	ite	eq
 8002466:	4032      	andeq	r2, r6
          temp |= iocurrent;
 8002468:	ea4e 0202 	orrne.w	r2, lr, r2

        /* Clear EXTI line configuration */
        temp = EXTI_CurrentCPU->IMR1;
        temp &= ~(iocurrent);
        if ((GPIO_Init->Mode & EXTI_IT) != 0x00U)
 800246c:	03ed      	lsls	r5, r5, #15
        {
          temp |= iocurrent;
        }
        EXTI_CurrentCPU->IMR1 = temp;
 800246e:	f04f 45b0 	mov.w	r5, #1476395008	; 0x58000000
        EXTI_CurrentCPU->EMR1 = temp;
 8002472:	f8c8 2084 	str.w	r2, [r8, #132]	; 0x84
        temp = EXTI_CurrentCPU->IMR1;
 8002476:	f8d8 2080 	ldr.w	r2, [r8, #128]	; 0x80
        temp &= ~(iocurrent);
 800247a:	bf54      	ite	pl
 800247c:	4032      	andpl	r2, r6
          temp |= iocurrent;
 800247e:	ea4e 0202 	orrmi.w	r2, lr, r2
        EXTI_CurrentCPU->IMR1 = temp;
 8002482:	f8c5 2080 	str.w	r2, [r5, #128]	; 0x80
      }
    }

    position++;
 8002486:	3301      	adds	r3, #1
  while (((GPIO_Init->Pin) >> position) != 0x00U)
 8002488:	f10c 0c02 	add.w	ip, ip, #2
 800248c:	fa34 f203 	lsrs.w	r2, r4, r3
 8002490:	f47f af5d 	bne.w	800234e <HAL_GPIO_Init+0x16>
  }
}
 8002494:	b003      	add	sp, #12
 8002496:	e8bd 8ff0 	ldmia.w	sp!, {r4, r5, r6, r7, r8, r9, sl, fp, pc}
        temp &= ~(GPIO_OSPEEDR_OSPEED0 << (position * 2U));
 800249a:	f04f 0803 	mov.w	r8, #3
        temp = GPIOx->OSPEEDR;
 800249e:	6886      	ldr	r6, [r0, #8]
        temp &= ~(GPIO_OSPEEDR_OSPEED0 << (position * 2U));
 80024a0:	fa08 f80c 	lsl.w	r8, r8, ip
 80024a4:	ea26 0a08 	bic.w	sl, r6, r8
        temp |= (GPIO_Init->Speed << (position * 2U));
 80024a8:	68ce      	ldr	r6, [r1, #12]
        temp &= ~(GPIO_OSPEEDR_OSPEED0 << (position * 2U));
 80024aa:	ea6f 0808 	mvn.w	r8, r8
        temp |= (GPIO_Init->Speed << (position * 2U));
 80024ae:	fa06 f60c 	lsl.w	r6, r6, ip
 80024b2:	ea46 060a 	orr.w	r6, r6, sl
        GPIOx->OSPEEDR = temp;
 80024b6:	6086      	str	r6, [r0, #8]
        temp |= (((GPIO_Init->Mode & OUTPUT_TYPE) >> OUTPUT_TYPE_Pos) << position);
 80024b8:	f3c5 1600 	ubfx	r6, r5, #4, #1
        temp = GPIOx->OTYPER;
 80024bc:	f8d0 a004 	ldr.w	sl, [r0, #4]
        temp |= (((GPIO_Init->Mode & OUTPUT_TYPE) >> OUTPUT_TYPE_Pos) << position);
 80024c0:	409e      	lsls	r6, r3
        temp &= ~(GPIO_OTYPER_OT0 << position) ;
 80024c2:	ea2a 0202 	bic.w	r2, sl, r2
        temp |= (((GPIO_Init->Mode & OUTPUT_TYPE) >> OUTPUT_TYPE_Pos) << position);
 80024c6:	4332      	orrs	r2, r6
        GPIOx->OTYPER = temp;
 80024c8:	6042      	str	r2, [r0, #4]
      temp = GPIOx->PUPDR;
 80024ca:	68c2      	ldr	r2, [r0, #12]
      if ((GPIO_Init->Mode & GPIO_MODE) == MODE_AF)
 80024cc:	f1b9 0f02 	cmp.w	r9, #2
      temp |= ((GPIO_Init->Pull) << (position * 2U));
 80024d0:	688e      	ldr	r6, [r1, #8]
      temp &= ~(GPIO_PUPDR_PUPD0 << (position * 2U));
 80024d2:	ea02 0208 	and.w	r2, r2, r8
      temp |= ((GPIO_Init->Pull) << (position * 2U));
 80024d6:	fa06 f60c 	lsl.w	r6, r6, ip
 80024da:	ea46 0602 	orr.w	r6, r6, r2
      GPIOx->PUPDR = temp;
 80024de:	fa09 f20c 	lsl.w	r2, r9, ip
 80024e2:	60c6      	str	r6, [r0, #12]
      if ((GPIO_Init->Mode & GPIO_MODE) == MODE_AF)
 80024e4:	f47f af49 	bne.w	800237a <HAL_GPIO_Init+0x42>
        temp = GPIOx->AFR[position >> 3U];
 80024e8:	ea4f 09d3 	mov.w	r9, r3, lsr #3
        temp &= ~(0xFU << ((position & 0x07U) * 4U));
 80024ec:	f003 0b07 	and.w	fp, r3, #7
 80024f0:	260f      	movs	r6, #15
 80024f2:	eb00 0989 	add.w	r9, r0, r9, lsl #2
 80024f6:	ea4f 0b8b 	mov.w	fp, fp, lsl #2
        temp = GPIOx->AFR[position >> 3U];
 80024fa:	f8d9 a020 	ldr.w	sl, [r9, #32]
        temp &= ~(0xFU << ((position & 0x07U) * 4U));
 80024fe:	fa06 f60b 	lsl.w	r6, r6, fp
 8002502:	ea2a 0a06 	bic.w	sl, sl, r6
        temp |= ((GPIO_Init->Alternate) << ((position & 0x07U) * 4U));
 8002506:	690e      	ldr	r6, [r1, #16]
 8002508:	fa06 f60b 	lsl.w	r6, r6, fp
 800250c:	ea46 060a 	orr.w	r6, r6, sl
        GPIOx->AFR[position >> 3U] = temp;
 8002510:	f8c9 6020 	str.w	r6, [r9, #32]
 8002514:	e731      	b.n	800237a <HAL_GPIO_Init+0x42>
        temp &= ~(GPIO_OSPEEDR_OSPEED0 << (position * 2U));
 8002516:	f04f 0803 	mov.w	r8, #3
 800251a:	fa08 f80c 	lsl.w	r8, r8, ip
 800251e:	ea6f 0808 	mvn.w	r8, r8
 8002522:	e7d2      	b.n	80024ca <HAL_GPIO_Init+0x192>
        temp |= (GPIO_GET_INDEX(GPIOx) << (4U * (position & 0x03U)));
 8002524:	2603      	movs	r6, #3
 8002526:	fa06 f609 	lsl.w	r6, r6, r9
 800252a:	4332      	orrs	r2, r6
 800252c:	e777      	b.n	800241e <HAL_GPIO_Init+0xe6>
 800252e:	2601      	movs	r6, #1
 8002530:	fa06 f609 	lsl.w	r6, r6, r9
 8002534:	4332      	orrs	r2, r6
 8002536:	e772      	b.n	800241e <HAL_GPIO_Init+0xe6>
 8002538:	2602      	movs	r6, #2
 800253a:	fa06 f609 	lsl.w	r6, r6, r9
 800253e:	4332      	orrs	r2, r6
 8002540:	e76d      	b.n	800241e <HAL_GPIO_Init+0xe6>
 8002542:	2606      	movs	r6, #6
 8002544:	fa06 f609 	lsl.w	r6, r6, r9
 8002548:	4332      	orrs	r2, r6
 800254a:	e768      	b.n	800241e <HAL_GPIO_Init+0xe6>
 800254c:	2604      	movs	r6, #4
 800254e:	fa06 f609 	lsl.w	r6, r6, r9
 8002552:	4332      	orrs	r2, r6
 8002554:	e763      	b.n	800241e <HAL_GPIO_Init+0xe6>
 8002556:	2605      	movs	r6, #5
 8002558:	fa06 f609 	lsl.w	r6, r6, r9
 800255c:	4332      	orrs	r2, r6
 800255e:	e75e      	b.n	800241e <HAL_GPIO_Init+0xe6>
 8002560:	2607      	movs	r6, #7
 8002562:	fa06 f609 	lsl.w	r6, r6, r9
 8002566:	4332      	orrs	r2, r6
 8002568:	e759      	b.n	800241e <HAL_GPIO_Init+0xe6>
 800256a:	2608      	movs	r6, #8
 800256c:	fa06 f609 	lsl.w	r6, r6, r9
 8002570:	4332      	orrs	r2, r6
 8002572:	e754      	b.n	800241e <HAL_GPIO_Init+0xe6>
 8002574:	58024400 	.word	0x58024400
 8002578:	58020000 	.word	0x58020000
 800257c:	58020800 	.word	0x58020800
 8002580:	58020c00 	.word	0x58020c00
 8002584:	58021000 	.word	0x58021000
 8002588:	58021400 	.word	0x58021400
 800258c:	58021800 	.word	0x58021800
 8002590:	58021c00 	.word	0x58021c00
 8002594:	58022000 	.word	0x58022000
 8002598:	58022400 	.word	0x58022400

0800259c <HAL_GPIO_WritePin>:
{
  /* Check the parameters */
  assert_param(IS_GPIO_PIN(GPIO_Pin));
  assert_param(IS_GPIO_PIN_ACTION(PinState));

  if (PinState != GPIO_PIN_RESET)
 800259c:	b902      	cbnz	r2, 80025a0 <HAL_GPIO_WritePin+0x4>
  {
    GPIOx->BSRR = GPIO_Pin;
  }
  else
  {
    GPIOx->BSRR = (uint32_t)GPIO_Pin << GPIO_NUMBER;
 800259e:	0409      	lsls	r1, r1, #16
 80025a0:	6181      	str	r1, [r0, #24]
  }
}
 80025a2:	4770      	bx	lr

080025a4 <I2S_DMATxCplt>:
{
  /* Derogation MISRAC2012-Rule-11.5 */
  I2S_HandleTypeDef *hi2s = (I2S_HandleTypeDef *)((DMA_HandleTypeDef *)hdma)->Parent;

  /* if DMA is configured in DMA_NORMAL Mode */
  if (hdma->Init.Mode == DMA_NORMAL)
 80025a4:	69c3      	ldr	r3, [r0, #28]
  I2S_HandleTypeDef *hi2s = (I2S_HandleTypeDef *)((DMA_HandleTypeDef *)hdma)->Parent;
 80025a6:	6b80      	ldr	r0, [r0, #56]	; 0x38
  if (hdma->Init.Mode == DMA_NORMAL)
 80025a8:	b94b      	cbnz	r3, 80025be <I2S_DMATxCplt+0x1a>
  {
    /* Disable Tx DMA Request */
    CLEAR_BIT(hi2s->Instance->CFG1, SPI_CFG1_TXDMAEN);
 80025aa:	6801      	ldr	r1, [r0, #0]

    hi2s->TxXferCount = (uint16_t) 0UL;
    hi2s->State = HAL_I2S_STATE_READY;
 80025ac:	f04f 0c01 	mov.w	ip, #1
    CLEAR_BIT(hi2s->Instance->CFG1, SPI_CFG1_TXDMAEN);
 80025b0:	688a      	ldr	r2, [r1, #8]
 80025b2:	f422 4200 	bic.w	r2, r2, #32768	; 0x8000
 80025b6:	608a      	str	r2, [r1, #8]
    hi2s->TxXferCount = (uint16_t) 0UL;
 80025b8:	8643      	strh	r3, [r0, #50]	; 0x32
    hi2s->State = HAL_I2S_STATE_READY;
 80025ba:	f880 c04d 	strb.w	ip, [r0, #77]	; 0x4d
  }
  /* Call user Tx complete callback */
#if (USE_HAL_I2S_REGISTER_CALLBACKS == 1UL)
  hi2s->TxCpltCallback(hi2s);
 80025be:	6d43      	ldr	r3, [r0, #84]	; 0x54
 80025c0:	4718      	bx	r3
 80025c2:	bf00      	nop

080025c4 <I2S_DMATxHalfCplt>:
  * @retval None
  */
static void I2S_DMATxHalfCplt(DMA_HandleTypeDef *hdma)
{
  /* Derogation MISRAC2012-Rule-11.5 */
  I2S_HandleTypeDef *hi2s = (I2S_HandleTypeDef *)((DMA_HandleTypeDef *)hdma)->Parent;
 80025c4:	6b80      	ldr	r0, [r0, #56]	; 0x38

  /* Call user Tx half complete callback */
#if (USE_HAL_I2S_REGISTER_CALLBACKS == 1UL)
  hi2s->TxHalfCpltCallback(hi2s);
 80025c6:	6e03      	ldr	r3, [r0, #96]	; 0x60
 80025c8:	4718      	bx	r3
 80025ca:	bf00      	nop

080025cc <I2S_DMARxCplt>:
{
  /* Derogation MISRAC2012-Rule-11.5 */
  I2S_HandleTypeDef *hi2s = (I2S_HandleTypeDef *)((DMA_HandleTypeDef *)hdma)->Parent;

  /* if DMA is configured in DMA_NORMAL Mode */
  if (hdma->Init.Mode == DMA_NORMAL)
 80025cc:	69c3      	ldr	r3, [r0, #28]
  I2S_HandleTypeDef *hi2s = (I2S_HandleTypeDef *)((DMA_HandleTypeDef *)hdma)->Parent;
 80025ce:	6b80      	ldr	r0, [r0, #56]	; 0x38
  if (hdma->Init.Mode == DMA_NORMAL)
 80025d0:	b94b      	cbnz	r3, 80025e6 <I2S_DMARxCplt+0x1a>
  {
    /* Disable Rx DMA Request */
    CLEAR_BIT(hi2s->Instance->CFG1, SPI_CFG1_RXDMAEN);
 80025d2:	6801      	ldr	r1, [r0, #0]
    hi2s->RxXferCount = (uint16_t)0UL;
    hi2s->State = HAL_I2S_STATE_READY;
 80025d4:	f04f 0c01 	mov.w	ip, #1
    CLEAR_BIT(hi2s->Instance->CFG1, SPI_CFG1_RXDMAEN);
 80025d8:	688a      	ldr	r2, [r1, #8]
 80025da:	f422 4280 	bic.w	r2, r2, #16384	; 0x4000
 80025de:	608a      	str	r2, [r1, #8]
    hi2s->RxXferCount = (uint16_t)0UL;
 80025e0:	8743      	strh	r3, [r0, #58]	; 0x3a
    hi2s->State = HAL_I2S_STATE_READY;
 80025e2:	f880 c04d 	strb.w	ip, [r0, #77]	; 0x4d
  }
  /* Call user Rx complete callback */
#if (USE_HAL_I2S_REGISTER_CALLBACKS == 1UL)
  hi2s->RxCpltCallback(hi2s);
 80025e6:	6d83      	ldr	r3, [r0, #88]	; 0x58
 80025e8:	4718      	bx	r3
 80025ea:	bf00      	nop

080025ec <I2S_DMARxHalfCplt>:
  * @retval None
  */
static void I2S_DMARxHalfCplt(DMA_HandleTypeDef *hdma)
{
  /* Derogation MISRAC2012-Rule-11.5 */
  I2S_HandleTypeDef *hi2s = (I2S_HandleTypeDef *)((DMA_HandleTypeDef *)hdma)->Parent;
 80025ec:	6b80      	ldr	r0, [r0, #56]	; 0x38

  /* Call user Rx half complete callback */
#if (USE_HAL_I2S_REGISTER_CALLBACKS == 1UL)
  hi2s->RxHalfCpltCallback(hi2s);
 80025ee:	6e43      	ldr	r3, [r0, #100]	; 0x64
 80025f0:	4718      	bx	r3
 80025f2:	bf00      	nop

080025f4 <I2S_DMAError>:
  * @retval None
  */
static void I2S_DMAError(DMA_HandleTypeDef *hdma)
{
  /* Derogation MISRAC2012-Rule-11.5 */
  I2S_HandleTypeDef *hi2s = (I2S_HandleTypeDef *)((DMA_HandleTypeDef *)hdma)->Parent;
 80025f4:	6b80      	ldr	r0, [r0, #56]	; 0x38

  /* Disable Rx and Tx DMA Request */
  CLEAR_BIT(hi2s->Instance->CFG1, (SPI_CFG1_RXDMAEN | SPI_CFG1_TXDMAEN));
  hi2s->TxXferCount = (uint16_t) 0UL;
 80025f6:	2200      	movs	r2, #0
  hi2s->RxXferCount = (uint16_t) 0UL;

  hi2s->State = HAL_I2S_STATE_READY;
 80025f8:	f04f 0c01 	mov.w	ip, #1
  CLEAR_BIT(hi2s->Instance->CFG1, (SPI_CFG1_RXDMAEN | SPI_CFG1_TXDMAEN));
 80025fc:	6801      	ldr	r1, [r0, #0]
 80025fe:	688b      	ldr	r3, [r1, #8]
 8002600:	f423 4340 	bic.w	r3, r3, #49152	; 0xc000
 8002604:	608b      	str	r3, [r1, #8]
  hi2s->TxXferCount = (uint16_t) 0UL;
 8002606:	8642      	strh	r2, [r0, #50]	; 0x32
  hi2s->RxXferCount = (uint16_t) 0UL;
 8002608:	8742      	strh	r2, [r0, #58]	; 0x3a
  hi2s->State = HAL_I2S_STATE_READY;
 800260a:	f880 c04d 	strb.w	ip, [r0, #77]	; 0x4d

  /* Set the error code and execute error callback*/
  SET_BIT(hi2s->ErrorCode, HAL_I2S_ERROR_DMA);
 800260e:	6d03      	ldr	r3, [r0, #80]	; 0x50
  /* Call user error callback */
#if (USE_HAL_I2S_REGISTER_CALLBACKS == 1UL)
  hi2s->ErrorCallback(hi2s);
 8002610:	6ec2      	ldr	r2, [r0, #108]	; 0x6c
  SET_BIT(hi2s->ErrorCode, HAL_I2S_ERROR_DMA);
 8002612:	f043 0308 	orr.w	r3, r3, #8
 8002616:	6503      	str	r3, [r0, #80]	; 0x50
  hi2s->ErrorCallback(hi2s);
 8002618:	4710      	bx	r2
 800261a:	bf00      	nop

0800261c <HAL_I2S_ErrorCallback>:
 800261c:	4770      	bx	lr
 800261e:	bf00      	nop

08002620 <HAL_I2SEx_TxRxHalfCpltCallback>:
 8002620:	4770      	bx	lr
 8002622:	bf00      	nop

08002624 <HAL_I2SEx_TxRxCpltCallback>:
 8002624:	4770      	bx	lr
 8002626:	bf00      	nop

08002628 <HAL_I2S_Init>:
  if (hi2s == NULL)
 8002628:	2800      	cmp	r0, #0
 800262a:	f000 80b6 	beq.w	800279a <HAL_I2S_Init+0x172>
{
 800262e:	b5f8      	push	{r3, r4, r5, r6, r7, lr}
  if (hi2s->State == HAL_I2S_STATE_RESET)
 8002630:	f890 304d 	ldrb.w	r3, [r0, #77]	; 0x4d
 8002634:	4604      	mov	r4, r0
 8002636:	f003 02ff 	and.w	r2, r3, #255	; 0xff
 800263a:	b9ab      	cbnz	r3, 8002668 <HAL_I2S_Init+0x40>
    hi2s->TxCpltCallback       = HAL_I2S_TxCpltCallback;          /* Legacy weak TxCpltCallback       */
 800263c:	4b63      	ldr	r3, [pc, #396]	; (80027cc <HAL_I2S_Init+0x1a4>)
    hi2s->Lock = HAL_UNLOCKED;
 800263e:	f880 204c 	strb.w	r2, [r0, #76]	; 0x4c
    hi2s->TxCpltCallback       = HAL_I2S_TxCpltCallback;          /* Legacy weak TxCpltCallback       */
 8002642:	6543      	str	r3, [r0, #84]	; 0x54
    hi2s->TxRxCpltCallback     = HAL_I2SEx_TxRxCpltCallback;      /* Legacy weak TxRxCpltCallback     */
 8002644:	4962      	ldr	r1, [pc, #392]	; (80027d0 <HAL_I2S_Init+0x1a8>)
    hi2s->RxHalfCpltCallback   = HAL_I2S_RxHalfCpltCallback;      /* Legacy weak RxHalfCpltCallback   */
 8002646:	4b63      	ldr	r3, [pc, #396]	; (80027d4 <HAL_I2S_Init+0x1ac>)
    hi2s->RxCpltCallback       = HAL_I2S_RxCpltCallback;          /* Legacy weak RxCpltCallback       */
 8002648:	4d63      	ldr	r5, [pc, #396]	; (80027d8 <HAL_I2S_Init+0x1b0>)
    hi2s->TxHalfCpltCallback   = HAL_I2S_TxHalfCpltCallback;      /* Legacy weak TxHalfCpltCallback   */
 800264a:	4864      	ldr	r0, [pc, #400]	; (80027dc <HAL_I2S_Init+0x1b4>)
    hi2s->ErrorCallback        = HAL_I2S_ErrorCallback;           /* Legacy weak ErrorCallback        */
 800264c:	4a64      	ldr	r2, [pc, #400]	; (80027e0 <HAL_I2S_Init+0x1b8>)
    hi2s->TxRxCpltCallback     = HAL_I2SEx_TxRxCpltCallback;      /* Legacy weak TxRxCpltCallback     */
 800264e:	e9c4 5116 	strd	r5, r1, [r4, #88]	; 0x58
    hi2s->RxHalfCpltCallback   = HAL_I2S_RxHalfCpltCallback;      /* Legacy weak RxHalfCpltCallback   */
 8002652:	e9c4 0318 	strd	r0, r3, [r4, #96]	; 0x60
    hi2s->TxRxHalfCpltCallback = HAL_I2SEx_TxRxHalfCpltCallback;  /* Legacy weak TxRxHalfCpltCallback */
 8002656:	4963      	ldr	r1, [pc, #396]	; (80027e4 <HAL_I2S_Init+0x1bc>)
    if (hi2s->MspInitCallback == NULL)
 8002658:	6f23      	ldr	r3, [r4, #112]	; 0x70
    hi2s->ErrorCallback        = HAL_I2S_ErrorCallback;           /* Legacy weak ErrorCallback        */
 800265a:	e9c4 121a 	strd	r1, r2, [r4, #104]	; 0x68
    if (hi2s->MspInitCallback == NULL)
 800265e:	2b00      	cmp	r3, #0
 8002660:	f000 80a1 	beq.w	80027a6 <HAL_I2S_Init+0x17e>
    hi2s->MspInitCallback(hi2s);
 8002664:	4620      	mov	r0, r4
 8002666:	4798      	blx	r3
  hi2s->State = HAL_I2S_STATE_BUSY;
 8002668:	2302      	movs	r3, #2
  if ((hi2s->Instance->CR1 & SPI_CR1_SPE) == SPI_CR1_SPE)
 800266a:	6822      	ldr	r2, [r4, #0]
  hi2s->State = HAL_I2S_STATE_BUSY;
 800266c:	f884 304d 	strb.w	r3, [r4, #77]	; 0x4d
  if ((hi2s->Instance->CR1 & SPI_CR1_SPE) == SPI_CR1_SPE)
 8002670:	6813      	ldr	r3, [r2, #0]
 8002672:	07db      	lsls	r3, r3, #31
 8002674:	d448      	bmi.n	8002708 <HAL_I2S_Init+0xe0>
  if (IS_I2S_MASTER(hi2s->Init.Mode))
 8002676:	6865      	ldr	r5, [r4, #4]
  CLEAR_REG(hi2s->Instance->I2SCFGR);
 8002678:	2300      	movs	r3, #0
  if (IS_I2S_MASTER(hi2s->Init.Mode))
 800267a:	f025 0002 	bic.w	r0, r5, #2
  CLEAR_REG(hi2s->Instance->I2SCFGR);
 800267e:	6513      	str	r3, [r2, #80]	; 0x50
  if (IS_I2S_MASTER(hi2s->Init.Mode))
 8002680:	2d0a      	cmp	r5, #10
 8002682:	bf18      	it	ne
 8002684:	2804      	cmpne	r0, #4
 8002686:	bf0c      	ite	eq
 8002688:	2001      	moveq	r0, #1
 800268a:	2000      	movne	r0, #0
 800268c:	d141      	bne.n	8002712 <HAL_I2S_Init+0xea>
    if (hi2s->Init.AudioFreq != I2S_AUDIOFREQ_DEFAULT)
 800268e:	6963      	ldr	r3, [r4, #20]
 8002690:	2b02      	cmp	r3, #2
 8002692:	d06b      	beq.n	800276c <HAL_I2S_Init+0x144>
      i2sclk = HAL_RCCEx_GetPeriphCLKFreq(RCC_PERIPHCLK_SPI123);
 8002694:	2100      	movs	r1, #0
 8002696:	f44f 5080 	mov.w	r0, #4096	; 0x1000
      if ((hi2s->Init.Standard == I2S_STANDARD_PCM_SHORT) ||
 800269a:	e9d4 3202 	ldrd	r3, r2, [r4, #8]
        packetlength = 1UL;
 800269e:	2a00      	cmp	r2, #0
      if ((hi2s->Init.Standard == I2S_STANDARD_PCM_SHORT) ||
 80026a0:	f023 0380 	bic.w	r3, r3, #128	; 0x80
        packetlength = 1UL;
 80026a4:	bf14      	ite	ne
 80026a6:	2602      	movne	r6, #2
 80026a8:	2601      	moveq	r6, #1
      if ((hi2s->Init.Standard == I2S_STANDARD_PCM_SHORT) ||
 80026aa:	f1a3 0530 	sub.w	r5, r3, #48	; 0x30
      i2sclk = HAL_RCCEx_GetPeriphCLKFreq(RCC_PERIPHCLK_SPI123);
 80026ae:	f002 f885 	bl	80047bc <HAL_RCCEx_GetPeriphCLKFreq>
      if (hi2s->Init.MCLKOutput == I2S_MCLKOUTPUT_ENABLE)
 80026b2:	6921      	ldr	r1, [r4, #16]
      if ((hi2s->Init.Standard == I2S_STANDARD_PCM_SHORT) ||
 80026b4:	fab5 f585 	clz	r5, r5
      if (hi2s->Init.MCLKOutput == I2S_MCLKOUTPUT_ENABLE)
 80026b8:	f1b1 7f00 	cmp.w	r1, #33554432	; 0x2000000
      if ((hi2s->Init.Standard == I2S_STANDARD_PCM_SHORT) ||
 80026bc:	ea4f 1555 	mov.w	r5, r5, lsr #5
      if (hi2s->Init.MCLKOutput == I2S_MCLKOUTPUT_ENABLE)
 80026c0:	d06d      	beq.n	800279e <HAL_I2S_Init+0x176>
        tmp = (uint32_t)((((i2sclk / ((32UL >> ispcm) * packetlength)) * 10UL) / hi2s->Init.AudioFreq) + 5UL);
 80026c2:	2320      	movs	r3, #32
 80026c4:	40eb      	lsrs	r3, r5
 80026c6:	fb06 f303 	mul.w	r3, r6, r3
 80026ca:	6962      	ldr	r2, [r4, #20]
 80026cc:	fbb0 f0f3 	udiv	r0, r0, r3
 80026d0:	eb00 0080 	add.w	r0, r0, r0, lsl #2
 80026d4:	0043      	lsls	r3, r0, #1
 80026d6:	fbb3 f3f2 	udiv	r3, r3, r2
      tmp = tmp / 10UL;
 80026da:	4a43      	ldr	r2, [pc, #268]	; (80027e8 <HAL_I2S_Init+0x1c0>)
        tmp = (uint32_t)((((i2sclk / ((32UL >> ispcm) * packetlength)) * 10UL) / hi2s->Init.AudioFreq) + 5UL);
 80026dc:	3305      	adds	r3, #5
      tmp = tmp / 10UL;
 80026de:	fba2 2303 	umull	r2, r3, r2, r3
      i2sdiv = (uint32_t)((tmp - i2sodd) / 2UL);
 80026e2:	091e      	lsrs	r6, r3, #4
 80026e4:	f3c3 05c0 	ubfx	r5, r3, #3, #1
    if (((i2sodd == 1UL) && (i2sdiv == 1UL)) || (i2sdiv > 0xFFUL))
 80026e8:	f1a6 0201 	sub.w	r2, r6, #1
 80026ec:	fab2 f282 	clz	r2, r2
 80026f0:	0952      	lsrs	r2, r2, #5
 80026f2:	ea12 02d3 	ands.w	r2, r2, r3, lsr #3
 80026f6:	d101      	bne.n	80026fc <HAL_I2S_Init+0xd4>
 80026f8:	2eff      	cmp	r6, #255	; 0xff
 80026fa:	d940      	bls.n	800277e <HAL_I2S_Init+0x156>
      SET_BIT(hi2s->ErrorCode, HAL_I2S_ERROR_PRESCALER);
 80026fc:	6d23      	ldr	r3, [r4, #80]	; 0x50
      return  HAL_ERROR;
 80026fe:	2001      	movs	r0, #1
      SET_BIT(hi2s->ErrorCode, HAL_I2S_ERROR_PRESCALER);
 8002700:	f043 0310 	orr.w	r3, r3, #16
 8002704:	6523      	str	r3, [r4, #80]	; 0x50
}
 8002706:	bdf8      	pop	{r3, r4, r5, r6, r7, pc}
    __HAL_I2S_DISABLE(hi2s);
 8002708:	6813      	ldr	r3, [r2, #0]
 800270a:	f023 0301 	bic.w	r3, r3, #1
 800270e:	6013      	str	r3, [r2, #0]
 8002710:	e7b1      	b.n	8002676 <HAL_I2S_Init+0x4e>
  MODIFY_REG(hi2s->Instance->I2SCFGR, (SPI_I2SCFGR_I2SMOD   | SPI_I2SCFGR_I2SCFG     | \
 8002712:	6921      	ldr	r1, [r4, #16]
 8002714:	6d17      	ldr	r7, [r2, #80]	; 0x50
 8002716:	e9d4 3602 	ldrd	r3, r6, [r4, #8]
 800271a:	4333      	orrs	r3, r6
 800271c:	4e33      	ldr	r6, [pc, #204]	; (80027ec <HAL_I2S_Init+0x1c4>)
 800271e:	403e      	ands	r6, r7
 8002720:	4333      	orrs	r3, r6
 8002722:	69a6      	ldr	r6, [r4, #24]
 8002724:	4333      	orrs	r3, r6
 8002726:	6a26      	ldr	r6, [r4, #32]
 8002728:	4333      	orrs	r3, r6
 800272a:	6a66      	ldr	r6, [r4, #36]	; 0x24
 800272c:	4333      	orrs	r3, r6
 800272e:	432b      	orrs	r3, r5
 8002730:	430b      	orrs	r3, r1
  WRITE_REG(hi2s->Instance->IFCR, 0x0FF8);
 8002732:	f640 71f8 	movw	r1, #4088	; 0xff8
  MODIFY_REG(hi2s->Instance->I2SCFGR, (SPI_I2SCFGR_I2SMOD   | SPI_I2SCFGR_I2SCFG     | \
 8002736:	f043 0301 	orr.w	r3, r3, #1
 800273a:	6513      	str	r3, [r2, #80]	; 0x50
  WRITE_REG(hi2s->Instance->IFCR, 0x0FF8);
 800273c:	6191      	str	r1, [r2, #24]
  CLEAR_BIT(hi2s->Instance->CR1, SPI_CR1_IOLOCK);
 800273e:	6813      	ldr	r3, [r2, #0]
  MODIFY_REG(hi2s->Instance->CFG2, SPI_CFG2_LSBFRST, hi2s->Init.FirstBit);
 8002740:	69e1      	ldr	r1, [r4, #28]
  CLEAR_BIT(hi2s->Instance->CR1, SPI_CR1_IOLOCK);
 8002742:	f423 3380 	bic.w	r3, r3, #65536	; 0x10000
 8002746:	6013      	str	r3, [r2, #0]
  MODIFY_REG(hi2s->Instance->CFG2, SPI_CFG2_LSBFRST, hi2s->Init.FirstBit);
 8002748:	68d3      	ldr	r3, [r2, #12]
 800274a:	f423 0300 	bic.w	r3, r3, #8388608	; 0x800000
 800274e:	430b      	orrs	r3, r1
 8002750:	60d3      	str	r3, [r2, #12]
  if (IS_I2S_MASTER(hi2s->Init.Mode))
 8002752:	b128      	cbz	r0, 8002760 <HAL_I2S_Init+0x138>
    MODIFY_REG(hi2s->Instance->CFG2, SPI_CFG2_AFCNTR, (hi2s->Init.MasterKeepIOState));
 8002754:	68d3      	ldr	r3, [r2, #12]
 8002756:	6aa1      	ldr	r1, [r4, #40]	; 0x28
 8002758:	f023 4300 	bic.w	r3, r3, #2147483648	; 0x80000000
 800275c:	430b      	orrs	r3, r1
 800275e:	60d3      	str	r3, [r2, #12]
  hi2s->ErrorCode = HAL_I2S_ERROR_NONE;
 8002760:	2000      	movs	r0, #0
  hi2s->State     = HAL_I2S_STATE_READY;
 8002762:	2301      	movs	r3, #1
  hi2s->ErrorCode = HAL_I2S_ERROR_NONE;
 8002764:	6520      	str	r0, [r4, #80]	; 0x50
  hi2s->State     = HAL_I2S_STATE_READY;
 8002766:	f884 304d 	strb.w	r3, [r4, #77]	; 0x4d
}
 800276a:	bdf8      	pop	{r3, r4, r5, r6, r7, pc}
  MODIFY_REG(hi2s->Instance->I2SCFGR, (SPI_I2SCFGR_I2SMOD   | SPI_I2SCFGR_I2SCFG     | \
 800276c:	6921      	ldr	r1, [r4, #16]
 800276e:	f44f 3600 	mov.w	r6, #131072	; 0x20000
    MODIFY_REG(hi2s->Instance->I2SCFGR, (SPI_I2SCFGR_I2SDIV                 | SPI_I2SCFGR_ODD),
 8002772:	6d17      	ldr	r7, [r2, #80]	; 0x50
 8002774:	4b1e      	ldr	r3, [pc, #120]	; (80027f0 <HAL_I2S_Init+0x1c8>)
 8002776:	403b      	ands	r3, r7
 8002778:	4333      	orrs	r3, r6
 800277a:	6513      	str	r3, [r2, #80]	; 0x50
 800277c:	e7ca      	b.n	8002714 <HAL_I2S_Init+0xec>
    if (i2sdiv == 0UL)
 800277e:	b9b6      	cbnz	r6, 80027ae <HAL_I2S_Init+0x186>
  if (IS_I2S_MASTER(hi2s->Init.Mode))
 8002780:	f04f 7680 	mov.w	r6, #16777216	; 0x1000000
    MODIFY_REG(hi2s->Instance->I2SCFGR, (SPI_I2SCFGR_I2SDIV                 | SPI_I2SCFGR_ODD),
 8002784:	e9d4 2500 	ldrd	r2, r5, [r4]
  if (IS_I2S_MASTER(hi2s->Init.Mode))
 8002788:	f025 0002 	bic.w	r0, r5, #2
 800278c:	2d0a      	cmp	r5, #10
 800278e:	bf18      	it	ne
 8002790:	2804      	cmpne	r0, #4
 8002792:	bf0c      	ite	eq
 8002794:	2001      	moveq	r0, #1
 8002796:	2000      	movne	r0, #0
 8002798:	e7eb      	b.n	8002772 <HAL_I2S_Init+0x14a>
    return HAL_ERROR;
 800279a:	2001      	movs	r0, #1
}
 800279c:	4770      	bx	lr
        tmp = (uint32_t)((((i2sclk / (256UL >> ispcm)) * 10UL) / hi2s->Init.AudioFreq) + 5UL);
 800279e:	f44f 7380 	mov.w	r3, #256	; 0x100
 80027a2:	40eb      	lsrs	r3, r5
 80027a4:	e791      	b.n	80026ca <HAL_I2S_Init+0xa2>
      hi2s->MspInitCallback = HAL_I2S_MspInit; /* Legacy weak MspInit  */
 80027a6:	4a13      	ldr	r2, [pc, #76]	; (80027f4 <HAL_I2S_Init+0x1cc>)
 80027a8:	4613      	mov	r3, r2
 80027aa:	6722      	str	r2, [r4, #112]	; 0x70
 80027ac:	e75a      	b.n	8002664 <HAL_I2S_Init+0x3c>
    MODIFY_REG(hi2s->Instance->I2SCFGR, (SPI_I2SCFGR_I2SDIV                 | SPI_I2SCFGR_ODD),
 80027ae:	062d      	lsls	r5, r5, #24
 80027b0:	6822      	ldr	r2, [r4, #0]
 80027b2:	ea45 4606 	orr.w	r6, r5, r6, lsl #16
  MODIFY_REG(hi2s->Instance->I2SCFGR, (SPI_I2SCFGR_I2SMOD   | SPI_I2SCFGR_I2SCFG     | \
 80027b6:	6865      	ldr	r5, [r4, #4]
  if (IS_I2S_MASTER(hi2s->Init.Mode))
 80027b8:	f025 0002 	bic.w	r0, r5, #2
 80027bc:	2d0a      	cmp	r5, #10
 80027be:	bf18      	it	ne
 80027c0:	2804      	cmpne	r0, #4
 80027c2:	bf0c      	ite	eq
 80027c4:	2001      	moveq	r0, #1
 80027c6:	2000      	movne	r0, #0
 80027c8:	e7d3      	b.n	8002772 <HAL_I2S_Init+0x14a>
 80027ca:	bf00      	nop
 80027cc:	08000801 	.word	0x08000801
 80027d0:	08002625 	.word	0x08002625
 80027d4:	080007a5 	.word	0x080007a5
 80027d8:	080007c1 	.word	0x080007c1
 80027dc:	080007e5 	.word	0x080007e5
 80027e0:	0800261d 	.word	0x0800261d
 80027e4:	08002621 	.word	0x08002621
 80027e8:	cccccccd 	.word	0xcccccccd
 80027ec:	fdff9040 	.word	0xfdff9040
 80027f0:	fe00ffff 	.word	0xfe00ffff
 80027f4:	08000ce5 	.word	0x08000ce5

080027f8 <HAL_I2S_Transmit_DMA>:
  if ((pData == NULL) || (Size == 0UL))
 80027f8:	2900      	cmp	r1, #0
 80027fa:	d04e      	beq.n	800289a <HAL_I2S_Transmit_DMA+0xa2>
{
 80027fc:	b5f8      	push	{r3, r4, r5, r6, r7, lr}
  if ((pData == NULL) || (Size == 0UL))
 80027fe:	fab2 f582 	clz	r5, r2
 8002802:	096d      	lsrs	r5, r5, #5
 8002804:	2a00      	cmp	r2, #0
 8002806:	d03c      	beq.n	8002882 <HAL_I2S_Transmit_DMA+0x8a>
 8002808:	4604      	mov	r4, r0
  if (hi2s->State != HAL_I2S_STATE_READY)
 800280a:	f890 004d 	ldrb.w	r0, [r0, #77]	; 0x4d
 800280e:	2801      	cmp	r0, #1
 8002810:	b2c6      	uxtb	r6, r0
 8002812:	d134      	bne.n	800287e <HAL_I2S_Transmit_DMA+0x86>
  __HAL_LOCK(hi2s);
 8002814:	f894 004c 	ldrb.w	r0, [r4, #76]	; 0x4c
 8002818:	2801      	cmp	r0, #1
 800281a:	d030      	beq.n	800287e <HAL_I2S_Transmit_DMA+0x86>
  hi2s->hdmatx->XferHalfCpltCallback = I2S_DMATxHalfCplt;
 800281c:	6c60      	ldr	r0, [r4, #68]	; 0x44
  hi2s->State       = HAL_I2S_STATE_BUSY_TX;
 800281e:	2303      	movs	r3, #3
  hi2s->hdmatx->XferHalfCpltCallback = I2S_DMATxHalfCplt;
 8002820:	4f1f      	ldr	r7, [pc, #124]	; (80028a0 <HAL_I2S_Transmit_DMA+0xa8>)
  __HAL_LOCK(hi2s);
 8002822:	f884 604c 	strb.w	r6, [r4, #76]	; 0x4c
  hi2s->pTxBuffPtr  = (const uint16_t *)pData;
 8002826:	62e1      	str	r1, [r4, #44]	; 0x2c
  hi2s->State       = HAL_I2S_STATE_BUSY_TX;
 8002828:	f884 304d 	strb.w	r3, [r4, #77]	; 0x4d
  hi2s->pRxBuffPtr  = NULL;
 800282c:	6365      	str	r5, [r4, #52]	; 0x34
  hi2s->ErrorCode   = HAL_I2S_ERROR_NONE;
 800282e:	6525      	str	r5, [r4, #80]	; 0x50
  hi2s->TxXferSize  = Size;
 8002830:	8622      	strh	r2, [r4, #48]	; 0x30
  hi2s->TxXferCount = Size;
 8002832:	8662      	strh	r2, [r4, #50]	; 0x32
  hi2s->RxXferSize  = (uint16_t)0UL;
 8002834:	8725      	strh	r5, [r4, #56]	; 0x38
  if (HAL_OK != HAL_DMA_Start_IT(hi2s->hdmatx, (uint32_t)hi2s->pTxBuffPtr, (uint32_t)&hi2s->Instance->TXDR,
 8002836:	6822      	ldr	r2, [r4, #0]
  hi2s->RxXferCount = (uint16_t)0UL;
 8002838:	8765      	strh	r5, [r4, #58]	; 0x3a
                                 hi2s->TxXferCount))
 800283a:	8e63      	ldrh	r3, [r4, #50]	; 0x32
  if (HAL_OK != HAL_DMA_Start_IT(hi2s->hdmatx, (uint32_t)hi2s->pTxBuffPtr, (uint32_t)&hi2s->Instance->TXDR,
 800283c:	3220      	adds	r2, #32
  hi2s->hdmatx->XferHalfCpltCallback = I2S_DMATxHalfCplt;
 800283e:	6407      	str	r7, [r0, #64]	; 0x40
  hi2s->hdmatx->XferCpltCallback = I2S_DMATxCplt;
 8002840:	4f18      	ldr	r7, [pc, #96]	; (80028a4 <HAL_I2S_Transmit_DMA+0xac>)
  if (HAL_OK != HAL_DMA_Start_IT(hi2s->hdmatx, (uint32_t)hi2s->pTxBuffPtr, (uint32_t)&hi2s->Instance->TXDR,
 8002842:	b29b      	uxth	r3, r3
  hi2s->hdmatx->XferCpltCallback = I2S_DMATxCplt;
 8002844:	63c7      	str	r7, [r0, #60]	; 0x3c
  hi2s->hdmatx->XferErrorCallback = I2S_DMAError;
 8002846:	4f18      	ldr	r7, [pc, #96]	; (80028a8 <HAL_I2S_Transmit_DMA+0xb0>)
 8002848:	64c7      	str	r7, [r0, #76]	; 0x4c
  if (HAL_OK != HAL_DMA_Start_IT(hi2s->hdmatx, (uint32_t)hi2s->pTxBuffPtr, (uint32_t)&hi2s->Instance->TXDR,
 800284a:	f7ff f88f 	bl	800196c <HAL_DMA_Start_IT>
 800284e:	b9d0      	cbnz	r0, 8002886 <HAL_I2S_Transmit_DMA+0x8e>
  if (HAL_IS_BIT_CLR(hi2s->Instance->CFG1, SPI_CFG1_TXDMAEN))
 8002850:	6823      	ldr	r3, [r4, #0]
 8002852:	689a      	ldr	r2, [r3, #8]
 8002854:	0411      	lsls	r1, r2, #16
 8002856:	d403      	bmi.n	8002860 <HAL_I2S_Transmit_DMA+0x68>
    SET_BIT(hi2s->Instance->CFG1, SPI_CFG1_TXDMAEN);
 8002858:	689a      	ldr	r2, [r3, #8]
 800285a:	f442 4200 	orr.w	r2, r2, #32768	; 0x8000
 800285e:	609a      	str	r2, [r3, #8]
  if (HAL_IS_BIT_CLR(hi2s->Instance->CR1, SPI_CR1_SPE))
 8002860:	681a      	ldr	r2, [r3, #0]
 8002862:	07d2      	lsls	r2, r2, #31
 8002864:	d403      	bmi.n	800286e <HAL_I2S_Transmit_DMA+0x76>
    __HAL_I2S_ENABLE(hi2s);
 8002866:	681a      	ldr	r2, [r3, #0]
 8002868:	f042 0201 	orr.w	r2, r2, #1
 800286c:	601a      	str	r2, [r3, #0]
  SET_BIT(hi2s->Instance->CR1, SPI_CR1_CSTART);
 800286e:	681a      	ldr	r2, [r3, #0]
  __HAL_UNLOCK(hi2s);
 8002870:	2100      	movs	r1, #0
  SET_BIT(hi2s->Instance->CR1, SPI_CR1_CSTART);
 8002872:	f442 7200 	orr.w	r2, r2, #512	; 0x200
 8002876:	601a      	str	r2, [r3, #0]
  __HAL_UNLOCK(hi2s);
 8002878:	f884 104c 	strb.w	r1, [r4, #76]	; 0x4c
}
 800287c:	bdf8      	pop	{r3, r4, r5, r6, r7, pc}
    return HAL_BUSY;
 800287e:	2002      	movs	r0, #2
}
 8002880:	bdf8      	pop	{r3, r4, r5, r6, r7, pc}
    return  HAL_ERROR;
 8002882:	2001      	movs	r0, #1
}
 8002884:	bdf8      	pop	{r3, r4, r5, r6, r7, pc}
    SET_BIT(hi2s->ErrorCode, HAL_I2S_ERROR_DMA);
 8002886:	6d23      	ldr	r3, [r4, #80]	; 0x50
    return errorcode;
 8002888:	4630      	mov	r0, r6
    SET_BIT(hi2s->ErrorCode, HAL_I2S_ERROR_DMA);
 800288a:	f043 0308 	orr.w	r3, r3, #8
 800288e:	6523      	str	r3, [r4, #80]	; 0x50
    hi2s->State = HAL_I2S_STATE_READY;
 8002890:	f884 604d 	strb.w	r6, [r4, #77]	; 0x4d
    __HAL_UNLOCK(hi2s);
 8002894:	f884 504c 	strb.w	r5, [r4, #76]	; 0x4c
}
 8002898:	bdf8      	pop	{r3, r4, r5, r6, r7, pc}
    return  HAL_ERROR;
 800289a:	2001      	movs	r0, #1
}
 800289c:	4770      	bx	lr
 800289e:	bf00      	nop
 80028a0:	080025c5 	.word	0x080025c5
 80028a4:	080025a5 	.word	0x080025a5
 80028a8:	080025f5 	.word	0x080025f5

080028ac <HAL_I2S_Receive_DMA>:
  if ((pData == NULL) || (Size == 0UL))
 80028ac:	2900      	cmp	r1, #0
 80028ae:	d050      	beq.n	8002952 <HAL_I2S_Receive_DMA+0xa6>
{
 80028b0:	b5f8      	push	{r3, r4, r5, r6, r7, lr}
  if ((pData == NULL) || (Size == 0UL))
 80028b2:	fab2 f582 	clz	r5, r2
 80028b6:	4613      	mov	r3, r2
 80028b8:	096d      	lsrs	r5, r5, #5
 80028ba:	2a00      	cmp	r2, #0
 80028bc:	d03d      	beq.n	800293a <HAL_I2S_Receive_DMA+0x8e>
  if (hi2s->State != HAL_I2S_STATE_READY)
 80028be:	f890 204d 	ldrb.w	r2, [r0, #77]	; 0x4d
 80028c2:	4604      	mov	r4, r0
 80028c4:	2a01      	cmp	r2, #1
 80028c6:	b2d6      	uxtb	r6, r2
 80028c8:	d135      	bne.n	8002936 <HAL_I2S_Receive_DMA+0x8a>
  __HAL_LOCK(hi2s);
 80028ca:	f890 204c 	ldrb.w	r2, [r0, #76]	; 0x4c
 80028ce:	2a01      	cmp	r2, #1
 80028d0:	d031      	beq.n	8002936 <HAL_I2S_Receive_DMA+0x8a>
  hi2s->pRxBuffPtr  = pData;
 80028d2:	6341      	str	r1, [r0, #52]	; 0x34
  if (HAL_OK != HAL_DMA_Start_IT(hi2s->hdmarx, (uint32_t)&hi2s->Instance->RXDR, (uint32_t)hi2s->pRxBuffPtr,
 80028d4:	460a      	mov	r2, r1
  hi2s->State       = HAL_I2S_STATE_BUSY_RX;
 80028d6:	2104      	movs	r1, #4
  __HAL_LOCK(hi2s);
 80028d8:	f880 604c 	strb.w	r6, [r0, #76]	; 0x4c
  hi2s->pTxBuffPtr  = NULL;
 80028dc:	62c5      	str	r5, [r0, #44]	; 0x2c
  hi2s->State       = HAL_I2S_STATE_BUSY_RX;
 80028de:	f880 104d 	strb.w	r1, [r0, #77]	; 0x4d
  hi2s->hdmarx->XferHalfCpltCallback = I2S_DMARxHalfCplt;
 80028e2:	4f1d      	ldr	r7, [pc, #116]	; (8002958 <HAL_I2S_Receive_DMA+0xac>)
  hi2s->ErrorCode   = HAL_I2S_ERROR_NONE;
 80028e4:	6505      	str	r5, [r0, #80]	; 0x50
  hi2s->RxXferSize  = Size;
 80028e6:	8703      	strh	r3, [r0, #56]	; 0x38
  hi2s->RxXferCount = Size;
 80028e8:	8743      	strh	r3, [r0, #58]	; 0x3a
  hi2s->hdmarx->XferHalfCpltCallback = I2S_DMARxHalfCplt;
 80028ea:	6c80      	ldr	r0, [r0, #72]	; 0x48
  if (HAL_OK != HAL_DMA_Start_IT(hi2s->hdmarx, (uint32_t)&hi2s->Instance->RXDR, (uint32_t)hi2s->pRxBuffPtr,
 80028ec:	6821      	ldr	r1, [r4, #0]
  hi2s->TxXferSize  = (uint16_t)0UL;
 80028ee:	8625      	strh	r5, [r4, #48]	; 0x30
  hi2s->TxXferCount = (uint16_t)0UL;
 80028f0:	8665      	strh	r5, [r4, #50]	; 0x32
  if (HAL_OK != HAL_DMA_Start_IT(hi2s->hdmarx, (uint32_t)&hi2s->Instance->RXDR, (uint32_t)hi2s->pRxBuffPtr,
 80028f2:	3130      	adds	r1, #48	; 0x30
                                 hi2s->RxXferCount))
 80028f4:	8f63      	ldrh	r3, [r4, #58]	; 0x3a
  hi2s->hdmarx->XferHalfCpltCallback = I2S_DMARxHalfCplt;
 80028f6:	6407      	str	r7, [r0, #64]	; 0x40
  hi2s->hdmarx->XferCpltCallback = I2S_DMARxCplt;
 80028f8:	4f18      	ldr	r7, [pc, #96]	; (800295c <HAL_I2S_Receive_DMA+0xb0>)
  if (HAL_OK != HAL_DMA_Start_IT(hi2s->hdmarx, (uint32_t)&hi2s->Instance->RXDR, (uint32_t)hi2s->pRxBuffPtr,
 80028fa:	b29b      	uxth	r3, r3
  hi2s->hdmarx->XferCpltCallback = I2S_DMARxCplt;
 80028fc:	63c7      	str	r7, [r0, #60]	; 0x3c
  hi2s->hdmarx->XferErrorCallback = I2S_DMAError;
 80028fe:	4f18      	ldr	r7, [pc, #96]	; (8002960 <HAL_I2S_Receive_DMA+0xb4>)
 8002900:	64c7      	str	r7, [r0, #76]	; 0x4c
  if (HAL_OK != HAL_DMA_Start_IT(hi2s->hdmarx, (uint32_t)&hi2s->Instance->RXDR, (uint32_t)hi2s->pRxBuffPtr,
 8002902:	f7ff f833 	bl	800196c <HAL_DMA_Start_IT>
 8002906:	b9d0      	cbnz	r0, 800293e <HAL_I2S_Receive_DMA+0x92>
  if (HAL_IS_BIT_CLR(hi2s->Instance->CFG1, SPI_CFG1_RXDMAEN))
 8002908:	6823      	ldr	r3, [r4, #0]
 800290a:	689a      	ldr	r2, [r3, #8]
 800290c:	0451      	lsls	r1, r2, #17
 800290e:	d403      	bmi.n	8002918 <HAL_I2S_Receive_DMA+0x6c>
    SET_BIT(hi2s->Instance->CFG1, SPI_CFG1_RXDMAEN);
 8002910:	689a      	ldr	r2, [r3, #8]
 8002912:	f442 4280 	orr.w	r2, r2, #16384	; 0x4000
 8002916:	609a      	str	r2, [r3, #8]
  if (HAL_IS_BIT_CLR(hi2s->Instance->CR1, SPI_CR1_SPE))
 8002918:	681a      	ldr	r2, [r3, #0]
 800291a:	07d2      	lsls	r2, r2, #31
 800291c:	d403      	bmi.n	8002926 <HAL_I2S_Receive_DMA+0x7a>
    __HAL_I2S_ENABLE(hi2s);
 800291e:	681a      	ldr	r2, [r3, #0]
 8002920:	f042 0201 	orr.w	r2, r2, #1
 8002924:	601a      	str	r2, [r3, #0]
  SET_BIT(hi2s->Instance->CR1, SPI_CR1_CSTART);
 8002926:	681a      	ldr	r2, [r3, #0]
  __HAL_UNLOCK(hi2s);
 8002928:	2100      	movs	r1, #0
  SET_BIT(hi2s->Instance->CR1, SPI_CR1_CSTART);
 800292a:	f442 7200 	orr.w	r2, r2, #512	; 0x200
 800292e:	601a      	str	r2, [r3, #0]
  __HAL_UNLOCK(hi2s);
 8002930:	f884 104c 	strb.w	r1, [r4, #76]	; 0x4c
}
 8002934:	bdf8      	pop	{r3, r4, r5, r6, r7, pc}
    return HAL_BUSY;
 8002936:	2002      	movs	r0, #2
}
 8002938:	bdf8      	pop	{r3, r4, r5, r6, r7, pc}
    return HAL_ERROR;
 800293a:	2001      	movs	r0, #1
}
 800293c:	bdf8      	pop	{r3, r4, r5, r6, r7, pc}
    SET_BIT(hi2s->ErrorCode, HAL_I2S_ERROR_DMA);
 800293e:	6d23      	ldr	r3, [r4, #80]	; 0x50
    return errorcode;
 8002940:	4630      	mov	r0, r6
    SET_BIT(hi2s->ErrorCode, HAL_I2S_ERROR_DMA);
 8002942:	f043 0308 	orr.w	r3, r3, #8
 8002946:	6523      	str	r3, [r4, #80]	; 0x50
    hi2s->State = HAL_I2S_STATE_READY;
 8002948:	f884 604d 	strb.w	r6, [r4, #77]	; 0x4d
    __HAL_UNLOCK(hi2s);
 800294c:	f884 504c 	strb.w	r5, [r4, #76]	; 0x4c
}
 8002950:	bdf8      	pop	{r3, r4, r5, r6, r7, pc}
    return HAL_ERROR;
 8002952:	2001      	movs	r0, #1
}
 8002954:	4770      	bx	lr
 8002956:	bf00      	nop
 8002958:	080025ed 	.word	0x080025ed
 800295c:	080025cd 	.word	0x080025cd
 8002960:	080025f5 	.word	0x080025f5

08002964 <HAL_PWREx_ConfigSupply>:
  *         PWR_SMPS_2V5_SUPPLIES_EXT are used only for lines that supports SMPS
  *         regulator.
  * @retval HAL status.
  */
HAL_StatusTypeDef HAL_PWREx_ConfigSupply (uint32_t SupplySource)
{
 8002964:	b570      	push	{r4, r5, r6, lr}

  /* Check if supply source was configured */
#if defined (PWR_FLAG_SCUEN)
  if (__HAL_PWR_GET_FLAG (PWR_FLAG_SCUEN) == 0U)
#else
  if ((PWR->CR3 & (PWR_CR3_SMPSEN | PWR_CR3_LDOEN | PWR_CR3_BYPASS)) != (PWR_CR3_SMPSEN | PWR_CR3_LDOEN))
 8002966:	4c1c      	ldr	r4, [pc, #112]	; (80029d8 <HAL_PWREx_ConfigSupply+0x74>)
{
 8002968:	4605      	mov	r5, r0
  if ((PWR->CR3 & (PWR_CR3_SMPSEN | PWR_CR3_LDOEN | PWR_CR3_BYPASS)) != (PWR_CR3_SMPSEN | PWR_CR3_LDOEN))
 800296a:	68e3      	ldr	r3, [r4, #12]
 800296c:	f003 0307 	and.w	r3, r3, #7
 8002970:	2b06      	cmp	r3, #6
#endif /* defined (PWR_FLAG_SCUEN) */
  {
    /* Check supply configuration */
    if ((PWR->CR3 & PWR_SUPPLY_CONFIG_MASK) != SupplySource)
 8002972:	68e3      	ldr	r3, [r4, #12]
  if ((PWR->CR3 & (PWR_CR3_SMPSEN | PWR_CR3_LDOEN | PWR_CR3_BYPASS)) != (PWR_CR3_SMPSEN | PWR_CR3_LDOEN))
 8002974:	d005      	beq.n	8002982 <HAL_PWREx_ConfigSupply+0x1e>
    if ((PWR->CR3 & PWR_SUPPLY_CONFIG_MASK) != SupplySource)
 8002976:	f003 033f 	and.w	r3, r3, #63	; 0x3f
    {
      /* Supply configuration update locked, can't apply a new supply config */
      return HAL_ERROR;
 800297a:	1a18      	subs	r0, r3, r0
 800297c:	bf18      	it	ne
 800297e:	2001      	movne	r0, #1
    }
  }
#endif /* defined (SMPS) */

  return HAL_OK;
}
 8002980:	bd70      	pop	{r4, r5, r6, pc}
  MODIFY_REG (PWR->CR3, PWR_SUPPLY_CONFIG_MASK, SupplySource);
 8002982:	f023 033f 	bic.w	r3, r3, #63	; 0x3f
 8002986:	4303      	orrs	r3, r0
 8002988:	60e3      	str	r3, [r4, #12]
  tickstart = HAL_GetTick ();
 800298a:	f7fe fbdd 	bl	8001148 <HAL_GetTick>
 800298e:	4606      	mov	r6, r0
  while (__HAL_PWR_GET_FLAG (PWR_FLAG_ACTVOSRDY) == 0U)
 8002990:	e005      	b.n	800299e <HAL_PWREx_ConfigSupply+0x3a>
    if ((HAL_GetTick () - tickstart) > PWR_FLAG_SETTING_DELAY)
 8002992:	f7fe fbd9 	bl	8001148 <HAL_GetTick>
 8002996:	1b83      	subs	r3, r0, r6
 8002998:	f5b3 7f7a 	cmp.w	r3, #1000	; 0x3e8
 800299c:	d81a      	bhi.n	80029d4 <HAL_PWREx_ConfigSupply+0x70>
  while (__HAL_PWR_GET_FLAG (PWR_FLAG_ACTVOSRDY) == 0U)
 800299e:	6863      	ldr	r3, [r4, #4]
 80029a0:	049a      	lsls	r2, r3, #18
 80029a2:	d5f6      	bpl.n	8002992 <HAL_PWREx_ConfigSupply+0x2e>
      (SupplySource == PWR_SMPS_1V8_SUPPLIES_EXT)         ||
 80029a4:	f1a5 031d 	sub.w	r3, r5, #29
 80029a8:	2b01      	cmp	r3, #1
 80029aa:	d904      	bls.n	80029b6 <HAL_PWREx_ConfigSupply+0x52>
      (SupplySource == PWR_SMPS_2V5_SUPPLIES_EXT))
 80029ac:	3d2d      	subs	r5, #45	; 0x2d
      (SupplySource == PWR_SMPS_1V8_SUPPLIES_EXT)         ||
 80029ae:	2d01      	cmp	r5, #1
 80029b0:	d901      	bls.n	80029b6 <HAL_PWREx_ConfigSupply+0x52>
  return HAL_OK;
 80029b2:	2000      	movs	r0, #0
}
 80029b4:	bd70      	pop	{r4, r5, r6, pc}
    tickstart = HAL_GetTick ();
 80029b6:	f7fe fbc7 	bl	8001148 <HAL_GetTick>
    while (__HAL_PWR_GET_FLAG (PWR_FLAG_SMPSEXTRDY) == 0U)
 80029ba:	4d07      	ldr	r5, [pc, #28]	; (80029d8 <HAL_PWREx_ConfigSupply+0x74>)
    tickstart = HAL_GetTick ();
 80029bc:	4604      	mov	r4, r0
    while (__HAL_PWR_GET_FLAG (PWR_FLAG_SMPSEXTRDY) == 0U)
 80029be:	e005      	b.n	80029cc <HAL_PWREx_ConfigSupply+0x68>
      if ((HAL_GetTick () - tickstart) > PWR_FLAG_SETTING_DELAY)
 80029c0:	f7fe fbc2 	bl	8001148 <HAL_GetTick>
 80029c4:	1b00      	subs	r0, r0, r4
 80029c6:	f5b0 7f7a 	cmp.w	r0, #1000	; 0x3e8
 80029ca:	d803      	bhi.n	80029d4 <HAL_PWREx_ConfigSupply+0x70>
    while (__HAL_PWR_GET_FLAG (PWR_FLAG_SMPSEXTRDY) == 0U)
 80029cc:	68eb      	ldr	r3, [r5, #12]
 80029ce:	03db      	lsls	r3, r3, #15
 80029d0:	d5f6      	bpl.n	80029c0 <HAL_PWREx_ConfigSupply+0x5c>
 80029d2:	e7ee      	b.n	80029b2 <HAL_PWREx_ConfigSupply+0x4e>
      return HAL_ERROR;
 80029d4:	2001      	movs	r0, #1
}
 80029d6:	bd70      	pop	{r4, r5, r6, pc}
 80029d8:	58024800 	.word	0x58024800

080029dc <HAL_RCC_GetSysClockFreq.part.0>:
    case RCC_CFGR_SWS_PLL1:  /* PLL1 used as system clock  source */

      /* PLL_VCO = (HSE_VALUE or HSI_VALUE or CSI_VALUE/ PLLM) * PLLN
      SYSCLK = PLL_VCO / PLLR
      */
      pllsource = (RCC->PLLCKSELR & RCC_PLLCKSELR_PLLSRC);
 80029dc:	4b3c      	ldr	r3, [pc, #240]	; (8002ad0 <HAL_RCC_GetSysClockFreq.part.0+0xf4>)
uint32_t HAL_RCC_GetSysClockFreq(void)
 80029de:	b430      	push	{r4, r5}
      pllsource = (RCC->PLLCKSELR & RCC_PLLCKSELR_PLLSRC);
 80029e0:	6a9a      	ldr	r2, [r3, #40]	; 0x28
      pllm = ((RCC->PLLCKSELR & RCC_PLLCKSELR_DIVM1) >> 4)  ;
 80029e2:	6a9c      	ldr	r4, [r3, #40]	; 0x28
      pllfracen = ((RCC-> PLLCFGR & RCC_PLLCFGR_PLL1FRACEN) >> RCC_PLLCFGR_PLL1FRACEN_Pos);
 80029e4:	6add      	ldr	r5, [r3, #44]	; 0x2c
      fracn1 = (float_t)(uint32_t)(pllfracen * ((RCC->PLL1FRACR & RCC_PLL1FRACR_FRACN1) >> 3));

      if (pllm != 0U)
 80029e6:	f414 7f7c 	tst.w	r4, #1008	; 0x3f0
      fracn1 = (float_t)(uint32_t)(pllfracen * ((RCC->PLL1FRACR & RCC_PLL1FRACR_FRACN1) >> 3));
 80029ea:	6b59      	ldr	r1, [r3, #52]	; 0x34
      pllm = ((RCC->PLLCKSELR & RCC_PLLCKSELR_DIVM1) >> 4)  ;
 80029ec:	f3c4 1005 	ubfx	r0, r4, #4, #6
      if (pllm != 0U)
 80029f0:	d038      	beq.n	8002a64 <HAL_RCC_GetSysClockFreq.part.0+0x88>
      fracn1 = (float_t)(uint32_t)(pllfracen * ((RCC->PLL1FRACR & RCC_PLL1FRACR_FRACN1) >> 3));
 80029f2:	f3c1 01cc 	ubfx	r1, r1, #3, #13
      pllfracen = ((RCC-> PLLCFGR & RCC_PLLCFGR_PLL1FRACEN) >> RCC_PLLCFGR_PLL1FRACEN_Pos);
 80029f6:	f005 0501 	and.w	r5, r5, #1
      pllsource = (RCC->PLLCKSELR & RCC_PLLCKSELR_PLLSRC);
 80029fa:	f002 0203 	and.w	r2, r2, #3
      fracn1 = (float_t)(uint32_t)(pllfracen * ((RCC->PLL1FRACR & RCC_PLL1FRACR_FRACN1) >> 3));
 80029fe:	fb05 f101 	mul.w	r1, r5, r1
 8002a02:	2a01      	cmp	r2, #1
 8002a04:	ee07 1a90 	vmov	s15, r1
 8002a08:	eeb8 7ae7 	vcvt.f32.s32	s14, s15
      {
        switch (pllsource)
 8002a0c:	d002      	beq.n	8002a14 <HAL_RCC_GetSysClockFreq.part.0+0x38>
 8002a0e:	2a02      	cmp	r2, #2
 8002a10:	d050      	beq.n	8002ab4 <HAL_RCC_GetSysClockFreq.part.0+0xd8>
 8002a12:	b34a      	cbz	r2, 8002a68 <HAL_RCC_GetSysClockFreq.part.0+0x8c>
          case RCC_PLLSOURCE_HSE:  /* HSE used as PLL clock source */
            pllvco = ((float_t)HSE_VALUE / (float_t)pllm) * ((float_t)(uint32_t)(RCC->PLL1DIVR & RCC_PLL1DIVR_N1) + (fracn1 / (float_t)0x2000) + (float_t)1);
            break;

          default:
            pllvco = ((float_t)CSI_VALUE / (float_t)pllm) * ((float_t)(uint32_t)(RCC->PLL1DIVR & RCC_PLL1DIVR_N1) + (fracn1 / (float_t)0x2000) + (float_t)1);
 8002a14:	ee07 0a90 	vmov	s15, r0
 8002a18:	ed9f 5a2e 	vldr	s10, [pc, #184]	; 8002ad4 <HAL_RCC_GetSysClockFreq.part.0+0xf8>
 8002a1c:	eef8 7ae7 	vcvt.f32.s32	s15, s15
 8002a20:	6b1b      	ldr	r3, [r3, #48]	; 0x30
 8002a22:	eec5 6a27 	vdiv.f32	s13, s10, s15
 8002a26:	ed9f 6a2c 	vldr	s12, [pc, #176]	; 8002ad8 <HAL_RCC_GetSysClockFreq.part.0+0xfc>
 8002a2a:	f3c3 0308 	ubfx	r3, r3, #0, #9
 8002a2e:	ee07 3a90 	vmov	s15, r3
 8002a32:	eef7 5a00 	vmov.f32	s11, #112	; 0x3f800000  1.0
 8002a36:	eef8 7ae7 	vcvt.f32.s32	s15, s15
 8002a3a:	ee77 7aa5 	vadd.f32	s15, s15, s11
 8002a3e:	eee7 7a06 	vfma.f32	s15, s14, s12
 8002a42:	ee66 6aa7 	vmul.f32	s13, s13, s15
            break;
        }
        pllp = (((RCC->PLL1DIVR & RCC_PLL1DIVR_P1) >> 9) + 1U) ;
 8002a46:	4b22      	ldr	r3, [pc, #136]	; (8002ad0 <HAL_RCC_GetSysClockFreq.part.0+0xf4>)
 8002a48:	6b1b      	ldr	r3, [r3, #48]	; 0x30
 8002a4a:	f3c3 2346 	ubfx	r3, r3, #9, #7
 8002a4e:	3301      	adds	r3, #1
        sysclockfreq = (uint32_t)(float_t)(pllvco / (float_t)pllp);
 8002a50:	ee07 3a90 	vmov	s15, r3
 8002a54:	eeb8 7ae7 	vcvt.f32.s32	s14, s15
 8002a58:	eec6 7a87 	vdiv.f32	s15, s13, s14
 8002a5c:	eefc 7ae7 	vcvt.u32.f32	s15, s15
 8002a60:	ee17 0a90 	vmov	r0, s15
      sysclockfreq = CSI_VALUE;
      break;
  }

  return sysclockfreq;
}
 8002a64:	bc30      	pop	{r4, r5}
 8002a66:	4770      	bx	lr
            if (__HAL_RCC_GET_FLAG(RCC_FLAG_HSIDIV) != 0U)
 8002a68:	681a      	ldr	r2, [r3, #0]
 8002a6a:	0692      	lsls	r2, r2, #26
 8002a6c:	d529      	bpl.n	8002ac2 <HAL_RCC_GetSysClockFreq.part.0+0xe6>
              hsivalue = (HSI_VALUE >> (__HAL_RCC_GET_HSI_DIVIDER() >> 3));
 8002a6e:	6819      	ldr	r1, [r3, #0]
              pllvco = ((float_t)hsivalue / (float_t)pllm) * ((float_t)(uint32_t)(RCC->PLL1DIVR & RCC_PLL1DIVR_N1) + (fracn1 / (float_t)0x2000) + (float_t)1);
 8002a70:	ee07 0a90 	vmov	s15, r0
              hsivalue = (HSI_VALUE >> (__HAL_RCC_GET_HSI_DIVIDER() >> 3));
 8002a74:	4a19      	ldr	r2, [pc, #100]	; (8002adc <HAL_RCC_GetSysClockFreq.part.0+0x100>)
              pllvco = ((float_t)hsivalue / (float_t)pllm) * ((float_t)(uint32_t)(RCC->PLL1DIVR & RCC_PLL1DIVR_N1) + (fracn1 / (float_t)0x2000) + (float_t)1);
 8002a76:	eef7 6a00 	vmov.f32	s13, #112	; 0x3f800000  1.0
 8002a7a:	6b1b      	ldr	r3, [r3, #48]	; 0x30
              hsivalue = (HSI_VALUE >> (__HAL_RCC_GET_HSI_DIVIDER() >> 3));
 8002a7c:	f3c1 01c1 	ubfx	r1, r1, #3, #2
              pllvco = ((float_t)hsivalue / (float_t)pllm) * ((float_t)(uint32_t)(RCC->PLL1DIVR & RCC_PLL1DIVR_N1) + (fracn1 / (float_t)0x2000) + (float_t)1);
 8002a80:	eef8 7ae7 	vcvt.f32.s32	s15, s15
 8002a84:	ed9f 5a14 	vldr	s10, [pc, #80]	; 8002ad8 <HAL_RCC_GetSysClockFreq.part.0+0xfc>
 8002a88:	f3c3 0308 	ubfx	r3, r3, #0, #9
              hsivalue = (HSI_VALUE >> (__HAL_RCC_GET_HSI_DIVIDER() >> 3));
 8002a8c:	40ca      	lsrs	r2, r1
              pllvco = ((float_t)hsivalue / (float_t)pllm) * ((float_t)(uint32_t)(RCC->PLL1DIVR & RCC_PLL1DIVR_N1) + (fracn1 / (float_t)0x2000) + (float_t)1);
 8002a8e:	ee06 3a10 	vmov	s12, r3
 8002a92:	ee05 2a90 	vmov	s11, r2
 8002a96:	eeb8 6ac6 	vcvt.f32.s32	s12, s12
 8002a9a:	eef8 5ae5 	vcvt.f32.s32	s11, s11
 8002a9e:	ee36 6a26 	vadd.f32	s12, s12, s13
 8002aa2:	eec5 6aa7 	vdiv.f32	s13, s11, s15
 8002aa6:	eef0 7a46 	vmov.f32	s15, s12
 8002aaa:	eee7 7a05 	vfma.f32	s15, s14, s10
 8002aae:	ee66 6aa7 	vmul.f32	s13, s13, s15
 8002ab2:	e7c8      	b.n	8002a46 <HAL_RCC_GetSysClockFreq.part.0+0x6a>
            pllvco = ((float_t)HSE_VALUE / (float_t)pllm) * ((float_t)(uint32_t)(RCC->PLL1DIVR & RCC_PLL1DIVR_N1) + (fracn1 / (float_t)0x2000) + (float_t)1);
 8002ab4:	ee07 0a90 	vmov	s15, r0
 8002ab8:	ed9f 5a09 	vldr	s10, [pc, #36]	; 8002ae0 <HAL_RCC_GetSysClockFreq.part.0+0x104>
 8002abc:	eef8 7ae7 	vcvt.f32.s32	s15, s15
 8002ac0:	e7ae      	b.n	8002a20 <HAL_RCC_GetSysClockFreq.part.0+0x44>
              pllvco = ((float_t)HSI_VALUE / (float_t)pllm) * ((float_t)(uint32_t)(RCC->PLL1DIVR & RCC_PLL1DIVR_N1) + (fracn1 / (float_t)0x2000) + (float_t)1);
 8002ac2:	ee07 0a90 	vmov	s15, r0
 8002ac6:	ed9f 5a07 	vldr	s10, [pc, #28]	; 8002ae4 <HAL_RCC_GetSysClockFreq.part.0+0x108>
 8002aca:	eef8 7ae7 	vcvt.f32.s32	s15, s15
 8002ace:	e7a7      	b.n	8002a20 <HAL_RCC_GetSysClockFreq.part.0+0x44>
 8002ad0:	58024400 	.word	0x58024400
 8002ad4:	4a742400 	.word	0x4a742400
 8002ad8:	39000000 	.word	0x39000000
 8002adc:	03d09000 	.word	0x03d09000
 8002ae0:	4bbebc20 	.word	0x4bbebc20
 8002ae4:	4c742400 	.word	0x4c742400

08002ae8 <HAL_RCC_OscConfig>:
  if (RCC_OscInitStruct == NULL)
 8002ae8:	2800      	cmp	r0, #0
 8002aea:	f000 81e8 	beq.w	8002ebe <HAL_RCC_OscConfig+0x3d6>
{
 8002aee:	b5f8      	push	{r3, r4, r5, r6, r7, lr}
  if (((RCC_OscInitStruct->OscillatorType) & RCC_OSCILLATORTYPE_HSE) == RCC_OSCILLATORTYPE_HSE)
 8002af0:	6803      	ldr	r3, [r0, #0]
 8002af2:	4604      	mov	r4, r0
 8002af4:	07d9      	lsls	r1, r3, #31
 8002af6:	d52e      	bpl.n	8002b56 <HAL_RCC_OscConfig+0x6e>
    const uint32_t temp_sysclksrc = __HAL_RCC_GET_SYSCLK_SOURCE();
 8002af8:	49a4      	ldr	r1, [pc, #656]	; (8002d8c <HAL_RCC_OscConfig+0x2a4>)
 8002afa:	690a      	ldr	r2, [r1, #16]
    const uint32_t temp_pllckselr = RCC->PLLCKSELR;
 8002afc:	6a89      	ldr	r1, [r1, #40]	; 0x28
    const uint32_t temp_sysclksrc = __HAL_RCC_GET_SYSCLK_SOURCE();
 8002afe:	f002 0238 	and.w	r2, r2, #56	; 0x38
    if ((temp_sysclksrc == RCC_CFGR_SWS_HSE) || ((temp_sysclksrc == RCC_CFGR_SWS_PLL1) && ((temp_pllckselr & RCC_PLLCKSELR_PLLSRC) == RCC_PLLCKSELR_PLLSRC_HSE)))
 8002b02:	2a10      	cmp	r2, #16
 8002b04:	f000 8107 	beq.w	8002d16 <HAL_RCC_OscConfig+0x22e>
 8002b08:	2a18      	cmp	r2, #24
 8002b0a:	f000 80ff 	beq.w	8002d0c <HAL_RCC_OscConfig+0x224>
      __HAL_RCC_HSE_CONFIG(RCC_OscInitStruct->HSEState);
 8002b0e:	6863      	ldr	r3, [r4, #4]
 8002b10:	f5b3 3f80 	cmp.w	r3, #65536	; 0x10000
 8002b14:	f000 812a 	beq.w	8002d6c <HAL_RCC_OscConfig+0x284>
 8002b18:	2b00      	cmp	r3, #0
 8002b1a:	f000 8168 	beq.w	8002dee <HAL_RCC_OscConfig+0x306>
 8002b1e:	f5b3 2fa0 	cmp.w	r3, #327680	; 0x50000
 8002b22:	4b9a      	ldr	r3, [pc, #616]	; (8002d8c <HAL_RCC_OscConfig+0x2a4>)
 8002b24:	681a      	ldr	r2, [r3, #0]
 8002b26:	f000 8289 	beq.w	800303c <HAL_RCC_OscConfig+0x554>
 8002b2a:	f422 3280 	bic.w	r2, r2, #65536	; 0x10000
 8002b2e:	601a      	str	r2, [r3, #0]
 8002b30:	681a      	ldr	r2, [r3, #0]
 8002b32:	f422 2280 	bic.w	r2, r2, #262144	; 0x40000
 8002b36:	601a      	str	r2, [r3, #0]
        tickstart = HAL_GetTick();
 8002b38:	f7fe fb06 	bl	8001148 <HAL_GetTick>
        while (__HAL_RCC_GET_FLAG(RCC_FLAG_HSERDY) == 0U)
 8002b3c:	4e93      	ldr	r6, [pc, #588]	; (8002d8c <HAL_RCC_OscConfig+0x2a4>)
        tickstart = HAL_GetTick();
 8002b3e:	4605      	mov	r5, r0
        while (__HAL_RCC_GET_FLAG(RCC_FLAG_HSERDY) == 0U)
 8002b40:	e005      	b.n	8002b4e <HAL_RCC_OscConfig+0x66>
          if ((uint32_t)(HAL_GetTick() - tickstart) > HSE_TIMEOUT_VALUE)
 8002b42:	f7fe fb01 	bl	8001148 <HAL_GetTick>
 8002b46:	1b40      	subs	r0, r0, r5
 8002b48:	2864      	cmp	r0, #100	; 0x64
 8002b4a:	f200 814e 	bhi.w	8002dea <HAL_RCC_OscConfig+0x302>
        while (__HAL_RCC_GET_FLAG(RCC_FLAG_HSERDY) == 0U)
 8002b4e:	6833      	ldr	r3, [r6, #0]
 8002b50:	039b      	lsls	r3, r3, #14
 8002b52:	d5f6      	bpl.n	8002b42 <HAL_RCC_OscConfig+0x5a>
  if (((RCC_OscInitStruct->OscillatorType) & RCC_OSCILLATORTYPE_HSI) == RCC_OSCILLATORTYPE_HSI)
 8002b54:	6823      	ldr	r3, [r4, #0]
 8002b56:	079d      	lsls	r5, r3, #30
 8002b58:	f100 808a 	bmi.w	8002c70 <HAL_RCC_OscConfig+0x188>
  if (((RCC_OscInitStruct->OscillatorType) & RCC_OSCILLATORTYPE_CSI) == RCC_OSCILLATORTYPE_CSI)
 8002b5c:	06d9      	lsls	r1, r3, #27
 8002b5e:	d533      	bpl.n	8002bc8 <HAL_RCC_OscConfig+0xe0>
    const uint32_t temp_sysclksrc = __HAL_RCC_GET_SYSCLK_SOURCE();
 8002b60:	4a8a      	ldr	r2, [pc, #552]	; (8002d8c <HAL_RCC_OscConfig+0x2a4>)
 8002b62:	6913      	ldr	r3, [r2, #16]
    const uint32_t temp_pllckselr = RCC->PLLCKSELR;
 8002b64:	6a92      	ldr	r2, [r2, #40]	; 0x28
    const uint32_t temp_sysclksrc = __HAL_RCC_GET_SYSCLK_SOURCE();
 8002b66:	f003 0338 	and.w	r3, r3, #56	; 0x38
    if ((temp_sysclksrc == RCC_CFGR_SWS_CSI) || ((temp_sysclksrc == RCC_CFGR_SWS_PLL1) && ((temp_pllckselr & RCC_PLLCKSELR_PLLSRC) == RCC_PLLCKSELR_PLLSRC_CSI)))
 8002b6a:	2b08      	cmp	r3, #8
 8002b6c:	f000 80e3 	beq.w	8002d36 <HAL_RCC_OscConfig+0x24e>
 8002b70:	2b18      	cmp	r3, #24
 8002b72:	f000 80db 	beq.w	8002d2c <HAL_RCC_OscConfig+0x244>
      if ((RCC_OscInitStruct->CSIState) != RCC_CSI_OFF)
 8002b76:	69e3      	ldr	r3, [r4, #28]
        __HAL_RCC_CSI_ENABLE();
 8002b78:	4d84      	ldr	r5, [pc, #528]	; (8002d8c <HAL_RCC_OscConfig+0x2a4>)
      if ((RCC_OscInitStruct->CSIState) != RCC_CSI_OFF)
 8002b7a:	2b00      	cmp	r3, #0
 8002b7c:	f000 816f 	beq.w	8002e5e <HAL_RCC_OscConfig+0x376>
        __HAL_RCC_CSI_ENABLE();
 8002b80:	682b      	ldr	r3, [r5, #0]
 8002b82:	f043 0380 	orr.w	r3, r3, #128	; 0x80
 8002b86:	602b      	str	r3, [r5, #0]
        tickstart = HAL_GetTick();
 8002b88:	f7fe fade 	bl	8001148 <HAL_GetTick>
 8002b8c:	4606      	mov	r6, r0
        while (__HAL_RCC_GET_FLAG(RCC_FLAG_CSIRDY) == 0U)
 8002b8e:	e005      	b.n	8002b9c <HAL_RCC_OscConfig+0xb4>
          if ((HAL_GetTick() - tickstart) > CSI_TIMEOUT_VALUE)
 8002b90:	f7fe fada 	bl	8001148 <HAL_GetTick>
 8002b94:	1b80      	subs	r0, r0, r6
 8002b96:	2802      	cmp	r0, #2
 8002b98:	f200 8127 	bhi.w	8002dea <HAL_RCC_OscConfig+0x302>
        while (__HAL_RCC_GET_FLAG(RCC_FLAG_CSIRDY) == 0U)
 8002b9c:	682b      	ldr	r3, [r5, #0]
 8002b9e:	05db      	lsls	r3, r3, #23
 8002ba0:	d5f6      	bpl.n	8002b90 <HAL_RCC_OscConfig+0xa8>
        __HAL_RCC_CSI_CALIBRATIONVALUE_ADJUST(RCC_OscInitStruct->CSICalibrationValue);
 8002ba2:	f7fe fae9 	bl	8001178 <HAL_GetREVID>
 8002ba6:	f241 0303 	movw	r3, #4099	; 0x1003
 8002baa:	4298      	cmp	r0, r3
 8002bac:	f200 826d 	bhi.w	800308a <HAL_RCC_OscConfig+0x5a2>
 8002bb0:	6a22      	ldr	r2, [r4, #32]
 8002bb2:	686b      	ldr	r3, [r5, #4]
 8002bb4:	2a20      	cmp	r2, #32
 8002bb6:	f023 43f8 	bic.w	r3, r3, #2080374784	; 0x7c000000
 8002bba:	bf0c      	ite	eq
 8002bbc:	f043 4380 	orreq.w	r3, r3, #1073741824	; 0x40000000
 8002bc0:	ea43 6382 	orrne.w	r3, r3, r2, lsl #26
 8002bc4:	606b      	str	r3, [r5, #4]
  if (((RCC_OscInitStruct->OscillatorType) & RCC_OSCILLATORTYPE_LSI) == RCC_OSCILLATORTYPE_LSI)
 8002bc6:	6823      	ldr	r3, [r4, #0]
 8002bc8:	071d      	lsls	r5, r3, #28
 8002bca:	d516      	bpl.n	8002bfa <HAL_RCC_OscConfig+0x112>
    if ((RCC_OscInitStruct->LSIState) != RCC_LSI_OFF)
 8002bcc:	6963      	ldr	r3, [r4, #20]
      __HAL_RCC_LSI_ENABLE();
 8002bce:	4d6f      	ldr	r5, [pc, #444]	; (8002d8c <HAL_RCC_OscConfig+0x2a4>)
    if ((RCC_OscInitStruct->LSIState) != RCC_LSI_OFF)
 8002bd0:	2b00      	cmp	r3, #0
 8002bd2:	f000 8122 	beq.w	8002e1a <HAL_RCC_OscConfig+0x332>
      __HAL_RCC_LSI_ENABLE();
 8002bd6:	6f6b      	ldr	r3, [r5, #116]	; 0x74
 8002bd8:	f043 0301 	orr.w	r3, r3, #1
 8002bdc:	676b      	str	r3, [r5, #116]	; 0x74
      tickstart = HAL_GetTick();
 8002bde:	f7fe fab3 	bl	8001148 <HAL_GetTick>
 8002be2:	4606      	mov	r6, r0
      while (__HAL_RCC_GET_FLAG(RCC_FLAG_LSIRDY) == 0U)
 8002be4:	e005      	b.n	8002bf2 <HAL_RCC_OscConfig+0x10a>
        if ((HAL_GetTick() - tickstart) > LSI_TIMEOUT_VALUE)
 8002be6:	f7fe faaf 	bl	8001148 <HAL_GetTick>
 8002bea:	1b80      	subs	r0, r0, r6
 8002bec:	2802      	cmp	r0, #2
 8002bee:	f200 80fc 	bhi.w	8002dea <HAL_RCC_OscConfig+0x302>
      while (__HAL_RCC_GET_FLAG(RCC_FLAG_LSIRDY) == 0U)
 8002bf2:	6f6b      	ldr	r3, [r5, #116]	; 0x74
 8002bf4:	0798      	lsls	r0, r3, #30
 8002bf6:	d5f6      	bpl.n	8002be6 <HAL_RCC_OscConfig+0xfe>
  if (((RCC_OscInitStruct->OscillatorType) & RCC_OSCILLATORTYPE_HSI48) == RCC_OSCILLATORTYPE_HSI48)
 8002bf8:	6823      	ldr	r3, [r4, #0]
 8002bfa:	069a      	lsls	r2, r3, #26
 8002bfc:	d516      	bpl.n	8002c2c <HAL_RCC_OscConfig+0x144>
    if ((RCC_OscInitStruct->HSI48State) != RCC_HSI48_OFF)
 8002bfe:	69a3      	ldr	r3, [r4, #24]
      __HAL_RCC_HSI48_ENABLE();
 8002c00:	4d62      	ldr	r5, [pc, #392]	; (8002d8c <HAL_RCC_OscConfig+0x2a4>)
    if ((RCC_OscInitStruct->HSI48State) != RCC_HSI48_OFF)
 8002c02:	2b00      	cmp	r3, #0
 8002c04:	f000 811a 	beq.w	8002e3c <HAL_RCC_OscConfig+0x354>
      __HAL_RCC_HSI48_ENABLE();
 8002c08:	682b      	ldr	r3, [r5, #0]
 8002c0a:	f443 5380 	orr.w	r3, r3, #4096	; 0x1000
 8002c0e:	602b      	str	r3, [r5, #0]
      tickstart = HAL_GetTick();
 8002c10:	f7fe fa9a 	bl	8001148 <HAL_GetTick>
 8002c14:	4606      	mov	r6, r0
      while (__HAL_RCC_GET_FLAG(RCC_FLAG_HSI48RDY) == 0U)
 8002c16:	e005      	b.n	8002c24 <HAL_RCC_OscConfig+0x13c>
        if ((HAL_GetTick() - tickstart) > HSI48_TIMEOUT_VALUE)
 8002c18:	f7fe fa96 	bl	8001148 <HAL_GetTick>
 8002c1c:	1b80      	subs	r0, r0, r6
 8002c1e:	2802      	cmp	r0, #2
 8002c20:	f200 80e3 	bhi.w	8002dea <HAL_RCC_OscConfig+0x302>
      while (__HAL_RCC_GET_FLAG(RCC_FLAG_HSI48RDY) == 0U)
 8002c24:	682b      	ldr	r3, [r5, #0]
 8002c26:	049f      	lsls	r7, r3, #18
 8002c28:	d5f6      	bpl.n	8002c18 <HAL_RCC_OscConfig+0x130>
  if (((RCC_OscInitStruct->OscillatorType) & RCC_OSCILLATORTYPE_LSE) == RCC_OSCILLATORTYPE_LSE)
 8002c2a:	6823      	ldr	r3, [r4, #0]
 8002c2c:	0759      	lsls	r1, r3, #29
 8002c2e:	f100 80a3 	bmi.w	8002d78 <HAL_RCC_OscConfig+0x290>
  if ((RCC_OscInitStruct->PLL.PLLState) != RCC_PLL_NONE)
 8002c32:	6a60      	ldr	r0, [r4, #36]	; 0x24
 8002c34:	b1d0      	cbz	r0, 8002c6c <HAL_RCC_OscConfig+0x184>
    if (__HAL_RCC_GET_SYSCLK_SOURCE() != RCC_CFGR_SWS_PLL1)
 8002c36:	4d55      	ldr	r5, [pc, #340]	; (8002d8c <HAL_RCC_OscConfig+0x2a4>)
 8002c38:	692b      	ldr	r3, [r5, #16]
 8002c3a:	f003 0338 	and.w	r3, r3, #56	; 0x38
 8002c3e:	2b18      	cmp	r3, #24
 8002c40:	f000 81ae 	beq.w	8002fa0 <HAL_RCC_OscConfig+0x4b8>
        __HAL_RCC_PLL_DISABLE();
 8002c44:	682b      	ldr	r3, [r5, #0]
      if ((RCC_OscInitStruct->PLL.PLLState) == RCC_PLL_ON)
 8002c46:	2802      	cmp	r0, #2
        __HAL_RCC_PLL_DISABLE();
 8002c48:	f023 7380 	bic.w	r3, r3, #16777216	; 0x1000000
 8002c4c:	602b      	str	r3, [r5, #0]
      if ((RCC_OscInitStruct->PLL.PLLState) == RCC_PLL_ON)
 8002c4e:	f000 8142 	beq.w	8002ed6 <HAL_RCC_OscConfig+0x3ee>
        tickstart = HAL_GetTick();
 8002c52:	f7fe fa79 	bl	8001148 <HAL_GetTick>
 8002c56:	4604      	mov	r4, r0
        while (__HAL_RCC_GET_FLAG(RCC_FLAG_PLLRDY) != 0U)
 8002c58:	e005      	b.n	8002c66 <HAL_RCC_OscConfig+0x17e>
          if ((HAL_GetTick() - tickstart) > PLL_TIMEOUT_VALUE)
 8002c5a:	f7fe fa75 	bl	8001148 <HAL_GetTick>
 8002c5e:	1b00      	subs	r0, r0, r4
 8002c60:	2802      	cmp	r0, #2
 8002c62:	f200 80c2 	bhi.w	8002dea <HAL_RCC_OscConfig+0x302>
        while (__HAL_RCC_GET_FLAG(RCC_FLAG_PLLRDY) != 0U)
 8002c66:	682b      	ldr	r3, [r5, #0]
 8002c68:	019b      	lsls	r3, r3, #6
 8002c6a:	d4f6      	bmi.n	8002c5a <HAL_RCC_OscConfig+0x172>
  return HAL_OK;
 8002c6c:	2000      	movs	r0, #0
}
 8002c6e:	bdf8      	pop	{r3, r4, r5, r6, r7, pc}
    const uint32_t temp_sysclksrc = __HAL_RCC_GET_SYSCLK_SOURCE();
 8002c70:	4a46      	ldr	r2, [pc, #280]	; (8002d8c <HAL_RCC_OscConfig+0x2a4>)
 8002c72:	6913      	ldr	r3, [r2, #16]
    const uint32_t temp_pllckselr = RCC->PLLCKSELR;
 8002c74:	6a92      	ldr	r2, [r2, #40]	; 0x28
    if ((temp_sysclksrc == RCC_CFGR_SWS_HSI) || ((temp_sysclksrc == RCC_CFGR_SWS_PLL1) && ((temp_pllckselr & RCC_PLLCKSELR_PLLSRC) == RCC_PLLCKSELR_PLLSRC_HSI)))
 8002c76:	f013 0338 	ands.w	r3, r3, #56	; 0x38
 8002c7a:	d12d      	bne.n	8002cd8 <HAL_RCC_OscConfig+0x1f0>
      if ((__HAL_RCC_GET_FLAG(RCC_FLAG_HSIRDY) != 0U) && (RCC_OscInitStruct->HSIState == RCC_HSI_OFF))
 8002c7c:	4b43      	ldr	r3, [pc, #268]	; (8002d8c <HAL_RCC_OscConfig+0x2a4>)
 8002c7e:	68e2      	ldr	r2, [r4, #12]
 8002c80:	681b      	ldr	r3, [r3, #0]
 8002c82:	0759      	lsls	r1, r3, #29
 8002c84:	d501      	bpl.n	8002c8a <HAL_RCC_OscConfig+0x1a2>
 8002c86:	2a00      	cmp	r2, #0
 8002c88:	d04e      	beq.n	8002d28 <HAL_RCC_OscConfig+0x240>
        __HAL_RCC_HSI_CONFIG(RCC_OscInitStruct->HSIState);
 8002c8a:	4d40      	ldr	r5, [pc, #256]	; (8002d8c <HAL_RCC_OscConfig+0x2a4>)
 8002c8c:	682b      	ldr	r3, [r5, #0]
 8002c8e:	f023 0319 	bic.w	r3, r3, #25
 8002c92:	4313      	orrs	r3, r2
 8002c94:	602b      	str	r3, [r5, #0]
        tickstart = HAL_GetTick();
 8002c96:	f7fe fa57 	bl	8001148 <HAL_GetTick>
 8002c9a:	4606      	mov	r6, r0
        while (__HAL_RCC_GET_FLAG(RCC_FLAG_HSIRDY) == 0U)
 8002c9c:	e005      	b.n	8002caa <HAL_RCC_OscConfig+0x1c2>
          if ((uint32_t)(HAL_GetTick() - tickstart) > HSI_TIMEOUT_VALUE)
 8002c9e:	f7fe fa53 	bl	8001148 <HAL_GetTick>
 8002ca2:	1b80      	subs	r0, r0, r6
 8002ca4:	2802      	cmp	r0, #2
 8002ca6:	f200 80a0 	bhi.w	8002dea <HAL_RCC_OscConfig+0x302>
        while (__HAL_RCC_GET_FLAG(RCC_FLAG_HSIRDY) == 0U)
 8002caa:	682b      	ldr	r3, [r5, #0]
 8002cac:	075b      	lsls	r3, r3, #29
 8002cae:	d5f6      	bpl.n	8002c9e <HAL_RCC_OscConfig+0x1b6>
        __HAL_RCC_HSI_CALIBRATIONVALUE_ADJUST(RCC_OscInitStruct->HSICalibrationValue);
 8002cb0:	f7fe fa62 	bl	8001178 <HAL_GetREVID>
 8002cb4:	f241 0303 	movw	r3, #4099	; 0x1003
 8002cb8:	4298      	cmp	r0, r3
 8002cba:	f200 80f7 	bhi.w	8002eac <HAL_RCC_OscConfig+0x3c4>
 8002cbe:	6922      	ldr	r2, [r4, #16]
 8002cc0:	686b      	ldr	r3, [r5, #4]
 8002cc2:	2a40      	cmp	r2, #64	; 0x40
 8002cc4:	f423 337c 	bic.w	r3, r3, #258048	; 0x3f000
 8002cc8:	bf0c      	ite	eq
 8002cca:	f443 3300 	orreq.w	r3, r3, #131072	; 0x20000
 8002cce:	ea43 3302 	orrne.w	r3, r3, r2, lsl #12
 8002cd2:	606b      	str	r3, [r5, #4]
  if (((RCC_OscInitStruct->OscillatorType) & RCC_OSCILLATORTYPE_CSI) == RCC_OSCILLATORTYPE_CSI)
 8002cd4:	6823      	ldr	r3, [r4, #0]
 8002cd6:	e741      	b.n	8002b5c <HAL_RCC_OscConfig+0x74>
    if ((temp_sysclksrc == RCC_CFGR_SWS_HSI) || ((temp_sysclksrc == RCC_CFGR_SWS_PLL1) && ((temp_pllckselr & RCC_PLLCKSELR_PLLSRC) == RCC_PLLCKSELR_PLLSRC_HSI)))
 8002cd8:	2b18      	cmp	r3, #24
 8002cda:	f000 80e3 	beq.w	8002ea4 <HAL_RCC_OscConfig+0x3bc>
        __HAL_RCC_HSI_CONFIG(RCC_OscInitStruct->HSIState);
 8002cde:	4d2b      	ldr	r5, [pc, #172]	; (8002d8c <HAL_RCC_OscConfig+0x2a4>)
      if ((RCC_OscInitStruct->HSIState) != RCC_HSI_OFF)
 8002ce0:	68e2      	ldr	r2, [r4, #12]
        __HAL_RCC_HSI_CONFIG(RCC_OscInitStruct->HSIState);
 8002ce2:	682b      	ldr	r3, [r5, #0]
      if ((RCC_OscInitStruct->HSIState) != RCC_HSI_OFF)
 8002ce4:	2a00      	cmp	r2, #0
 8002ce6:	f000 80cc 	beq.w	8002e82 <HAL_RCC_OscConfig+0x39a>
        __HAL_RCC_HSI_CONFIG(RCC_OscInitStruct->HSIState);
 8002cea:	f023 0319 	bic.w	r3, r3, #25
 8002cee:	4313      	orrs	r3, r2
 8002cf0:	602b      	str	r3, [r5, #0]
        tickstart = HAL_GetTick();
 8002cf2:	f7fe fa29 	bl	8001148 <HAL_GetTick>
 8002cf6:	4606      	mov	r6, r0
        while (__HAL_RCC_GET_FLAG(RCC_FLAG_HSIRDY) == 0U)
 8002cf8:	e004      	b.n	8002d04 <HAL_RCC_OscConfig+0x21c>
          if ((HAL_GetTick() - tickstart) > HSI_TIMEOUT_VALUE)
 8002cfa:	f7fe fa25 	bl	8001148 <HAL_GetTick>
 8002cfe:	1b80      	subs	r0, r0, r6
 8002d00:	2802      	cmp	r0, #2
 8002d02:	d872      	bhi.n	8002dea <HAL_RCC_OscConfig+0x302>
        while (__HAL_RCC_GET_FLAG(RCC_FLAG_HSIRDY) == 0U)
 8002d04:	682b      	ldr	r3, [r5, #0]
 8002d06:	075f      	lsls	r7, r3, #29
 8002d08:	d5f7      	bpl.n	8002cfa <HAL_RCC_OscConfig+0x212>
 8002d0a:	e7d1      	b.n	8002cb0 <HAL_RCC_OscConfig+0x1c8>
    if ((temp_sysclksrc == RCC_CFGR_SWS_HSE) || ((temp_sysclksrc == RCC_CFGR_SWS_PLL1) && ((temp_pllckselr & RCC_PLLCKSELR_PLLSRC) == RCC_PLLCKSELR_PLLSRC_HSE)))
 8002d0c:	f001 0103 	and.w	r1, r1, #3
 8002d10:	2902      	cmp	r1, #2
 8002d12:	f47f aefc 	bne.w	8002b0e <HAL_RCC_OscConfig+0x26>
      if ((__HAL_RCC_GET_FLAG(RCC_FLAG_HSERDY) != 0U) && (RCC_OscInitStruct->HSEState == RCC_HSE_OFF))
 8002d16:	4a1d      	ldr	r2, [pc, #116]	; (8002d8c <HAL_RCC_OscConfig+0x2a4>)
 8002d18:	6812      	ldr	r2, [r2, #0]
 8002d1a:	0392      	lsls	r2, r2, #14
 8002d1c:	f57f af1b 	bpl.w	8002b56 <HAL_RCC_OscConfig+0x6e>
 8002d20:	6862      	ldr	r2, [r4, #4]
 8002d22:	2a00      	cmp	r2, #0
 8002d24:	f47f af17 	bne.w	8002b56 <HAL_RCC_OscConfig+0x6e>
        return HAL_ERROR;
 8002d28:	2001      	movs	r0, #1
}
 8002d2a:	bdf8      	pop	{r3, r4, r5, r6, r7, pc}
    if ((temp_sysclksrc == RCC_CFGR_SWS_CSI) || ((temp_sysclksrc == RCC_CFGR_SWS_PLL1) && ((temp_pllckselr & RCC_PLLCKSELR_PLLSRC) == RCC_PLLCKSELR_PLLSRC_CSI)))
 8002d2c:	f002 0203 	and.w	r2, r2, #3
 8002d30:	2a01      	cmp	r2, #1
 8002d32:	f47f af20 	bne.w	8002b76 <HAL_RCC_OscConfig+0x8e>
      if ((__HAL_RCC_GET_FLAG(RCC_FLAG_CSIRDY) != 0U) && (RCC_OscInitStruct->CSIState != RCC_CSI_ON))
 8002d36:	4b15      	ldr	r3, [pc, #84]	; (8002d8c <HAL_RCC_OscConfig+0x2a4>)
 8002d38:	681b      	ldr	r3, [r3, #0]
 8002d3a:	05da      	lsls	r2, r3, #23
 8002d3c:	d502      	bpl.n	8002d44 <HAL_RCC_OscConfig+0x25c>
 8002d3e:	69e3      	ldr	r3, [r4, #28]
 8002d40:	2b80      	cmp	r3, #128	; 0x80
 8002d42:	d1f1      	bne.n	8002d28 <HAL_RCC_OscConfig+0x240>
        __HAL_RCC_CSI_CALIBRATIONVALUE_ADJUST(RCC_OscInitStruct->CSICalibrationValue);
 8002d44:	f7fe fa18 	bl	8001178 <HAL_GetREVID>
 8002d48:	f241 0303 	movw	r3, #4099	; 0x1003
 8002d4c:	4298      	cmp	r0, r3
 8002d4e:	f200 80b8 	bhi.w	8002ec2 <HAL_RCC_OscConfig+0x3da>
 8002d52:	6a22      	ldr	r2, [r4, #32]
 8002d54:	2a20      	cmp	r2, #32
 8002d56:	f000 81a7 	beq.w	80030a8 <HAL_RCC_OscConfig+0x5c0>
 8002d5a:	490c      	ldr	r1, [pc, #48]	; (8002d8c <HAL_RCC_OscConfig+0x2a4>)
 8002d5c:	684b      	ldr	r3, [r1, #4]
 8002d5e:	f023 43f8 	bic.w	r3, r3, #2080374784	; 0x7c000000
 8002d62:	ea43 6382 	orr.w	r3, r3, r2, lsl #26
 8002d66:	604b      	str	r3, [r1, #4]
  if (((RCC_OscInitStruct->OscillatorType) & RCC_OSCILLATORTYPE_LSI) == RCC_OSCILLATORTYPE_LSI)
 8002d68:	6823      	ldr	r3, [r4, #0]
 8002d6a:	e72d      	b.n	8002bc8 <HAL_RCC_OscConfig+0xe0>
      __HAL_RCC_HSE_CONFIG(RCC_OscInitStruct->HSEState);
 8002d6c:	4a07      	ldr	r2, [pc, #28]	; (8002d8c <HAL_RCC_OscConfig+0x2a4>)
 8002d6e:	6813      	ldr	r3, [r2, #0]
 8002d70:	f443 3380 	orr.w	r3, r3, #65536	; 0x10000
 8002d74:	6013      	str	r3, [r2, #0]
      if (RCC_OscInitStruct->HSEState != RCC_HSE_OFF)
 8002d76:	e6df      	b.n	8002b38 <HAL_RCC_OscConfig+0x50>
    PWR->CR1 |= PWR_CR1_DBP;
 8002d78:	4d05      	ldr	r5, [pc, #20]	; (8002d90 <HAL_RCC_OscConfig+0x2a8>)
 8002d7a:	682b      	ldr	r3, [r5, #0]
 8002d7c:	f443 7380 	orr.w	r3, r3, #256	; 0x100
 8002d80:	602b      	str	r3, [r5, #0]
    tickstart = HAL_GetTick();
 8002d82:	f7fe f9e1 	bl	8001148 <HAL_GetTick>
 8002d86:	4606      	mov	r6, r0
    while ((PWR->CR1 & PWR_CR1_DBP) == 0U)
 8002d88:	e009      	b.n	8002d9e <HAL_RCC_OscConfig+0x2b6>
 8002d8a:	bf00      	nop
 8002d8c:	58024400 	.word	0x58024400
 8002d90:	58024800 	.word	0x58024800
      if ((HAL_GetTick() - tickstart) > RCC_DBP_TIMEOUT_VALUE)
 8002d94:	f7fe f9d8 	bl	8001148 <HAL_GetTick>
 8002d98:	1b80      	subs	r0, r0, r6
 8002d9a:	2864      	cmp	r0, #100	; 0x64
 8002d9c:	d825      	bhi.n	8002dea <HAL_RCC_OscConfig+0x302>
    while ((PWR->CR1 & PWR_CR1_DBP) == 0U)
 8002d9e:	682b      	ldr	r3, [r5, #0]
 8002da0:	05da      	lsls	r2, r3, #23
 8002da2:	d5f7      	bpl.n	8002d94 <HAL_RCC_OscConfig+0x2ac>
    __HAL_RCC_LSE_CONFIG(RCC_OscInitStruct->LSEState);
 8002da4:	68a3      	ldr	r3, [r4, #8]
 8002da6:	2b01      	cmp	r3, #1
 8002da8:	f000 8178 	beq.w	800309c <HAL_RCC_OscConfig+0x5b4>
 8002dac:	2b00      	cmp	r3, #0
 8002dae:	f000 8153 	beq.w	8003058 <HAL_RCC_OscConfig+0x570>
 8002db2:	2b05      	cmp	r3, #5
 8002db4:	4ba5      	ldr	r3, [pc, #660]	; (800304c <HAL_RCC_OscConfig+0x564>)
 8002db6:	6f1a      	ldr	r2, [r3, #112]	; 0x70
 8002db8:	f000 817f 	beq.w	80030ba <HAL_RCC_OscConfig+0x5d2>
 8002dbc:	f022 0201 	bic.w	r2, r2, #1
 8002dc0:	671a      	str	r2, [r3, #112]	; 0x70
 8002dc2:	6f1a      	ldr	r2, [r3, #112]	; 0x70
 8002dc4:	f022 0204 	bic.w	r2, r2, #4
 8002dc8:	671a      	str	r2, [r3, #112]	; 0x70
      tickstart = HAL_GetTick();
 8002dca:	f7fe f9bd 	bl	8001148 <HAL_GetTick>
      while (__HAL_RCC_GET_FLAG(RCC_FLAG_LSERDY) == 0U)
 8002dce:	4e9f      	ldr	r6, [pc, #636]	; (800304c <HAL_RCC_OscConfig+0x564>)
        if ((HAL_GetTick() - tickstart) > RCC_LSE_TIMEOUT_VALUE)
 8002dd0:	f241 3788 	movw	r7, #5000	; 0x1388
      tickstart = HAL_GetTick();
 8002dd4:	4605      	mov	r5, r0
      while (__HAL_RCC_GET_FLAG(RCC_FLAG_LSERDY) == 0U)
 8002dd6:	e004      	b.n	8002de2 <HAL_RCC_OscConfig+0x2fa>
        if ((HAL_GetTick() - tickstart) > RCC_LSE_TIMEOUT_VALUE)
 8002dd8:	f7fe f9b6 	bl	8001148 <HAL_GetTick>
 8002ddc:	1b40      	subs	r0, r0, r5
 8002dde:	42b8      	cmp	r0, r7
 8002de0:	d803      	bhi.n	8002dea <HAL_RCC_OscConfig+0x302>
      while (__HAL_RCC_GET_FLAG(RCC_FLAG_LSERDY) == 0U)
 8002de2:	6f33      	ldr	r3, [r6, #112]	; 0x70
 8002de4:	079b      	lsls	r3, r3, #30
 8002de6:	d5f7      	bpl.n	8002dd8 <HAL_RCC_OscConfig+0x2f0>
 8002de8:	e723      	b.n	8002c32 <HAL_RCC_OscConfig+0x14a>
            return HAL_TIMEOUT;
 8002dea:	2003      	movs	r0, #3
}
 8002dec:	bdf8      	pop	{r3, r4, r5, r6, r7, pc}
      __HAL_RCC_HSE_CONFIG(RCC_OscInitStruct->HSEState);
 8002dee:	4d97      	ldr	r5, [pc, #604]	; (800304c <HAL_RCC_OscConfig+0x564>)
 8002df0:	682b      	ldr	r3, [r5, #0]
 8002df2:	f423 3380 	bic.w	r3, r3, #65536	; 0x10000
 8002df6:	602b      	str	r3, [r5, #0]
 8002df8:	682b      	ldr	r3, [r5, #0]
 8002dfa:	f423 2380 	bic.w	r3, r3, #262144	; 0x40000
 8002dfe:	602b      	str	r3, [r5, #0]
        tickstart = HAL_GetTick();
 8002e00:	f7fe f9a2 	bl	8001148 <HAL_GetTick>
 8002e04:	4606      	mov	r6, r0
        while (__HAL_RCC_GET_FLAG(RCC_FLAG_HSERDY) != 0U)
 8002e06:	e004      	b.n	8002e12 <HAL_RCC_OscConfig+0x32a>
          if ((uint32_t)(HAL_GetTick() - tickstart) > HSE_TIMEOUT_VALUE)
 8002e08:	f7fe f99e 	bl	8001148 <HAL_GetTick>
 8002e0c:	1b80      	subs	r0, r0, r6
 8002e0e:	2864      	cmp	r0, #100	; 0x64
 8002e10:	d8eb      	bhi.n	8002dea <HAL_RCC_OscConfig+0x302>
        while (__HAL_RCC_GET_FLAG(RCC_FLAG_HSERDY) != 0U)
 8002e12:	682b      	ldr	r3, [r5, #0]
 8002e14:	039f      	lsls	r7, r3, #14
 8002e16:	d4f7      	bmi.n	8002e08 <HAL_RCC_OscConfig+0x320>
 8002e18:	e69c      	b.n	8002b54 <HAL_RCC_OscConfig+0x6c>
      __HAL_RCC_LSI_DISABLE();
 8002e1a:	6f6b      	ldr	r3, [r5, #116]	; 0x74
 8002e1c:	f023 0301 	bic.w	r3, r3, #1
 8002e20:	676b      	str	r3, [r5, #116]	; 0x74
      tickstart = HAL_GetTick();
 8002e22:	f7fe f991 	bl	8001148 <HAL_GetTick>
 8002e26:	4606      	mov	r6, r0
      while (__HAL_RCC_GET_FLAG(RCC_FLAG_LSIRDY) != 0U)
 8002e28:	e004      	b.n	8002e34 <HAL_RCC_OscConfig+0x34c>
        if ((HAL_GetTick() - tickstart) > LSI_TIMEOUT_VALUE)
 8002e2a:	f7fe f98d 	bl	8001148 <HAL_GetTick>
 8002e2e:	1b80      	subs	r0, r0, r6
 8002e30:	2802      	cmp	r0, #2
 8002e32:	d8da      	bhi.n	8002dea <HAL_RCC_OscConfig+0x302>
      while (__HAL_RCC_GET_FLAG(RCC_FLAG_LSIRDY) != 0U)
 8002e34:	6f6b      	ldr	r3, [r5, #116]	; 0x74
 8002e36:	0799      	lsls	r1, r3, #30
 8002e38:	d4f7      	bmi.n	8002e2a <HAL_RCC_OscConfig+0x342>
 8002e3a:	e6dd      	b.n	8002bf8 <HAL_RCC_OscConfig+0x110>
      __HAL_RCC_HSI48_DISABLE();
 8002e3c:	682b      	ldr	r3, [r5, #0]
 8002e3e:	f423 5380 	bic.w	r3, r3, #4096	; 0x1000
 8002e42:	602b      	str	r3, [r5, #0]
      tickstart = HAL_GetTick();
 8002e44:	f7fe f980 	bl	8001148 <HAL_GetTick>
 8002e48:	4606      	mov	r6, r0
      while (__HAL_RCC_GET_FLAG(RCC_FLAG_HSI48RDY) != 0U)
 8002e4a:	e004      	b.n	8002e56 <HAL_RCC_OscConfig+0x36e>
        if ((HAL_GetTick() - tickstart) > HSI48_TIMEOUT_VALUE)
 8002e4c:	f7fe f97c 	bl	8001148 <HAL_GetTick>
 8002e50:	1b80      	subs	r0, r0, r6
 8002e52:	2802      	cmp	r0, #2
 8002e54:	d8c9      	bhi.n	8002dea <HAL_RCC_OscConfig+0x302>
      while (__HAL_RCC_GET_FLAG(RCC_FLAG_HSI48RDY) != 0U)
 8002e56:	682b      	ldr	r3, [r5, #0]
 8002e58:	0498      	lsls	r0, r3, #18
 8002e5a:	d4f7      	bmi.n	8002e4c <HAL_RCC_OscConfig+0x364>
 8002e5c:	e6e5      	b.n	8002c2a <HAL_RCC_OscConfig+0x142>
        __HAL_RCC_CSI_DISABLE();
 8002e5e:	682b      	ldr	r3, [r5, #0]
 8002e60:	f023 0380 	bic.w	r3, r3, #128	; 0x80
 8002e64:	602b      	str	r3, [r5, #0]
        tickstart = HAL_GetTick();
 8002e66:	f7fe f96f 	bl	8001148 <HAL_GetTick>
 8002e6a:	4606      	mov	r6, r0
        while (__HAL_RCC_GET_FLAG(RCC_FLAG_CSIRDY) != 0U)
 8002e6c:	e004      	b.n	8002e78 <HAL_RCC_OscConfig+0x390>
          if ((HAL_GetTick() - tickstart) > CSI_TIMEOUT_VALUE)
 8002e6e:	f7fe f96b 	bl	8001148 <HAL_GetTick>
 8002e72:	1b80      	subs	r0, r0, r6
 8002e74:	2802      	cmp	r0, #2
 8002e76:	d8b8      	bhi.n	8002dea <HAL_RCC_OscConfig+0x302>
        while (__HAL_RCC_GET_FLAG(RCC_FLAG_CSIRDY) != 0U)
 8002e78:	682b      	ldr	r3, [r5, #0]
 8002e7a:	05df      	lsls	r7, r3, #23
 8002e7c:	d4f7      	bmi.n	8002e6e <HAL_RCC_OscConfig+0x386>
  if (((RCC_OscInitStruct->OscillatorType) & RCC_OSCILLATORTYPE_LSI) == RCC_OSCILLATORTYPE_LSI)
 8002e7e:	6823      	ldr	r3, [r4, #0]
 8002e80:	e6a2      	b.n	8002bc8 <HAL_RCC_OscConfig+0xe0>
        __HAL_RCC_HSI_DISABLE();
 8002e82:	f023 0301 	bic.w	r3, r3, #1
 8002e86:	602b      	str	r3, [r5, #0]
        tickstart = HAL_GetTick();
 8002e88:	f7fe f95e 	bl	8001148 <HAL_GetTick>
 8002e8c:	4606      	mov	r6, r0
        while (__HAL_RCC_GET_FLAG(RCC_FLAG_HSIRDY) != 0U)
 8002e8e:	e004      	b.n	8002e9a <HAL_RCC_OscConfig+0x3b2>
          if ((HAL_GetTick() - tickstart) > HSI_TIMEOUT_VALUE)
 8002e90:	f7fe f95a 	bl	8001148 <HAL_GetTick>
 8002e94:	1b80      	subs	r0, r0, r6
 8002e96:	2802      	cmp	r0, #2
 8002e98:	d8a7      	bhi.n	8002dea <HAL_RCC_OscConfig+0x302>
        while (__HAL_RCC_GET_FLAG(RCC_FLAG_HSIRDY) != 0U)
 8002e9a:	682b      	ldr	r3, [r5, #0]
 8002e9c:	0758      	lsls	r0, r3, #29
 8002e9e:	d4f7      	bmi.n	8002e90 <HAL_RCC_OscConfig+0x3a8>
  if (((RCC_OscInitStruct->OscillatorType) & RCC_OSCILLATORTYPE_CSI) == RCC_OSCILLATORTYPE_CSI)
 8002ea0:	6823      	ldr	r3, [r4, #0]
 8002ea2:	e65b      	b.n	8002b5c <HAL_RCC_OscConfig+0x74>
    if ((temp_sysclksrc == RCC_CFGR_SWS_HSI) || ((temp_sysclksrc == RCC_CFGR_SWS_PLL1) && ((temp_pllckselr & RCC_PLLCKSELR_PLLSRC) == RCC_PLLCKSELR_PLLSRC_HSI)))
 8002ea4:	0790      	lsls	r0, r2, #30
 8002ea6:	f47f af1a 	bne.w	8002cde <HAL_RCC_OscConfig+0x1f6>
 8002eaa:	e6e7      	b.n	8002c7c <HAL_RCC_OscConfig+0x194>
        __HAL_RCC_HSI_CALIBRATIONVALUE_ADJUST(RCC_OscInitStruct->HSICalibrationValue);
 8002eac:	686b      	ldr	r3, [r5, #4]
 8002eae:	6922      	ldr	r2, [r4, #16]
 8002eb0:	f023 43fe 	bic.w	r3, r3, #2130706432	; 0x7f000000
 8002eb4:	ea43 6302 	orr.w	r3, r3, r2, lsl #24
 8002eb8:	606b      	str	r3, [r5, #4]
  if (((RCC_OscInitStruct->OscillatorType) & RCC_OSCILLATORTYPE_CSI) == RCC_OSCILLATORTYPE_CSI)
 8002eba:	6823      	ldr	r3, [r4, #0]
 8002ebc:	e64e      	b.n	8002b5c <HAL_RCC_OscConfig+0x74>
    return HAL_ERROR;
 8002ebe:	2001      	movs	r0, #1
}
 8002ec0:	4770      	bx	lr
        __HAL_RCC_CSI_CALIBRATIONVALUE_ADJUST(RCC_OscInitStruct->CSICalibrationValue);
 8002ec2:	4a62      	ldr	r2, [pc, #392]	; (800304c <HAL_RCC_OscConfig+0x564>)
 8002ec4:	6a21      	ldr	r1, [r4, #32]
 8002ec6:	68d3      	ldr	r3, [r2, #12]
 8002ec8:	f023 537c 	bic.w	r3, r3, #1056964608	; 0x3f000000
 8002ecc:	ea43 6301 	orr.w	r3, r3, r1, lsl #24
 8002ed0:	60d3      	str	r3, [r2, #12]
  if (((RCC_OscInitStruct->OscillatorType) & RCC_OSCILLATORTYPE_LSI) == RCC_OSCILLATORTYPE_LSI)
 8002ed2:	6823      	ldr	r3, [r4, #0]
 8002ed4:	e678      	b.n	8002bc8 <HAL_RCC_OscConfig+0xe0>
        tickstart = HAL_GetTick();
 8002ed6:	f7fe f937 	bl	8001148 <HAL_GetTick>
 8002eda:	4606      	mov	r6, r0
        while (__HAL_RCC_GET_FLAG(RCC_FLAG_PLLRDY) != 0U)
 8002edc:	e004      	b.n	8002ee8 <HAL_RCC_OscConfig+0x400>
          if ((HAL_GetTick() - tickstart) > PLL_TIMEOUT_VALUE)
 8002ede:	f7fe f933 	bl	8001148 <HAL_GetTick>
 8002ee2:	1b80      	subs	r0, r0, r6
 8002ee4:	2802      	cmp	r0, #2
 8002ee6:	d880      	bhi.n	8002dea <HAL_RCC_OscConfig+0x302>
        while (__HAL_RCC_GET_FLAG(RCC_FLAG_PLLRDY) != 0U)
 8002ee8:	682b      	ldr	r3, [r5, #0]
 8002eea:	0199      	lsls	r1, r3, #6
 8002eec:	d4f7      	bmi.n	8002ede <HAL_RCC_OscConfig+0x3f6>
        __HAL_RCC_PLL_CONFIG(RCC_OscInitStruct->PLL.PLLSource,
 8002eee:	6aa9      	ldr	r1, [r5, #40]	; 0x28
 8002ef0:	4b57      	ldr	r3, [pc, #348]	; (8003050 <HAL_RCC_OscConfig+0x568>)
 8002ef2:	6aa2      	ldr	r2, [r4, #40]	; 0x28
 8002ef4:	400b      	ands	r3, r1
        __HAL_RCC_PLLFRACN_CONFIG(RCC_OscInitStruct->PLL.PLLFRACN);
 8002ef6:	4957      	ldr	r1, [pc, #348]	; (8003054 <HAL_RCC_OscConfig+0x56c>)
        while (__HAL_RCC_GET_FLAG(RCC_FLAG_PLLRDY) == 0U)
 8002ef8:	4e54      	ldr	r6, [pc, #336]	; (800304c <HAL_RCC_OscConfig+0x564>)
        __HAL_RCC_PLL_CONFIG(RCC_OscInitStruct->PLL.PLLSource,
 8002efa:	4313      	orrs	r3, r2
 8002efc:	6ae2      	ldr	r2, [r4, #44]	; 0x2c
 8002efe:	ea43 1302 	orr.w	r3, r3, r2, lsl #4
 8002f02:	62ab      	str	r3, [r5, #40]	; 0x28
 8002f04:	e9d4 320d 	ldrd	r3, r2, [r4, #52]	; 0x34
 8002f08:	3b01      	subs	r3, #1
 8002f0a:	3a01      	subs	r2, #1
 8002f0c:	025b      	lsls	r3, r3, #9
 8002f0e:	0412      	lsls	r2, r2, #16
 8002f10:	b29b      	uxth	r3, r3
 8002f12:	f402 02fe 	and.w	r2, r2, #8323072	; 0x7f0000
 8002f16:	4313      	orrs	r3, r2
 8002f18:	6b22      	ldr	r2, [r4, #48]	; 0x30
 8002f1a:	3a01      	subs	r2, #1
 8002f1c:	f3c2 0208 	ubfx	r2, r2, #0, #9
 8002f20:	4313      	orrs	r3, r2
 8002f22:	6be2      	ldr	r2, [r4, #60]	; 0x3c
 8002f24:	3a01      	subs	r2, #1
 8002f26:	0612      	lsls	r2, r2, #24
 8002f28:	f002 42fe 	and.w	r2, r2, #2130706432	; 0x7f000000
 8002f2c:	4313      	orrs	r3, r2
 8002f2e:	632b      	str	r3, [r5, #48]	; 0x30
        __HAL_RCC_PLLFRACN_DISABLE();
 8002f30:	6aeb      	ldr	r3, [r5, #44]	; 0x2c
 8002f32:	f023 0301 	bic.w	r3, r3, #1
 8002f36:	62eb      	str	r3, [r5, #44]	; 0x2c
        __HAL_RCC_PLLFRACN_CONFIG(RCC_OscInitStruct->PLL.PLLFRACN);
 8002f38:	6b6a      	ldr	r2, [r5, #52]	; 0x34
 8002f3a:	6ca3      	ldr	r3, [r4, #72]	; 0x48
 8002f3c:	4011      	ands	r1, r2
 8002f3e:	ea41 01c3 	orr.w	r1, r1, r3, lsl #3
 8002f42:	6369      	str	r1, [r5, #52]	; 0x34
        __HAL_RCC_PLL_VCIRANGE(RCC_OscInitStruct->PLL.PLLRGE) ;
 8002f44:	6aeb      	ldr	r3, [r5, #44]	; 0x2c
 8002f46:	6c22      	ldr	r2, [r4, #64]	; 0x40
 8002f48:	f023 030c 	bic.w	r3, r3, #12
 8002f4c:	4313      	orrs	r3, r2
 8002f4e:	62eb      	str	r3, [r5, #44]	; 0x2c
        __HAL_RCC_PLL_VCORANGE(RCC_OscInitStruct->PLL.PLLVCOSEL) ;
 8002f50:	6aeb      	ldr	r3, [r5, #44]	; 0x2c
 8002f52:	6c62      	ldr	r2, [r4, #68]	; 0x44
 8002f54:	f023 0302 	bic.w	r3, r3, #2
 8002f58:	4313      	orrs	r3, r2
 8002f5a:	62eb      	str	r3, [r5, #44]	; 0x2c
        __HAL_RCC_PLLCLKOUT_ENABLE(RCC_PLL1_DIVP);
 8002f5c:	6aeb      	ldr	r3, [r5, #44]	; 0x2c
 8002f5e:	f443 3380 	orr.w	r3, r3, #65536	; 0x10000
 8002f62:	62eb      	str	r3, [r5, #44]	; 0x2c
        __HAL_RCC_PLLCLKOUT_ENABLE(RCC_PLL1_DIVQ);
 8002f64:	6aeb      	ldr	r3, [r5, #44]	; 0x2c
 8002f66:	f443 3300 	orr.w	r3, r3, #131072	; 0x20000
 8002f6a:	62eb      	str	r3, [r5, #44]	; 0x2c
        __HAL_RCC_PLLCLKOUT_ENABLE(RCC_PLL1_DIVR);
 8002f6c:	6aeb      	ldr	r3, [r5, #44]	; 0x2c
 8002f6e:	f443 2380 	orr.w	r3, r3, #262144	; 0x40000
 8002f72:	62eb      	str	r3, [r5, #44]	; 0x2c
        __HAL_RCC_PLLFRACN_ENABLE();
 8002f74:	6aeb      	ldr	r3, [r5, #44]	; 0x2c
 8002f76:	f043 0301 	orr.w	r3, r3, #1
 8002f7a:	62eb      	str	r3, [r5, #44]	; 0x2c
        __HAL_RCC_PLL_ENABLE();
 8002f7c:	682b      	ldr	r3, [r5, #0]
 8002f7e:	f043 7380 	orr.w	r3, r3, #16777216	; 0x1000000
 8002f82:	602b      	str	r3, [r5, #0]
        tickstart = HAL_GetTick();
 8002f84:	f7fe f8e0 	bl	8001148 <HAL_GetTick>
 8002f88:	4604      	mov	r4, r0
        while (__HAL_RCC_GET_FLAG(RCC_FLAG_PLLRDY) == 0U)
 8002f8a:	e005      	b.n	8002f98 <HAL_RCC_OscConfig+0x4b0>
          if ((HAL_GetTick() - tickstart) > PLL_TIMEOUT_VALUE)
 8002f8c:	f7fe f8dc 	bl	8001148 <HAL_GetTick>
 8002f90:	1b00      	subs	r0, r0, r4
 8002f92:	2802      	cmp	r0, #2
 8002f94:	f63f af29 	bhi.w	8002dea <HAL_RCC_OscConfig+0x302>
        while (__HAL_RCC_GET_FLAG(RCC_FLAG_PLLRDY) == 0U)
 8002f98:	6833      	ldr	r3, [r6, #0]
 8002f9a:	019a      	lsls	r2, r3, #6
 8002f9c:	d5f6      	bpl.n	8002f8c <HAL_RCC_OscConfig+0x4a4>
 8002f9e:	e665      	b.n	8002c6c <HAL_RCC_OscConfig+0x184>
      if (((RCC_OscInitStruct->PLL.PLLState) == RCC_PLL_OFF) ||
 8002fa0:	2801      	cmp	r0, #1
      temp1_pllckcfg = RCC->PLLCKSELR;
 8002fa2:	6aaa      	ldr	r2, [r5, #40]	; 0x28
      temp2_pllckcfg = RCC->PLL1DIVR;
 8002fa4:	6b2e      	ldr	r6, [r5, #48]	; 0x30
      if (((RCC_OscInitStruct->PLL.PLLState) == RCC_PLL_OFF) ||
 8002fa6:	f43f ae62 	beq.w	8002c6e <HAL_RCC_OscConfig+0x186>
          (READ_BIT(temp1_pllckcfg, RCC_PLLCKSELR_PLLSRC) != RCC_OscInitStruct->PLL.PLLSource) ||
 8002faa:	f002 0303 	and.w	r3, r2, #3
      if (((RCC_OscInitStruct->PLL.PLLState) == RCC_PLL_OFF) ||
 8002fae:	6aa1      	ldr	r1, [r4, #40]	; 0x28
 8002fb0:	428b      	cmp	r3, r1
 8002fb2:	f47f aeb9 	bne.w	8002d28 <HAL_RCC_OscConfig+0x240>
          ((READ_BIT(temp1_pllckcfg, RCC_PLLCKSELR_DIVM1) >> RCC_PLLCKSELR_DIVM1_Pos) != RCC_OscInitStruct->PLL.PLLM) ||
 8002fb6:	f3c2 1205 	ubfx	r2, r2, #4, #6
          (READ_BIT(temp1_pllckcfg, RCC_PLLCKSELR_PLLSRC) != RCC_OscInitStruct->PLL.PLLSource) ||
 8002fba:	6ae3      	ldr	r3, [r4, #44]	; 0x2c
 8002fbc:	429a      	cmp	r2, r3
 8002fbe:	f47f aeb3 	bne.w	8002d28 <HAL_RCC_OscConfig+0x240>
          (READ_BIT(temp2_pllckcfg, RCC_PLL1DIVR_N1) != (RCC_OscInitStruct->PLL.PLLN - 1U)) ||
 8002fc2:	6b23      	ldr	r3, [r4, #48]	; 0x30
 8002fc4:	f3c6 0208 	ubfx	r2, r6, #0, #9
 8002fc8:	3b01      	subs	r3, #1
          ((READ_BIT(temp1_pllckcfg, RCC_PLLCKSELR_DIVM1) >> RCC_PLLCKSELR_DIVM1_Pos) != RCC_OscInitStruct->PLL.PLLM) ||
 8002fca:	429a      	cmp	r2, r3
 8002fcc:	f47f aeac 	bne.w	8002d28 <HAL_RCC_OscConfig+0x240>
          ((READ_BIT(temp2_pllckcfg, RCC_PLL1DIVR_P1) >> RCC_PLL1DIVR_P1_Pos) != (RCC_OscInitStruct->PLL.PLLP - 1U)) ||
 8002fd0:	6b63      	ldr	r3, [r4, #52]	; 0x34
 8002fd2:	f3c6 2246 	ubfx	r2, r6, #9, #7
 8002fd6:	3b01      	subs	r3, #1
          (READ_BIT(temp2_pllckcfg, RCC_PLL1DIVR_N1) != (RCC_OscInitStruct->PLL.PLLN - 1U)) ||
 8002fd8:	429a      	cmp	r2, r3
 8002fda:	f47f aea5 	bne.w	8002d28 <HAL_RCC_OscConfig+0x240>
          ((READ_BIT(temp2_pllckcfg, RCC_PLL1DIVR_Q1) >> RCC_PLL1DIVR_Q1_Pos) != (RCC_OscInitStruct->PLL.PLLQ - 1U)) ||
 8002fde:	6ba3      	ldr	r3, [r4, #56]	; 0x38
 8002fe0:	f3c6 4206 	ubfx	r2, r6, #16, #7
 8002fe4:	3b01      	subs	r3, #1
          ((READ_BIT(temp2_pllckcfg, RCC_PLL1DIVR_P1) >> RCC_PLL1DIVR_P1_Pos) != (RCC_OscInitStruct->PLL.PLLP - 1U)) ||
 8002fe6:	429a      	cmp	r2, r3
 8002fe8:	f47f ae9e 	bne.w	8002d28 <HAL_RCC_OscConfig+0x240>
          ((READ_BIT(temp2_pllckcfg, RCC_PLL1DIVR_R1) >> RCC_PLL1DIVR_R1_Pos) != (RCC_OscInitStruct->PLL.PLLR - 1U)))
 8002fec:	6be3      	ldr	r3, [r4, #60]	; 0x3c
 8002fee:	f3c6 6606 	ubfx	r6, r6, #24, #7
 8002ff2:	3b01      	subs	r3, #1
          ((READ_BIT(temp2_pllckcfg, RCC_PLL1DIVR_Q1) >> RCC_PLL1DIVR_Q1_Pos) != (RCC_OscInitStruct->PLL.PLLQ - 1U)) ||
 8002ff4:	429e      	cmp	r6, r3
 8002ff6:	f47f ae97 	bne.w	8002d28 <HAL_RCC_OscConfig+0x240>
        temp1_pllckcfg = ((RCC->PLL1FRACR & RCC_PLL1FRACR_FRACN1) >> RCC_PLL1FRACR_FRACN1_Pos);
 8002ffa:	6b6b      	ldr	r3, [r5, #52]	; 0x34
        if (RCC_OscInitStruct->PLL.PLLFRACN != temp1_pllckcfg)
 8002ffc:	6ca2      	ldr	r2, [r4, #72]	; 0x48
        temp1_pllckcfg = ((RCC->PLL1FRACR & RCC_PLL1FRACR_FRACN1) >> RCC_PLL1FRACR_FRACN1_Pos);
 8002ffe:	f3c3 03cc 	ubfx	r3, r3, #3, #13
        if (RCC_OscInitStruct->PLL.PLLFRACN != temp1_pllckcfg)
 8003002:	429a      	cmp	r2, r3
 8003004:	f43f ae32 	beq.w	8002c6c <HAL_RCC_OscConfig+0x184>
          __HAL_RCC_PLLFRACN_DISABLE();
 8003008:	4a10      	ldr	r2, [pc, #64]	; (800304c <HAL_RCC_OscConfig+0x564>)
 800300a:	6ad3      	ldr	r3, [r2, #44]	; 0x2c
 800300c:	f023 0301 	bic.w	r3, r3, #1
 8003010:	62d3      	str	r3, [r2, #44]	; 0x2c
          tickstart = HAL_GetTick();
 8003012:	f7fe f899 	bl	8001148 <HAL_GetTick>
 8003016:	4605      	mov	r5, r0
          while ((HAL_GetTick() - tickstart) < PLL_FRAC_TIMEOUT_VALUE)
 8003018:	f7fe f896 	bl	8001148 <HAL_GetTick>
 800301c:	42a8      	cmp	r0, r5
 800301e:	d0fb      	beq.n	8003018 <HAL_RCC_OscConfig+0x530>
          __HAL_RCC_PLLFRACN_CONFIG(RCC_OscInitStruct->PLL.PLLFRACN);
 8003020:	4a0a      	ldr	r2, [pc, #40]	; (800304c <HAL_RCC_OscConfig+0x564>)
  return HAL_OK;
 8003022:	2000      	movs	r0, #0
          __HAL_RCC_PLLFRACN_CONFIG(RCC_OscInitStruct->PLL.PLLFRACN);
 8003024:	6ca1      	ldr	r1, [r4, #72]	; 0x48
 8003026:	4b0b      	ldr	r3, [pc, #44]	; (8003054 <HAL_RCC_OscConfig+0x56c>)
 8003028:	6b54      	ldr	r4, [r2, #52]	; 0x34
 800302a:	4023      	ands	r3, r4
 800302c:	ea43 03c1 	orr.w	r3, r3, r1, lsl #3
 8003030:	6353      	str	r3, [r2, #52]	; 0x34
          __HAL_RCC_PLLFRACN_ENABLE();
 8003032:	6ad3      	ldr	r3, [r2, #44]	; 0x2c
 8003034:	f043 0301 	orr.w	r3, r3, #1
 8003038:	62d3      	str	r3, [r2, #44]	; 0x2c
}
 800303a:	bdf8      	pop	{r3, r4, r5, r6, r7, pc}
      __HAL_RCC_HSE_CONFIG(RCC_OscInitStruct->HSEState);
 800303c:	f442 2280 	orr.w	r2, r2, #262144	; 0x40000
 8003040:	601a      	str	r2, [r3, #0]
 8003042:	681a      	ldr	r2, [r3, #0]
 8003044:	f442 3280 	orr.w	r2, r2, #65536	; 0x10000
 8003048:	601a      	str	r2, [r3, #0]
 800304a:	e575      	b.n	8002b38 <HAL_RCC_OscConfig+0x50>
 800304c:	58024400 	.word	0x58024400
 8003050:	fffffc0c 	.word	0xfffffc0c
 8003054:	ffff0007 	.word	0xffff0007
    __HAL_RCC_LSE_CONFIG(RCC_OscInitStruct->LSEState);
 8003058:	4d1c      	ldr	r5, [pc, #112]	; (80030cc <HAL_RCC_OscConfig+0x5e4>)
        if ((HAL_GetTick() - tickstart) > RCC_LSE_TIMEOUT_VALUE)
 800305a:	f241 3788 	movw	r7, #5000	; 0x1388
    __HAL_RCC_LSE_CONFIG(RCC_OscInitStruct->LSEState);
 800305e:	6f2b      	ldr	r3, [r5, #112]	; 0x70
 8003060:	f023 0301 	bic.w	r3, r3, #1
 8003064:	672b      	str	r3, [r5, #112]	; 0x70
 8003066:	6f2b      	ldr	r3, [r5, #112]	; 0x70
 8003068:	f023 0304 	bic.w	r3, r3, #4
 800306c:	672b      	str	r3, [r5, #112]	; 0x70
      tickstart = HAL_GetTick();
 800306e:	f7fe f86b 	bl	8001148 <HAL_GetTick>
 8003072:	4606      	mov	r6, r0
      while (__HAL_RCC_GET_FLAG(RCC_FLAG_LSERDY) != 0U)
 8003074:	e005      	b.n	8003082 <HAL_RCC_OscConfig+0x59a>
        if ((HAL_GetTick() - tickstart) > RCC_LSE_TIMEOUT_VALUE)
 8003076:	f7fe f867 	bl	8001148 <HAL_GetTick>
 800307a:	1b80      	subs	r0, r0, r6
 800307c:	42b8      	cmp	r0, r7
 800307e:	f63f aeb4 	bhi.w	8002dea <HAL_RCC_OscConfig+0x302>
      while (__HAL_RCC_GET_FLAG(RCC_FLAG_LSERDY) != 0U)
 8003082:	6f2b      	ldr	r3, [r5, #112]	; 0x70
 8003084:	0798      	lsls	r0, r3, #30
 8003086:	d4f6      	bmi.n	8003076 <HAL_RCC_OscConfig+0x58e>
 8003088:	e5d3      	b.n	8002c32 <HAL_RCC_OscConfig+0x14a>
        __HAL_RCC_CSI_CALIBRATIONVALUE_ADJUST(RCC_OscInitStruct->CSICalibrationValue);
 800308a:	68eb      	ldr	r3, [r5, #12]
 800308c:	6a22      	ldr	r2, [r4, #32]
 800308e:	f023 537c 	bic.w	r3, r3, #1056964608	; 0x3f000000
 8003092:	ea43 6302 	orr.w	r3, r3, r2, lsl #24
 8003096:	60eb      	str	r3, [r5, #12]
  if (((RCC_OscInitStruct->OscillatorType) & RCC_OSCILLATORTYPE_LSI) == RCC_OSCILLATORTYPE_LSI)
 8003098:	6823      	ldr	r3, [r4, #0]
 800309a:	e595      	b.n	8002bc8 <HAL_RCC_OscConfig+0xe0>
    __HAL_RCC_LSE_CONFIG(RCC_OscInitStruct->LSEState);
 800309c:	4a0b      	ldr	r2, [pc, #44]	; (80030cc <HAL_RCC_OscConfig+0x5e4>)
 800309e:	6f13      	ldr	r3, [r2, #112]	; 0x70
 80030a0:	f043 0301 	orr.w	r3, r3, #1
 80030a4:	6713      	str	r3, [r2, #112]	; 0x70
    if ((RCC_OscInitStruct->LSEState) != RCC_LSE_OFF)
 80030a6:	e690      	b.n	8002dca <HAL_RCC_OscConfig+0x2e2>
        __HAL_RCC_CSI_CALIBRATIONVALUE_ADJUST(RCC_OscInitStruct->CSICalibrationValue);
 80030a8:	4a08      	ldr	r2, [pc, #32]	; (80030cc <HAL_RCC_OscConfig+0x5e4>)
 80030aa:	6853      	ldr	r3, [r2, #4]
 80030ac:	f023 43f8 	bic.w	r3, r3, #2080374784	; 0x7c000000
 80030b0:	f043 4380 	orr.w	r3, r3, #1073741824	; 0x40000000
 80030b4:	6053      	str	r3, [r2, #4]
  if (((RCC_OscInitStruct->OscillatorType) & RCC_OSCILLATORTYPE_LSI) == RCC_OSCILLATORTYPE_LSI)
 80030b6:	6823      	ldr	r3, [r4, #0]
 80030b8:	e586      	b.n	8002bc8 <HAL_RCC_OscConfig+0xe0>
    __HAL_RCC_LSE_CONFIG(RCC_OscInitStruct->LSEState);
 80030ba:	f042 0204 	orr.w	r2, r2, #4
 80030be:	671a      	str	r2, [r3, #112]	; 0x70
 80030c0:	6f1a      	ldr	r2, [r3, #112]	; 0x70
 80030c2:	f042 0201 	orr.w	r2, r2, #1
 80030c6:	671a      	str	r2, [r3, #112]	; 0x70
 80030c8:	e67f      	b.n	8002dca <HAL_RCC_OscConfig+0x2e2>
 80030ca:	bf00      	nop
 80030cc:	58024400 	.word	0x58024400

080030d0 <HAL_RCC_GetSysClockFreq>:
  switch (RCC->CFGR & RCC_CFGR_SWS)
 80030d0:	4a48      	ldr	r2, [pc, #288]	; (80031f4 <HAL_RCC_GetSysClockFreq+0x124>)
 80030d2:	6913      	ldr	r3, [r2, #16]
 80030d4:	f003 0338 	and.w	r3, r3, #56	; 0x38
 80030d8:	2b10      	cmp	r3, #16
 80030da:	d004      	beq.n	80030e6 <HAL_RCC_GetSysClockFreq+0x16>
 80030dc:	2b18      	cmp	r3, #24
 80030de:	d00d      	beq.n	80030fc <HAL_RCC_GetSysClockFreq+0x2c>
 80030e0:	b11b      	cbz	r3, 80030ea <HAL_RCC_GetSysClockFreq+0x1a>
      sysclockfreq = CSI_VALUE;
 80030e2:	4845      	ldr	r0, [pc, #276]	; (80031f8 <HAL_RCC_GetSysClockFreq+0x128>)
 80030e4:	4770      	bx	lr
  switch (RCC->CFGR & RCC_CFGR_SWS)
 80030e6:	4845      	ldr	r0, [pc, #276]	; (80031fc <HAL_RCC_GetSysClockFreq+0x12c>)
 80030e8:	4770      	bx	lr
      if (__HAL_RCC_GET_FLAG(RCC_FLAG_HSIDIV) != 0U)
 80030ea:	6813      	ldr	r3, [r2, #0]
 80030ec:	0699      	lsls	r1, r3, #26
 80030ee:	d54a      	bpl.n	8003186 <HAL_RCC_GetSysClockFreq+0xb6>
        sysclockfreq = (uint32_t)(HSI_VALUE >> (__HAL_RCC_GET_HSI_DIVIDER() >> 3));
 80030f0:	6813      	ldr	r3, [r2, #0]
 80030f2:	4843      	ldr	r0, [pc, #268]	; (8003200 <HAL_RCC_GetSysClockFreq+0x130>)
 80030f4:	f3c3 03c1 	ubfx	r3, r3, #3, #2
 80030f8:	40d8      	lsrs	r0, r3
 80030fa:	4770      	bx	lr
      pllsource = (RCC->PLLCKSELR & RCC_PLLCKSELR_PLLSRC);
 80030fc:	6a93      	ldr	r3, [r2, #40]	; 0x28
{
 80030fe:	b430      	push	{r4, r5}
      pllm = ((RCC->PLLCKSELR & RCC_PLLCKSELR_DIVM1) >> 4)  ;
 8003100:	6a94      	ldr	r4, [r2, #40]	; 0x28
      pllfracen = ((RCC-> PLLCFGR & RCC_PLLCFGR_PLL1FRACEN) >> RCC_PLLCFGR_PLL1FRACEN_Pos);
 8003102:	6ad5      	ldr	r5, [r2, #44]	; 0x2c
      if (pllm != 0U)
 8003104:	f414 7f7c 	tst.w	r4, #1008	; 0x3f0
      fracn1 = (float_t)(uint32_t)(pllfracen * ((RCC->PLL1FRACR & RCC_PLL1FRACR_FRACN1) >> 3));
 8003108:	6b51      	ldr	r1, [r2, #52]	; 0x34
      pllm = ((RCC->PLLCKSELR & RCC_PLLCKSELR_DIVM1) >> 4)  ;
 800310a:	f3c4 1005 	ubfx	r0, r4, #4, #6
      if (pllm != 0U)
 800310e:	d038      	beq.n	8003182 <HAL_RCC_GetSysClockFreq+0xb2>
      fracn1 = (float_t)(uint32_t)(pllfracen * ((RCC->PLL1FRACR & RCC_PLL1FRACR_FRACN1) >> 3));
 8003110:	f3c1 01cc 	ubfx	r1, r1, #3, #13
      pllfracen = ((RCC-> PLLCFGR & RCC_PLLCFGR_PLL1FRACEN) >> RCC_PLLCFGR_PLL1FRACEN_Pos);
 8003114:	f005 0501 	and.w	r5, r5, #1
      pllsource = (RCC->PLLCKSELR & RCC_PLLCKSELR_PLLSRC);
 8003118:	f003 0303 	and.w	r3, r3, #3
      fracn1 = (float_t)(uint32_t)(pllfracen * ((RCC->PLL1FRACR & RCC_PLL1FRACR_FRACN1) >> 3));
 800311c:	fb05 f101 	mul.w	r1, r5, r1
 8003120:	2b01      	cmp	r3, #1
 8003122:	ee07 1a90 	vmov	s15, r1
 8003126:	eeb8 7ae7 	vcvt.f32.s32	s14, s15
        switch (pllsource)
 800312a:	d002      	beq.n	8003132 <HAL_RCC_GetSysClockFreq+0x62>
 800312c:	2b02      	cmp	r3, #2
 800312e:	d02c      	beq.n	800318a <HAL_RCC_GetSysClockFreq+0xba>
 8003130:	b393      	cbz	r3, 8003198 <HAL_RCC_GetSysClockFreq+0xc8>
            pllvco = ((float_t)CSI_VALUE / (float_t)pllm) * ((float_t)(uint32_t)(RCC->PLL1DIVR & RCC_PLL1DIVR_N1) + (fracn1 / (float_t)0x2000) + (float_t)1);
 8003132:	ee07 0a90 	vmov	s15, r0
 8003136:	ed9f 5a33 	vldr	s10, [pc, #204]	; 8003204 <HAL_RCC_GetSysClockFreq+0x134>
 800313a:	eef8 7ae7 	vcvt.f32.s32	s15, s15
 800313e:	6b13      	ldr	r3, [r2, #48]	; 0x30
 8003140:	eec5 6a27 	vdiv.f32	s13, s10, s15
 8003144:	ed9f 6a30 	vldr	s12, [pc, #192]	; 8003208 <HAL_RCC_GetSysClockFreq+0x138>
 8003148:	f3c3 0308 	ubfx	r3, r3, #0, #9
 800314c:	ee07 3a90 	vmov	s15, r3
 8003150:	eef7 5a00 	vmov.f32	s11, #112	; 0x3f800000  1.0
 8003154:	eef8 7ae7 	vcvt.f32.s32	s15, s15
 8003158:	ee77 7aa5 	vadd.f32	s15, s15, s11
 800315c:	eee7 7a06 	vfma.f32	s15, s14, s12
 8003160:	ee66 6aa7 	vmul.f32	s13, s13, s15
        pllp = (((RCC->PLL1DIVR & RCC_PLL1DIVR_P1) >> 9) + 1U) ;
 8003164:	4b23      	ldr	r3, [pc, #140]	; (80031f4 <HAL_RCC_GetSysClockFreq+0x124>)
 8003166:	6b1b      	ldr	r3, [r3, #48]	; 0x30
 8003168:	f3c3 2346 	ubfx	r3, r3, #9, #7
 800316c:	3301      	adds	r3, #1
        sysclockfreq = (uint32_t)(float_t)(pllvco / (float_t)pllp);
 800316e:	ee07 3a90 	vmov	s15, r3
 8003172:	eeb8 7ae7 	vcvt.f32.s32	s14, s15
 8003176:	eec6 7a87 	vdiv.f32	s15, s13, s14
 800317a:	eefc 7ae7 	vcvt.u32.f32	s15, s15
 800317e:	ee17 0a90 	vmov	r0, s15
}
 8003182:	bc30      	pop	{r4, r5}
 8003184:	4770      	bx	lr
        sysclockfreq = (uint32_t) HSI_VALUE;
 8003186:	481e      	ldr	r0, [pc, #120]	; (8003200 <HAL_RCC_GetSysClockFreq+0x130>)
}
 8003188:	4770      	bx	lr
            pllvco = ((float_t)HSE_VALUE / (float_t)pllm) * ((float_t)(uint32_t)(RCC->PLL1DIVR & RCC_PLL1DIVR_N1) + (fracn1 / (float_t)0x2000) + (float_t)1);
 800318a:	ee07 0a90 	vmov	s15, r0
 800318e:	ed9f 5a1f 	vldr	s10, [pc, #124]	; 800320c <HAL_RCC_GetSysClockFreq+0x13c>
 8003192:	eef8 7ae7 	vcvt.f32.s32	s15, s15
 8003196:	e7d2      	b.n	800313e <HAL_RCC_GetSysClockFreq+0x6e>
            if (__HAL_RCC_GET_FLAG(RCC_FLAG_HSIDIV) != 0U)
 8003198:	6813      	ldr	r3, [r2, #0]
 800319a:	069b      	lsls	r3, r3, #26
 800319c:	d522      	bpl.n	80031e4 <HAL_RCC_GetSysClockFreq+0x114>
              hsivalue = (HSI_VALUE >> (__HAL_RCC_GET_HSI_DIVIDER() >> 3));
 800319e:	6814      	ldr	r4, [r2, #0]
              pllvco = ((float_t)hsivalue / (float_t)pllm) * ((float_t)(uint32_t)(RCC->PLL1DIVR & RCC_PLL1DIVR_N1) + (fracn1 / (float_t)0x2000) + (float_t)1);
 80031a0:	ee07 0a90 	vmov	s15, r0
              hsivalue = (HSI_VALUE >> (__HAL_RCC_GET_HSI_DIVIDER() >> 3));
 80031a4:	4916      	ldr	r1, [pc, #88]	; (8003200 <HAL_RCC_GetSysClockFreq+0x130>)
              pllvco = ((float_t)hsivalue / (float_t)pllm) * ((float_t)(uint32_t)(RCC->PLL1DIVR & RCC_PLL1DIVR_N1) + (fracn1 / (float_t)0x2000) + (float_t)1);
 80031a6:	eef7 6a00 	vmov.f32	s13, #112	; 0x3f800000  1.0
 80031aa:	6b13      	ldr	r3, [r2, #48]	; 0x30
              hsivalue = (HSI_VALUE >> (__HAL_RCC_GET_HSI_DIVIDER() >> 3));
 80031ac:	f3c4 04c1 	ubfx	r4, r4, #3, #2
              pllvco = ((float_t)hsivalue / (float_t)pllm) * ((float_t)(uint32_t)(RCC->PLL1DIVR & RCC_PLL1DIVR_N1) + (fracn1 / (float_t)0x2000) + (float_t)1);
 80031b0:	eef8 7ae7 	vcvt.f32.s32	s15, s15
 80031b4:	ed9f 5a14 	vldr	s10, [pc, #80]	; 8003208 <HAL_RCC_GetSysClockFreq+0x138>
 80031b8:	f3c3 0308 	ubfx	r3, r3, #0, #9
              hsivalue = (HSI_VALUE >> (__HAL_RCC_GET_HSI_DIVIDER() >> 3));
 80031bc:	40e1      	lsrs	r1, r4
              pllvco = ((float_t)hsivalue / (float_t)pllm) * ((float_t)(uint32_t)(RCC->PLL1DIVR & RCC_PLL1DIVR_N1) + (fracn1 / (float_t)0x2000) + (float_t)1);
 80031be:	ee06 3a10 	vmov	s12, r3
 80031c2:	ee05 1a90 	vmov	s11, r1
 80031c6:	eeb8 6ac6 	vcvt.f32.s32	s12, s12
 80031ca:	eef8 5ae5 	vcvt.f32.s32	s11, s11
 80031ce:	ee36 6a26 	vadd.f32	s12, s12, s13
 80031d2:	eec5 6aa7 	vdiv.f32	s13, s11, s15
 80031d6:	eef0 7a46 	vmov.f32	s15, s12
 80031da:	eee7 7a05 	vfma.f32	s15, s14, s10
 80031de:	ee66 6aa7 	vmul.f32	s13, s13, s15
 80031e2:	e7bf      	b.n	8003164 <HAL_RCC_GetSysClockFreq+0x94>
              pllvco = ((float_t)HSI_VALUE / (float_t)pllm) * ((float_t)(uint32_t)(RCC->PLL1DIVR & RCC_PLL1DIVR_N1) + (fracn1 / (float_t)0x2000) + (float_t)1);
 80031e4:	ee07 0a90 	vmov	s15, r0
 80031e8:	ed9f 5a09 	vldr	s10, [pc, #36]	; 8003210 <HAL_RCC_GetSysClockFreq+0x140>
 80031ec:	eef8 7ae7 	vcvt.f32.s32	s15, s15
 80031f0:	e7a5      	b.n	800313e <HAL_RCC_GetSysClockFreq+0x6e>
 80031f2:	bf00      	nop
 80031f4:	58024400 	.word	0x58024400
 80031f8:	003d0900 	.word	0x003d0900
 80031fc:	017d7840 	.word	0x017d7840
 8003200:	03d09000 	.word	0x03d09000
 8003204:	4a742400 	.word	0x4a742400
 8003208:	39000000 	.word	0x39000000
 800320c:	4bbebc20 	.word	0x4bbebc20
 8003210:	4c742400 	.word	0x4c742400

08003214 <HAL_RCC_ClockConfig>:
  if (RCC_ClkInitStruct == NULL)
 8003214:	2800      	cmp	r0, #0
 8003216:	f000 810c 	beq.w	8003432 <HAL_RCC_ClockConfig+0x21e>
  if (FLatency > __HAL_FLASH_GET_LATENCY())
 800321a:	4a8c      	ldr	r2, [pc, #560]	; (800344c <HAL_RCC_ClockConfig+0x238>)
 800321c:	6813      	ldr	r3, [r2, #0]
 800321e:	f003 030f 	and.w	r3, r3, #15
 8003222:	428b      	cmp	r3, r1
{
 8003224:	e92d 41f0 	stmdb	sp!, {r4, r5, r6, r7, r8, lr}
 8003228:	4604      	mov	r4, r0
 800322a:	460d      	mov	r5, r1
  if (FLatency > __HAL_FLASH_GET_LATENCY())
 800322c:	d20c      	bcs.n	8003248 <HAL_RCC_ClockConfig+0x34>
    __HAL_FLASH_SET_LATENCY(FLatency);
 800322e:	6813      	ldr	r3, [r2, #0]
 8003230:	f023 030f 	bic.w	r3, r3, #15
 8003234:	430b      	orrs	r3, r1
 8003236:	6013      	str	r3, [r2, #0]
    if (__HAL_FLASH_GET_LATENCY() != FLatency)
 8003238:	6813      	ldr	r3, [r2, #0]
 800323a:	f003 030f 	and.w	r3, r3, #15
 800323e:	428b      	cmp	r3, r1
 8003240:	d002      	beq.n	8003248 <HAL_RCC_ClockConfig+0x34>
    return HAL_ERROR;
 8003242:	2001      	movs	r0, #1
}
 8003244:	e8bd 81f0 	ldmia.w	sp!, {r4, r5, r6, r7, r8, pc}
  if (((RCC_ClkInitStruct->ClockType) & RCC_CLOCKTYPE_D1PCLK1) == RCC_CLOCKTYPE_D1PCLK1)
 8003248:	6823      	ldr	r3, [r4, #0]
 800324a:	075f      	lsls	r7, r3, #29
 800324c:	d50b      	bpl.n	8003266 <HAL_RCC_ClockConfig+0x52>
    if ((RCC_ClkInitStruct->APB3CLKDivider) > (RCC->D1CFGR & RCC_D1CFGR_D1PPRE))
 800324e:	4980      	ldr	r1, [pc, #512]	; (8003450 <HAL_RCC_ClockConfig+0x23c>)
 8003250:	6920      	ldr	r0, [r4, #16]
 8003252:	698a      	ldr	r2, [r1, #24]
 8003254:	f002 0270 	and.w	r2, r2, #112	; 0x70
 8003258:	4290      	cmp	r0, r2
 800325a:	d904      	bls.n	8003266 <HAL_RCC_ClockConfig+0x52>
      MODIFY_REG(RCC->D1CFGR, RCC_D1CFGR_D1PPRE, RCC_ClkInitStruct->APB3CLKDivider);
 800325c:	698a      	ldr	r2, [r1, #24]
 800325e:	f022 0270 	bic.w	r2, r2, #112	; 0x70
 8003262:	4302      	orrs	r2, r0
 8003264:	618a      	str	r2, [r1, #24]
  if (((RCC_ClkInitStruct->ClockType) & RCC_CLOCKTYPE_PCLK1) == RCC_CLOCKTYPE_PCLK1)
 8003266:	071e      	lsls	r6, r3, #28
 8003268:	d50b      	bpl.n	8003282 <HAL_RCC_ClockConfig+0x6e>
    if ((RCC_ClkInitStruct->APB1CLKDivider) > (RCC->D2CFGR & RCC_D2CFGR_D2PPRE1))
 800326a:	4979      	ldr	r1, [pc, #484]	; (8003450 <HAL_RCC_ClockConfig+0x23c>)
 800326c:	6960      	ldr	r0, [r4, #20]
 800326e:	69ca      	ldr	r2, [r1, #28]
 8003270:	f002 0270 	and.w	r2, r2, #112	; 0x70
 8003274:	4290      	cmp	r0, r2
 8003276:	d904      	bls.n	8003282 <HAL_RCC_ClockConfig+0x6e>
      MODIFY_REG(RCC->D2CFGR, RCC_D2CFGR_D2PPRE1, (RCC_ClkInitStruct->APB1CLKDivider));
 8003278:	69ca      	ldr	r2, [r1, #28]
 800327a:	f022 0270 	bic.w	r2, r2, #112	; 0x70
 800327e:	4302      	orrs	r2, r0
 8003280:	61ca      	str	r2, [r1, #28]
  if (((RCC_ClkInitStruct->ClockType) & RCC_CLOCKTYPE_PCLK2) == RCC_CLOCKTYPE_PCLK2)
 8003282:	06d8      	lsls	r0, r3, #27
 8003284:	d50b      	bpl.n	800329e <HAL_RCC_ClockConfig+0x8a>
    if ((RCC_ClkInitStruct->APB2CLKDivider) > (RCC->D2CFGR & RCC_D2CFGR_D2PPRE2))
 8003286:	4972      	ldr	r1, [pc, #456]	; (8003450 <HAL_RCC_ClockConfig+0x23c>)
 8003288:	69a0      	ldr	r0, [r4, #24]
 800328a:	69ca      	ldr	r2, [r1, #28]
 800328c:	f402 62e0 	and.w	r2, r2, #1792	; 0x700
 8003290:	4290      	cmp	r0, r2
 8003292:	d904      	bls.n	800329e <HAL_RCC_ClockConfig+0x8a>
      MODIFY_REG(RCC->D2CFGR, RCC_D2CFGR_D2PPRE2, (RCC_ClkInitStruct->APB2CLKDivider));
 8003294:	69ca      	ldr	r2, [r1, #28]
 8003296:	f422 62e0 	bic.w	r2, r2, #1792	; 0x700
 800329a:	4302      	orrs	r2, r0
 800329c:	61ca      	str	r2, [r1, #28]
  if (((RCC_ClkInitStruct->ClockType) & RCC_CLOCKTYPE_D3PCLK1) == RCC_CLOCKTYPE_D3PCLK1)
 800329e:	0699      	lsls	r1, r3, #26
 80032a0:	d50b      	bpl.n	80032ba <HAL_RCC_ClockConfig+0xa6>
    if ((RCC_ClkInitStruct->APB4CLKDivider) > (RCC->D3CFGR & RCC_D3CFGR_D3PPRE))
 80032a2:	496b      	ldr	r1, [pc, #428]	; (8003450 <HAL_RCC_ClockConfig+0x23c>)
 80032a4:	69e0      	ldr	r0, [r4, #28]
 80032a6:	6a0a      	ldr	r2, [r1, #32]
 80032a8:	f002 0270 	and.w	r2, r2, #112	; 0x70
 80032ac:	4290      	cmp	r0, r2
 80032ae:	d904      	bls.n	80032ba <HAL_RCC_ClockConfig+0xa6>
      MODIFY_REG(RCC->D3CFGR, RCC_D3CFGR_D3PPRE, (RCC_ClkInitStruct->APB4CLKDivider));
 80032b0:	6a0a      	ldr	r2, [r1, #32]
 80032b2:	f022 0270 	bic.w	r2, r2, #112	; 0x70
 80032b6:	4302      	orrs	r2, r0
 80032b8:	620a      	str	r2, [r1, #32]
  if (((RCC_ClkInitStruct->ClockType) & RCC_CLOCKTYPE_HCLK) == RCC_CLOCKTYPE_HCLK)
 80032ba:	079a      	lsls	r2, r3, #30
 80032bc:	f140 80ab 	bpl.w	8003416 <HAL_RCC_ClockConfig+0x202>
    if ((RCC_ClkInitStruct->AHBCLKDivider) > (RCC->D1CFGR & RCC_D1CFGR_HPRE))
 80032c0:	4863      	ldr	r0, [pc, #396]	; (8003450 <HAL_RCC_ClockConfig+0x23c>)
 80032c2:	68e1      	ldr	r1, [r4, #12]
 80032c4:	6982      	ldr	r2, [r0, #24]
 80032c6:	f002 020f 	and.w	r2, r2, #15
 80032ca:	4291      	cmp	r1, r2
 80032cc:	d904      	bls.n	80032d8 <HAL_RCC_ClockConfig+0xc4>
      MODIFY_REG(RCC->D1CFGR, RCC_D1CFGR_HPRE, RCC_ClkInitStruct->AHBCLKDivider);
 80032ce:	6982      	ldr	r2, [r0, #24]
 80032d0:	f022 020f 	bic.w	r2, r2, #15
 80032d4:	430a      	orrs	r2, r1
 80032d6:	6182      	str	r2, [r0, #24]
  if (((RCC_ClkInitStruct->ClockType) & RCC_CLOCKTYPE_SYSCLK) == RCC_CLOCKTYPE_SYSCLK)
 80032d8:	07d8      	lsls	r0, r3, #31
 80032da:	d530      	bpl.n	800333e <HAL_RCC_ClockConfig+0x12a>
    MODIFY_REG(RCC->D1CFGR, RCC_D1CFGR_D1CPRE, RCC_ClkInitStruct->SYSCLKDivider);
 80032dc:	4a5c      	ldr	r2, [pc, #368]	; (8003450 <HAL_RCC_ClockConfig+0x23c>)
 80032de:	68a1      	ldr	r1, [r4, #8]
 80032e0:	6993      	ldr	r3, [r2, #24]
 80032e2:	f423 6370 	bic.w	r3, r3, #3840	; 0xf00
 80032e6:	430b      	orrs	r3, r1
 80032e8:	6193      	str	r3, [r2, #24]
    if (RCC_ClkInitStruct->SYSCLKSource == RCC_SYSCLKSOURCE_HSE)
 80032ea:	6861      	ldr	r1, [r4, #4]
      if (__HAL_RCC_GET_FLAG(RCC_FLAG_HSERDY) == 0U)
 80032ec:	6813      	ldr	r3, [r2, #0]
    if (RCC_ClkInitStruct->SYSCLKSource == RCC_SYSCLKSOURCE_HSE)
 80032ee:	2902      	cmp	r1, #2
 80032f0:	f000 80a1 	beq.w	8003436 <HAL_RCC_ClockConfig+0x222>
    else if (RCC_ClkInitStruct->SYSCLKSource == RCC_SYSCLKSOURCE_PLLCLK)
 80032f4:	2903      	cmp	r1, #3
 80032f6:	f000 8098 	beq.w	800342a <HAL_RCC_ClockConfig+0x216>
    else if (RCC_ClkInitStruct->SYSCLKSource == RCC_SYSCLKSOURCE_CSI)
 80032fa:	2901      	cmp	r1, #1
 80032fc:	f000 80a1 	beq.w	8003442 <HAL_RCC_ClockConfig+0x22e>
      if (__HAL_RCC_GET_FLAG(RCC_FLAG_HSIRDY) == 0U)
 8003300:	0758      	lsls	r0, r3, #29
 8003302:	d59e      	bpl.n	8003242 <HAL_RCC_ClockConfig+0x2e>
    MODIFY_REG(RCC->CFGR, RCC_CFGR_SW, RCC_ClkInitStruct->SYSCLKSource);
 8003304:	4e52      	ldr	r6, [pc, #328]	; (8003450 <HAL_RCC_ClockConfig+0x23c>)
      if ((HAL_GetTick() - tickstart) > CLOCKSWITCH_TIMEOUT_VALUE)
 8003306:	f241 3888 	movw	r8, #5000	; 0x1388
    MODIFY_REG(RCC->CFGR, RCC_CFGR_SW, RCC_ClkInitStruct->SYSCLKSource);
 800330a:	6933      	ldr	r3, [r6, #16]
 800330c:	f023 0307 	bic.w	r3, r3, #7
 8003310:	430b      	orrs	r3, r1
 8003312:	6133      	str	r3, [r6, #16]
    tickstart = HAL_GetTick();
 8003314:	f7fd ff18 	bl	8001148 <HAL_GetTick>
 8003318:	4607      	mov	r7, r0
    while (__HAL_RCC_GET_SYSCLK_SOURCE() != (RCC_ClkInitStruct->SYSCLKSource << RCC_CFGR_SWS_Pos))
 800331a:	e005      	b.n	8003328 <HAL_RCC_ClockConfig+0x114>
      if ((HAL_GetTick() - tickstart) > CLOCKSWITCH_TIMEOUT_VALUE)
 800331c:	f7fd ff14 	bl	8001148 <HAL_GetTick>
 8003320:	1bc0      	subs	r0, r0, r7
 8003322:	4540      	cmp	r0, r8
 8003324:	f200 808b 	bhi.w	800343e <HAL_RCC_ClockConfig+0x22a>
    while (__HAL_RCC_GET_SYSCLK_SOURCE() != (RCC_ClkInitStruct->SYSCLKSource << RCC_CFGR_SWS_Pos))
 8003328:	6933      	ldr	r3, [r6, #16]
 800332a:	6862      	ldr	r2, [r4, #4]
 800332c:	f003 0338 	and.w	r3, r3, #56	; 0x38
 8003330:	ebb3 0fc2 	cmp.w	r3, r2, lsl #3
 8003334:	d1f2      	bne.n	800331c <HAL_RCC_ClockConfig+0x108>
  if (((RCC_ClkInitStruct->ClockType) & RCC_CLOCKTYPE_HCLK) == RCC_CLOCKTYPE_HCLK)
 8003336:	6823      	ldr	r3, [r4, #0]
 8003338:	0799      	lsls	r1, r3, #30
 800333a:	d506      	bpl.n	800334a <HAL_RCC_ClockConfig+0x136>
    if ((RCC_ClkInitStruct->AHBCLKDivider) < (RCC->D1CFGR & RCC_D1CFGR_HPRE))
 800333c:	68e1      	ldr	r1, [r4, #12]
 800333e:	4844      	ldr	r0, [pc, #272]	; (8003450 <HAL_RCC_ClockConfig+0x23c>)
 8003340:	6982      	ldr	r2, [r0, #24]
 8003342:	f002 020f 	and.w	r2, r2, #15
 8003346:	428a      	cmp	r2, r1
 8003348:	d869      	bhi.n	800341e <HAL_RCC_ClockConfig+0x20a>
  if (FLatency < __HAL_FLASH_GET_LATENCY())
 800334a:	4940      	ldr	r1, [pc, #256]	; (800344c <HAL_RCC_ClockConfig+0x238>)
 800334c:	680a      	ldr	r2, [r1, #0]
 800334e:	f002 020f 	and.w	r2, r2, #15
 8003352:	42aa      	cmp	r2, r5
 8003354:	d90a      	bls.n	800336c <HAL_RCC_ClockConfig+0x158>
    __HAL_FLASH_SET_LATENCY(FLatency);
 8003356:	680a      	ldr	r2, [r1, #0]
 8003358:	f022 020f 	bic.w	r2, r2, #15
 800335c:	432a      	orrs	r2, r5
 800335e:	600a      	str	r2, [r1, #0]
    if (__HAL_FLASH_GET_LATENCY() != FLatency)
 8003360:	680a      	ldr	r2, [r1, #0]
 8003362:	f002 020f 	and.w	r2, r2, #15
 8003366:	42aa      	cmp	r2, r5
 8003368:	f47f af6b 	bne.w	8003242 <HAL_RCC_ClockConfig+0x2e>
  if (((RCC_ClkInitStruct->ClockType) & RCC_CLOCKTYPE_D1PCLK1) == RCC_CLOCKTYPE_D1PCLK1)
 800336c:	075a      	lsls	r2, r3, #29
 800336e:	d50b      	bpl.n	8003388 <HAL_RCC_ClockConfig+0x174>
    if ((RCC_ClkInitStruct->APB3CLKDivider) < (RCC->D1CFGR & RCC_D1CFGR_D1PPRE))
 8003370:	4937      	ldr	r1, [pc, #220]	; (8003450 <HAL_RCC_ClockConfig+0x23c>)
 8003372:	6920      	ldr	r0, [r4, #16]
 8003374:	698a      	ldr	r2, [r1, #24]
 8003376:	f002 0270 	and.w	r2, r2, #112	; 0x70
 800337a:	4290      	cmp	r0, r2
 800337c:	d204      	bcs.n	8003388 <HAL_RCC_ClockConfig+0x174>
      MODIFY_REG(RCC->D1CFGR, RCC_D1CFGR_D1PPRE, RCC_ClkInitStruct->APB3CLKDivider);
 800337e:	698a      	ldr	r2, [r1, #24]
 8003380:	f022 0270 	bic.w	r2, r2, #112	; 0x70
 8003384:	4302      	orrs	r2, r0
 8003386:	618a      	str	r2, [r1, #24]
  if (((RCC_ClkInitStruct->ClockType) & RCC_CLOCKTYPE_PCLK1) == RCC_CLOCKTYPE_PCLK1)
 8003388:	071f      	lsls	r7, r3, #28
 800338a:	d50b      	bpl.n	80033a4 <HAL_RCC_ClockConfig+0x190>
    if ((RCC_ClkInitStruct->APB1CLKDivider) < (RCC->D2CFGR & RCC_D2CFGR_D2PPRE1))
 800338c:	4930      	ldr	r1, [pc, #192]	; (8003450 <HAL_RCC_ClockConfig+0x23c>)
 800338e:	6960      	ldr	r0, [r4, #20]
 8003390:	69ca      	ldr	r2, [r1, #28]
 8003392:	f002 0270 	and.w	r2, r2, #112	; 0x70
 8003396:	4290      	cmp	r0, r2
 8003398:	d204      	bcs.n	80033a4 <HAL_RCC_ClockConfig+0x190>
      MODIFY_REG(RCC->D2CFGR, RCC_D2CFGR_D2PPRE1, (RCC_ClkInitStruct->APB1CLKDivider));
 800339a:	69ca      	ldr	r2, [r1, #28]
 800339c:	f022 0270 	bic.w	r2, r2, #112	; 0x70
 80033a0:	4302      	orrs	r2, r0
 80033a2:	61ca      	str	r2, [r1, #28]
  if (((RCC_ClkInitStruct->ClockType) & RCC_CLOCKTYPE_PCLK2) == RCC_CLOCKTYPE_PCLK2)
 80033a4:	06de      	lsls	r6, r3, #27
 80033a6:	d50b      	bpl.n	80033c0 <HAL_RCC_ClockConfig+0x1ac>
    if ((RCC_ClkInitStruct->APB2CLKDivider) < (RCC->D2CFGR & RCC_D2CFGR_D2PPRE2))
 80033a8:	4929      	ldr	r1, [pc, #164]	; (8003450 <HAL_RCC_ClockConfig+0x23c>)
 80033aa:	69a0      	ldr	r0, [r4, #24]
 80033ac:	69ca      	ldr	r2, [r1, #28]
 80033ae:	f402 62e0 	and.w	r2, r2, #1792	; 0x700
 80033b2:	4290      	cmp	r0, r2
 80033b4:	d204      	bcs.n	80033c0 <HAL_RCC_ClockConfig+0x1ac>
      MODIFY_REG(RCC->D2CFGR, RCC_D2CFGR_D2PPRE2, (RCC_ClkInitStruct->APB2CLKDivider));
 80033b6:	69ca      	ldr	r2, [r1, #28]
 80033b8:	f422 62e0 	bic.w	r2, r2, #1792	; 0x700
 80033bc:	4302      	orrs	r2, r0
 80033be:	61ca      	str	r2, [r1, #28]
  if (((RCC_ClkInitStruct->ClockType) & RCC_CLOCKTYPE_D3PCLK1) == RCC_CLOCKTYPE_D3PCLK1)
 80033c0:	069d      	lsls	r5, r3, #26
 80033c2:	d50b      	bpl.n	80033dc <HAL_RCC_ClockConfig+0x1c8>
    if ((RCC_ClkInitStruct->APB4CLKDivider) < (RCC->D3CFGR & RCC_D3CFGR_D3PPRE))
 80033c4:	4a22      	ldr	r2, [pc, #136]	; (8003450 <HAL_RCC_ClockConfig+0x23c>)
 80033c6:	69e1      	ldr	r1, [r4, #28]
 80033c8:	6a13      	ldr	r3, [r2, #32]
 80033ca:	f003 0370 	and.w	r3, r3, #112	; 0x70
 80033ce:	4299      	cmp	r1, r3
 80033d0:	d204      	bcs.n	80033dc <HAL_RCC_ClockConfig+0x1c8>
      MODIFY_REG(RCC->D3CFGR, RCC_D3CFGR_D3PPRE, (RCC_ClkInitStruct->APB4CLKDivider));
 80033d2:	6a13      	ldr	r3, [r2, #32]
 80033d4:	f023 0370 	bic.w	r3, r3, #112	; 0x70
 80033d8:	430b      	orrs	r3, r1
 80033da:	6213      	str	r3, [r2, #32]
  common_system_clock = HAL_RCC_GetSysClockFreq() >> ((D1CorePrescTable[(RCC->D1CFGR & RCC_D1CFGR_D1CPRE) >> RCC_D1CFGR_D1CPRE_Pos]) & 0x1FU);
 80033dc:	f7ff fe78 	bl	80030d0 <HAL_RCC_GetSysClockFreq>
 80033e0:	4a1b      	ldr	r2, [pc, #108]	; (8003450 <HAL_RCC_ClockConfig+0x23c>)
 80033e2:	4603      	mov	r3, r0
 80033e4:	481b      	ldr	r0, [pc, #108]	; (8003454 <HAL_RCC_ClockConfig+0x240>)
 80033e6:	6991      	ldr	r1, [r2, #24]
  SystemD2Clock = (common_system_clock >> ((D1CorePrescTable[(RCC->D1CFGR & RCC_D1CFGR_HPRE) >> RCC_D1CFGR_HPRE_Pos]) & 0x1FU));
 80033e8:	6992      	ldr	r2, [r2, #24]
  common_system_clock = HAL_RCC_GetSysClockFreq() >> ((D1CorePrescTable[(RCC->D1CFGR & RCC_D1CFGR_D1CPRE) >> RCC_D1CFGR_D1CPRE_Pos]) & 0x1FU);
 80033ea:	f3c1 2103 	ubfx	r1, r1, #8, #4
  SystemCoreClock = common_system_clock;
 80033ee:	4d1a      	ldr	r5, [pc, #104]	; (8003458 <HAL_RCC_ClockConfig+0x244>)
  SystemD2Clock = (common_system_clock >> ((D1CorePrescTable[(RCC->D1CFGR & RCC_D1CFGR_HPRE) >> RCC_D1CFGR_HPRE_Pos]) & 0x1FU));
 80033f0:	f002 020f 	and.w	r2, r2, #15
 80033f4:	4c19      	ldr	r4, [pc, #100]	; (800345c <HAL_RCC_ClockConfig+0x248>)
  common_system_clock = HAL_RCC_GetSysClockFreq() >> ((D1CorePrescTable[(RCC->D1CFGR & RCC_D1CFGR_D1CPRE) >> RCC_D1CFGR_D1CPRE_Pos]) & 0x1FU);
 80033f6:	5c41      	ldrb	r1, [r0, r1]
  SystemD2Clock = (common_system_clock >> ((D1CorePrescTable[(RCC->D1CFGR & RCC_D1CFGR_HPRE) >> RCC_D1CFGR_HPRE_Pos]) & 0x1FU));
 80033f8:	5c82      	ldrb	r2, [r0, r2]
  common_system_clock = HAL_RCC_GetSysClockFreq() >> ((D1CorePrescTable[(RCC->D1CFGR & RCC_D1CFGR_D1CPRE) >> RCC_D1CFGR_D1CPRE_Pos]) & 0x1FU);
 80033fa:	f001 011f 	and.w	r1, r1, #31
  halstatus = HAL_InitTick(uwTickPrio);
 80033fe:	4818      	ldr	r0, [pc, #96]	; (8003460 <HAL_RCC_ClockConfig+0x24c>)
  SystemD2Clock = (common_system_clock >> ((D1CorePrescTable[(RCC->D1CFGR & RCC_D1CFGR_HPRE) >> RCC_D1CFGR_HPRE_Pos]) & 0x1FU));
 8003400:	f002 021f 	and.w	r2, r2, #31
  common_system_clock = HAL_RCC_GetSysClockFreq() >> ((D1CorePrescTable[(RCC->D1CFGR & RCC_D1CFGR_D1CPRE) >> RCC_D1CFGR_D1CPRE_Pos]) & 0x1FU);
 8003404:	40cb      	lsrs	r3, r1
  halstatus = HAL_InitTick(uwTickPrio);
 8003406:	6800      	ldr	r0, [r0, #0]
  SystemCoreClock = common_system_clock;
 8003408:	602b      	str	r3, [r5, #0]
  SystemD2Clock = (common_system_clock >> ((D1CorePrescTable[(RCC->D1CFGR & RCC_D1CFGR_HPRE) >> RCC_D1CFGR_HPRE_Pos]) & 0x1FU));
 800340a:	40d3      	lsrs	r3, r2
 800340c:	6023      	str	r3, [r4, #0]
}
 800340e:	e8bd 41f0 	ldmia.w	sp!, {r4, r5, r6, r7, r8, lr}
  halstatus = HAL_InitTick(uwTickPrio);
 8003412:	f7fd be37 	b.w	8001084 <HAL_InitTick>
  if (((RCC_ClkInitStruct->ClockType) & RCC_CLOCKTYPE_SYSCLK) == RCC_CLOCKTYPE_SYSCLK)
 8003416:	07da      	lsls	r2, r3, #31
 8003418:	f53f af60 	bmi.w	80032dc <HAL_RCC_ClockConfig+0xc8>
 800341c:	e795      	b.n	800334a <HAL_RCC_ClockConfig+0x136>
      MODIFY_REG(RCC->D1CFGR, RCC_D1CFGR_HPRE, RCC_ClkInitStruct->AHBCLKDivider);
 800341e:	6982      	ldr	r2, [r0, #24]
 8003420:	f022 020f 	bic.w	r2, r2, #15
 8003424:	430a      	orrs	r2, r1
 8003426:	6182      	str	r2, [r0, #24]
 8003428:	e78f      	b.n	800334a <HAL_RCC_ClockConfig+0x136>
      if (__HAL_RCC_GET_FLAG(RCC_FLAG_PLLRDY) == 0U)
 800342a:	019f      	lsls	r7, r3, #6
 800342c:	f53f af6a 	bmi.w	8003304 <HAL_RCC_ClockConfig+0xf0>
 8003430:	e707      	b.n	8003242 <HAL_RCC_ClockConfig+0x2e>
    return HAL_ERROR;
 8003432:	2001      	movs	r0, #1
}
 8003434:	4770      	bx	lr
      if (__HAL_RCC_GET_FLAG(RCC_FLAG_HSERDY) == 0U)
 8003436:	039b      	lsls	r3, r3, #14
 8003438:	f53f af64 	bmi.w	8003304 <HAL_RCC_ClockConfig+0xf0>
 800343c:	e701      	b.n	8003242 <HAL_RCC_ClockConfig+0x2e>
        return HAL_TIMEOUT;
 800343e:	2003      	movs	r0, #3
 8003440:	e700      	b.n	8003244 <HAL_RCC_ClockConfig+0x30>
      if (__HAL_RCC_GET_FLAG(RCC_FLAG_CSIRDY) == 0U)
 8003442:	05de      	lsls	r6, r3, #23
 8003444:	f53f af5e 	bmi.w	8003304 <HAL_RCC_ClockConfig+0xf0>
 8003448:	e6fb      	b.n	8003242 <HAL_RCC_ClockConfig+0x2e>
 800344a:	bf00      	nop
 800344c:	52002000 	.word	0x52002000
 8003450:	58024400 	.word	0x58024400
 8003454:	080057b0 	.word	0x080057b0
 8003458:	24000000 	.word	0x24000000
 800345c:	24000004 	.word	0x24000004
 8003460:	24000380 	.word	0x24000380

08003464 <HAL_RCC_GetHCLKFreq>:
  switch (RCC->CFGR & RCC_CFGR_SWS)
 8003464:	4a18      	ldr	r2, [pc, #96]	; (80034c8 <HAL_RCC_GetHCLKFreq+0x64>)
  * @note   The SystemD2Clock CMSIS variable is used to store System domain2 Clock Frequency
  *         and updated within this function
  * @retval HCLK frequency
  */
uint32_t HAL_RCC_GetHCLKFreq(void)
{
 8003466:	b538      	push	{r3, r4, r5, lr}
  switch (RCC->CFGR & RCC_CFGR_SWS)
 8003468:	6913      	ldr	r3, [r2, #16]
 800346a:	f003 0338 	and.w	r3, r3, #56	; 0x38
 800346e:	2b10      	cmp	r3, #16
 8003470:	d01a      	beq.n	80034a8 <HAL_RCC_GetHCLKFreq+0x44>
 8003472:	2b18      	cmp	r3, #24
 8003474:	d023      	beq.n	80034be <HAL_RCC_GetHCLKFreq+0x5a>
 8003476:	b1cb      	cbz	r3, 80034ac <HAL_RCC_GetHCLKFreq+0x48>
      sysclockfreq = CSI_VALUE;
 8003478:	4814      	ldr	r0, [pc, #80]	; (80034cc <HAL_RCC_GetHCLKFreq+0x68>)
  uint32_t common_system_clock;

#if defined(RCC_D1CFGR_D1CPRE)
  common_system_clock = HAL_RCC_GetSysClockFreq() >> (D1CorePrescTable[(RCC->D1CFGR & RCC_D1CFGR_D1CPRE) >> RCC_D1CFGR_D1CPRE_Pos] & 0x1FU);
 800347a:	4b13      	ldr	r3, [pc, #76]	; (80034c8 <HAL_RCC_GetHCLKFreq+0x64>)
 800347c:	4914      	ldr	r1, [pc, #80]	; (80034d0 <HAL_RCC_GetHCLKFreq+0x6c>)
 800347e:	699a      	ldr	r2, [r3, #24]
#else
  common_system_clock = HAL_RCC_GetSysClockFreq() >> (D1CorePrescTable[(RCC->CDCFGR1 & RCC_CDCFGR1_CDCPRE) >> RCC_CDCFGR1_CDCPRE_Pos] & 0x1FU);
#endif

#if defined(RCC_D1CFGR_HPRE)
  SystemD2Clock = (common_system_clock >> ((D1CorePrescTable[(RCC->D1CFGR & RCC_D1CFGR_HPRE) >> RCC_D1CFGR_HPRE_Pos]) & 0x1FU));
 8003480:	699b      	ldr	r3, [r3, #24]
  common_system_clock = HAL_RCC_GetSysClockFreq() >> (D1CorePrescTable[(RCC->D1CFGR & RCC_D1CFGR_D1CPRE) >> RCC_D1CFGR_D1CPRE_Pos] & 0x1FU);
 8003482:	f3c2 2203 	ubfx	r2, r2, #8, #4
  SystemD2Clock = (common_system_clock >> ((D1CorePrescTable[(RCC->D1CFGR & RCC_D1CFGR_HPRE) >> RCC_D1CFGR_HPRE_Pos]) & 0x1FU));
 8003486:	4c13      	ldr	r4, [pc, #76]	; (80034d4 <HAL_RCC_GetHCLKFreq+0x70>)
 8003488:	f003 030f 	and.w	r3, r3, #15
#endif

#if defined(DUAL_CORE) && defined(CORE_CM4)
  SystemCoreClock = SystemD2Clock;
#else
  SystemCoreClock = common_system_clock;
 800348c:	4d12      	ldr	r5, [pc, #72]	; (80034d8 <HAL_RCC_GetHCLKFreq+0x74>)
  common_system_clock = HAL_RCC_GetSysClockFreq() >> (D1CorePrescTable[(RCC->D1CFGR & RCC_D1CFGR_D1CPRE) >> RCC_D1CFGR_D1CPRE_Pos] & 0x1FU);
 800348e:	5c8a      	ldrb	r2, [r1, r2]
  SystemD2Clock = (common_system_clock >> ((D1CorePrescTable[(RCC->D1CFGR & RCC_D1CFGR_HPRE) >> RCC_D1CFGR_HPRE_Pos]) & 0x1FU));
 8003490:	5ccb      	ldrb	r3, [r1, r3]
  common_system_clock = HAL_RCC_GetSysClockFreq() >> (D1CorePrescTable[(RCC->D1CFGR & RCC_D1CFGR_D1CPRE) >> RCC_D1CFGR_D1CPRE_Pos] & 0x1FU);
 8003492:	f002 021f 	and.w	r2, r2, #31
 8003496:	fa20 f202 	lsr.w	r2, r0, r2
  SystemD2Clock = (common_system_clock >> ((D1CorePrescTable[(RCC->D1CFGR & RCC_D1CFGR_HPRE) >> RCC_D1CFGR_HPRE_Pos]) & 0x1FU));
 800349a:	f003 001f 	and.w	r0, r3, #31
 800349e:	fa22 f000 	lsr.w	r0, r2, r0
  SystemCoreClock = common_system_clock;
 80034a2:	602a      	str	r2, [r5, #0]
  SystemD2Clock = (common_system_clock >> ((D1CorePrescTable[(RCC->D1CFGR & RCC_D1CFGR_HPRE) >> RCC_D1CFGR_HPRE_Pos]) & 0x1FU));
 80034a4:	6020      	str	r0, [r4, #0]
#endif /* DUAL_CORE && CORE_CM4 */

  return SystemD2Clock;
}
 80034a6:	bd38      	pop	{r3, r4, r5, pc}
  switch (RCC->CFGR & RCC_CFGR_SWS)
 80034a8:	480c      	ldr	r0, [pc, #48]	; (80034dc <HAL_RCC_GetHCLKFreq+0x78>)
 80034aa:	e7e6      	b.n	800347a <HAL_RCC_GetHCLKFreq+0x16>
      if (__HAL_RCC_GET_FLAG(RCC_FLAG_HSIDIV) != 0U)
 80034ac:	6813      	ldr	r3, [r2, #0]
 80034ae:	069b      	lsls	r3, r3, #26
 80034b0:	d508      	bpl.n	80034c4 <HAL_RCC_GetHCLKFreq+0x60>
        sysclockfreq = (uint32_t)(HSI_VALUE >> (__HAL_RCC_GET_HSI_DIVIDER() >> 3));
 80034b2:	6813      	ldr	r3, [r2, #0]
 80034b4:	480a      	ldr	r0, [pc, #40]	; (80034e0 <HAL_RCC_GetHCLKFreq+0x7c>)
 80034b6:	f3c3 03c1 	ubfx	r3, r3, #3, #2
 80034ba:	40d8      	lsrs	r0, r3
 80034bc:	e7dd      	b.n	800347a <HAL_RCC_GetHCLKFreq+0x16>
 80034be:	f7ff fa8d 	bl	80029dc <HAL_RCC_GetSysClockFreq.part.0>
 80034c2:	e7da      	b.n	800347a <HAL_RCC_GetHCLKFreq+0x16>
        sysclockfreq = (uint32_t) HSI_VALUE;
 80034c4:	4806      	ldr	r0, [pc, #24]	; (80034e0 <HAL_RCC_GetHCLKFreq+0x7c>)
 80034c6:	e7d8      	b.n	800347a <HAL_RCC_GetHCLKFreq+0x16>
 80034c8:	58024400 	.word	0x58024400
 80034cc:	003d0900 	.word	0x003d0900
 80034d0:	080057b0 	.word	0x080057b0
 80034d4:	24000004 	.word	0x24000004
 80034d8:	24000000 	.word	0x24000000
 80034dc:	017d7840 	.word	0x017d7840
 80034e0:	03d09000 	.word	0x03d09000

080034e4 <HAL_RCC_GetPCLK1Freq>:
  switch (RCC->CFGR & RCC_CFGR_SWS)
 80034e4:	4a1c      	ldr	r2, [pc, #112]	; (8003558 <HAL_RCC_GetPCLK1Freq+0x74>)
  * @note   Each time PCLK1 changes, this function must be called to update the
  *         right PCLK1 value. Otherwise, any configuration based on this function will be incorrect.
  * @retval PCLK1 frequency
  */
uint32_t HAL_RCC_GetPCLK1Freq(void)
{
 80034e6:	b538      	push	{r3, r4, r5, lr}
  switch (RCC->CFGR & RCC_CFGR_SWS)
 80034e8:	6913      	ldr	r3, [r2, #16]
 80034ea:	f003 0338 	and.w	r3, r3, #56	; 0x38
 80034ee:	2b10      	cmp	r3, #16
 80034f0:	d021      	beq.n	8003536 <HAL_RCC_GetPCLK1Freq+0x52>
 80034f2:	2b18      	cmp	r3, #24
 80034f4:	d02a      	beq.n	800354c <HAL_RCC_GetPCLK1Freq+0x68>
 80034f6:	b303      	cbz	r3, 800353a <HAL_RCC_GetPCLK1Freq+0x56>
      sysclockfreq = CSI_VALUE;
 80034f8:	4818      	ldr	r0, [pc, #96]	; (800355c <HAL_RCC_GetPCLK1Freq+0x78>)
  common_system_clock = HAL_RCC_GetSysClockFreq() >> (D1CorePrescTable[(RCC->D1CFGR & RCC_D1CFGR_D1CPRE) >> RCC_D1CFGR_D1CPRE_Pos] & 0x1FU);
 80034fa:	4a17      	ldr	r2, [pc, #92]	; (8003558 <HAL_RCC_GetPCLK1Freq+0x74>)
 80034fc:	4918      	ldr	r1, [pc, #96]	; (8003560 <HAL_RCC_GetPCLK1Freq+0x7c>)
 80034fe:	6993      	ldr	r3, [r2, #24]
  SystemD2Clock = (common_system_clock >> ((D1CorePrescTable[(RCC->D1CFGR & RCC_D1CFGR_HPRE) >> RCC_D1CFGR_HPRE_Pos]) & 0x1FU));
 8003500:	4c18      	ldr	r4, [pc, #96]	; (8003564 <HAL_RCC_GetPCLK1Freq+0x80>)
  common_system_clock = HAL_RCC_GetSysClockFreq() >> (D1CorePrescTable[(RCC->D1CFGR & RCC_D1CFGR_D1CPRE) >> RCC_D1CFGR_D1CPRE_Pos] & 0x1FU);
 8003502:	f3c3 2303 	ubfx	r3, r3, #8, #4
  SystemCoreClock = common_system_clock;
 8003506:	4d18      	ldr	r5, [pc, #96]	; (8003568 <HAL_RCC_GetPCLK1Freq+0x84>)
  common_system_clock = HAL_RCC_GetSysClockFreq() >> (D1CorePrescTable[(RCC->D1CFGR & RCC_D1CFGR_D1CPRE) >> RCC_D1CFGR_D1CPRE_Pos] & 0x1FU);
 8003508:	5ccb      	ldrb	r3, [r1, r3]
 800350a:	f003 031f 	and.w	r3, r3, #31
 800350e:	40d8      	lsrs	r0, r3
  SystemD2Clock = (common_system_clock >> ((D1CorePrescTable[(RCC->D1CFGR & RCC_D1CFGR_HPRE) >> RCC_D1CFGR_HPRE_Pos]) & 0x1FU));
 8003510:	6993      	ldr	r3, [r2, #24]
 8003512:	f003 030f 	and.w	r3, r3, #15
  SystemCoreClock = common_system_clock;
 8003516:	6028      	str	r0, [r5, #0]
  SystemD2Clock = (common_system_clock >> ((D1CorePrescTable[(RCC->D1CFGR & RCC_D1CFGR_HPRE) >> RCC_D1CFGR_HPRE_Pos]) & 0x1FU));
 8003518:	5ccb      	ldrb	r3, [r1, r3]
 800351a:	f003 031f 	and.w	r3, r3, #31
 800351e:	fa20 f303 	lsr.w	r3, r0, r3
 8003522:	6023      	str	r3, [r4, #0]
#if defined (RCC_D2CFGR_D2PPRE1)
  /* Get HCLK source and Compute PCLK1 frequency ---------------------------*/
  return (HAL_RCC_GetHCLKFreq() >> ((D1CorePrescTable[(RCC->D2CFGR & RCC_D2CFGR_D2PPRE1) >> RCC_D2CFGR_D2PPRE1_Pos]) & 0x1FU));
 8003524:	69d2      	ldr	r2, [r2, #28]
 8003526:	f3c2 1202 	ubfx	r2, r2, #4, #3
 800352a:	5c88      	ldrb	r0, [r1, r2]
 800352c:	f000 001f 	and.w	r0, r0, #31
#else
  /* Get HCLK source and Compute PCLK1 frequency ---------------------------*/
  return (HAL_RCC_GetHCLKFreq() >> ((D1CorePrescTable[(RCC->CDCFGR2 & RCC_CDCFGR2_CDPPRE1) >> RCC_CDCFGR2_CDPPRE1_Pos]) & 0x1FU));
#endif
}
 8003530:	fa23 f000 	lsr.w	r0, r3, r0
 8003534:	bd38      	pop	{r3, r4, r5, pc}
  switch (RCC->CFGR & RCC_CFGR_SWS)
 8003536:	480d      	ldr	r0, [pc, #52]	; (800356c <HAL_RCC_GetPCLK1Freq+0x88>)
 8003538:	e7df      	b.n	80034fa <HAL_RCC_GetPCLK1Freq+0x16>
      if (__HAL_RCC_GET_FLAG(RCC_FLAG_HSIDIV) != 0U)
 800353a:	6813      	ldr	r3, [r2, #0]
 800353c:	069b      	lsls	r3, r3, #26
 800353e:	d508      	bpl.n	8003552 <HAL_RCC_GetPCLK1Freq+0x6e>
        sysclockfreq = (uint32_t)(HSI_VALUE >> (__HAL_RCC_GET_HSI_DIVIDER() >> 3));
 8003540:	6813      	ldr	r3, [r2, #0]
 8003542:	480b      	ldr	r0, [pc, #44]	; (8003570 <HAL_RCC_GetPCLK1Freq+0x8c>)
 8003544:	f3c3 03c1 	ubfx	r3, r3, #3, #2
 8003548:	40d8      	lsrs	r0, r3
 800354a:	e7d6      	b.n	80034fa <HAL_RCC_GetPCLK1Freq+0x16>
 800354c:	f7ff fa46 	bl	80029dc <HAL_RCC_GetSysClockFreq.part.0>
 8003550:	e7d3      	b.n	80034fa <HAL_RCC_GetPCLK1Freq+0x16>
        sysclockfreq = (uint32_t) HSI_VALUE;
 8003552:	4807      	ldr	r0, [pc, #28]	; (8003570 <HAL_RCC_GetPCLK1Freq+0x8c>)
 8003554:	e7d1      	b.n	80034fa <HAL_RCC_GetPCLK1Freq+0x16>
 8003556:	bf00      	nop
 8003558:	58024400 	.word	0x58024400
 800355c:	003d0900 	.word	0x003d0900
 8003560:	080057b0 	.word	0x080057b0
 8003564:	24000004 	.word	0x24000004
 8003568:	24000000 	.word	0x24000000
 800356c:	017d7840 	.word	0x017d7840
 8003570:	03d09000 	.word	0x03d09000

08003574 <RCCEx_PLL2_Config>:
  * @note   PLL2 is temporary disabled to apply new parameters
  *
  * @retval HAL status
  */
static HAL_StatusTypeDef RCCEx_PLL2_Config(RCC_PLL2InitTypeDef *pll2, uint32_t Divider)
{
 8003574:	b5f8      	push	{r3, r4, r5, r6, r7, lr}
  assert_param(IS_RCC_PLL2RGE_VALUE(pll2->PLL2RGE));
  assert_param(IS_RCC_PLL2VCO_VALUE(pll2->PLL2VCOSEL));
  assert_param(IS_RCC_PLLFRACN_VALUE(pll2->PLL2FRACN));

  /* Check that PLL2 OSC clock source is already set */
  if (__HAL_RCC_GET_PLL_OSCSOURCE() == RCC_PLLSOURCE_NONE)
 8003576:	4c3a      	ldr	r4, [pc, #232]	; (8003660 <RCCEx_PLL2_Config+0xec>)
 8003578:	6aa3      	ldr	r3, [r4, #40]	; 0x28
 800357a:	f003 0303 	and.w	r3, r3, #3
 800357e:	2b03      	cmp	r3, #3
 8003580:	d067      	beq.n	8003652 <RCCEx_PLL2_Config+0xde>


  else
  {
    /* Disable  PLL2. */
    __HAL_RCC_PLL2_DISABLE();
 8003582:	6823      	ldr	r3, [r4, #0]
 8003584:	4606      	mov	r6, r0
 8003586:	460f      	mov	r7, r1
 8003588:	f023 6380 	bic.w	r3, r3, #67108864	; 0x4000000
 800358c:	6023      	str	r3, [r4, #0]

    /* Get Start Tick*/
    tickstart = HAL_GetTick();
 800358e:	f7fd fddb 	bl	8001148 <HAL_GetTick>
 8003592:	4605      	mov	r5, r0

    /* Wait till PLL is disabled */
    while (__HAL_RCC_GET_FLAG(RCC_FLAG_PLL2RDY) != 0U)
 8003594:	e004      	b.n	80035a0 <RCCEx_PLL2_Config+0x2c>
    {
      if ((HAL_GetTick() - tickstart) > PLL2_TIMEOUT_VALUE)
 8003596:	f7fd fdd7 	bl	8001148 <HAL_GetTick>
 800359a:	1b43      	subs	r3, r0, r5
 800359c:	2b02      	cmp	r3, #2
 800359e:	d856      	bhi.n	800364e <RCCEx_PLL2_Config+0xda>
    while (__HAL_RCC_GET_FLAG(RCC_FLAG_PLL2RDY) != 0U)
 80035a0:	6823      	ldr	r3, [r4, #0]
 80035a2:	011a      	lsls	r2, r3, #4
 80035a4:	d4f7      	bmi.n	8003596 <RCCEx_PLL2_Config+0x22>
        return HAL_TIMEOUT;
      }
    }

    /* Configure PLL2 multiplication and division factors. */
    __HAL_RCC_PLL2_CONFIG(pll2->PLL2M,
 80035a6:	6aa3      	ldr	r3, [r4, #40]	; 0x28
 80035a8:	6832      	ldr	r2, [r6, #0]
 80035aa:	f423 337c 	bic.w	r3, r3, #258048	; 0x3f000
 80035ae:	ea43 3302 	orr.w	r3, r3, r2, lsl #12
 80035b2:	62a3      	str	r3, [r4, #40]	; 0x28
 80035b4:	e9d6 3202 	ldrd	r3, r2, [r6, #8]
 80035b8:	3b01      	subs	r3, #1
 80035ba:	3a01      	subs	r2, #1
 80035bc:	025b      	lsls	r3, r3, #9
 80035be:	0412      	lsls	r2, r2, #16
 80035c0:	b29b      	uxth	r3, r3
 80035c2:	f402 02fe 	and.w	r2, r2, #8323072	; 0x7f0000
 80035c6:	4313      	orrs	r3, r2
 80035c8:	6872      	ldr	r2, [r6, #4]
 80035ca:	3a01      	subs	r2, #1
 80035cc:	f3c2 0208 	ubfx	r2, r2, #0, #9
 80035d0:	4313      	orrs	r3, r2
 80035d2:	6932      	ldr	r2, [r6, #16]
 80035d4:	3a01      	subs	r2, #1
 80035d6:	0612      	lsls	r2, r2, #24
 80035d8:	f002 42fe 	and.w	r2, r2, #2130706432	; 0x7f000000
 80035dc:	4313      	orrs	r3, r2
 80035de:	63a3      	str	r3, [r4, #56]	; 0x38
                          pll2->PLL2P,
                          pll2->PLL2Q,
                          pll2->PLL2R);

    /* Select PLL2 input reference frequency range: VCI */
    __HAL_RCC_PLL2_VCIRANGE(pll2->PLL2RGE) ;
 80035e0:	6ae3      	ldr	r3, [r4, #44]	; 0x2c
 80035e2:	6972      	ldr	r2, [r6, #20]
 80035e4:	f023 03c0 	bic.w	r3, r3, #192	; 0xc0
 80035e8:	4313      	orrs	r3, r2
 80035ea:	62e3      	str	r3, [r4, #44]	; 0x2c

    /* Select PLL2 output frequency range : VCO */
    __HAL_RCC_PLL2_VCORANGE(pll2->PLL2VCOSEL) ;
 80035ec:	6ae2      	ldr	r2, [r4, #44]	; 0x2c
 80035ee:	69b3      	ldr	r3, [r6, #24]
 80035f0:	f022 0220 	bic.w	r2, r2, #32
 80035f4:	431a      	orrs	r2, r3

    /* Disable PLL2FRACN . */
    __HAL_RCC_PLL2FRACN_DISABLE();

    /* Configures PLL2 clock Fractional Part Of The Multiplication Factor */
    __HAL_RCC_PLL2FRACN_CONFIG(pll2->PLL2FRACN);
 80035f6:	4b1b      	ldr	r3, [pc, #108]	; (8003664 <RCCEx_PLL2_Config+0xf0>)
    __HAL_RCC_PLL2_VCORANGE(pll2->PLL2VCOSEL) ;
 80035f8:	62e2      	str	r2, [r4, #44]	; 0x2c
    __HAL_RCC_PLL2FRACN_DISABLE();
 80035fa:	6ae2      	ldr	r2, [r4, #44]	; 0x2c
 80035fc:	f022 0210 	bic.w	r2, r2, #16
 8003600:	62e2      	str	r2, [r4, #44]	; 0x2c
    __HAL_RCC_PLL2FRACN_CONFIG(pll2->PLL2FRACN);
 8003602:	6be1      	ldr	r1, [r4, #60]	; 0x3c
 8003604:	69f2      	ldr	r2, [r6, #28]
 8003606:	400b      	ands	r3, r1
 8003608:	ea43 03c2 	orr.w	r3, r3, r2, lsl #3
 800360c:	63e3      	str	r3, [r4, #60]	; 0x3c

    /* Enable PLL2FRACN . */
    __HAL_RCC_PLL2FRACN_ENABLE();
 800360e:	6ae3      	ldr	r3, [r4, #44]	; 0x2c
 8003610:	f043 0310 	orr.w	r3, r3, #16
 8003614:	62e3      	str	r3, [r4, #44]	; 0x2c

    /* Enable the PLL2 clock output */
    if (Divider == DIVIDER_P_UPDATE)
    {
      __HAL_RCC_PLL2CLKOUT_ENABLE(RCC_PLL2_DIVP);
 8003616:	6ae3      	ldr	r3, [r4, #44]	; 0x2c
    if (Divider == DIVIDER_P_UPDATE)
 8003618:	b1ef      	cbz	r7, 8003656 <RCCEx_PLL2_Config+0xe2>
    }
    else if (Divider == DIVIDER_Q_UPDATE)
 800361a:	2f01      	cmp	r7, #1
    {
      __HAL_RCC_PLL2CLKOUT_ENABLE(RCC_PLL2_DIVQ);
 800361c:	bf0c      	ite	eq
 800361e:	f443 1380 	orreq.w	r3, r3, #1048576	; 0x100000
    }
    else
    {
      __HAL_RCC_PLL2CLKOUT_ENABLE(RCC_PLL2_DIVR);
 8003622:	f443 1300 	orrne.w	r3, r3, #2097152	; 0x200000
 8003626:	62e3      	str	r3, [r4, #44]	; 0x2c
    }

    /* Enable  PLL2. */
    __HAL_RCC_PLL2_ENABLE();
 8003628:	4c0d      	ldr	r4, [pc, #52]	; (8003660 <RCCEx_PLL2_Config+0xec>)
 800362a:	6823      	ldr	r3, [r4, #0]
 800362c:	f043 6380 	orr.w	r3, r3, #67108864	; 0x4000000
 8003630:	6023      	str	r3, [r4, #0]

    /* Get Start Tick*/
    tickstart = HAL_GetTick();
 8003632:	f7fd fd89 	bl	8001148 <HAL_GetTick>
 8003636:	4605      	mov	r5, r0

    /* Wait till PLL2 is ready */
    while (__HAL_RCC_GET_FLAG(RCC_FLAG_PLL2RDY) == 0U)
 8003638:	e004      	b.n	8003644 <RCCEx_PLL2_Config+0xd0>
    {
      if ((HAL_GetTick() - tickstart) > PLL2_TIMEOUT_VALUE)
 800363a:	f7fd fd85 	bl	8001148 <HAL_GetTick>
 800363e:	1b40      	subs	r0, r0, r5
 8003640:	2802      	cmp	r0, #2
 8003642:	d804      	bhi.n	800364e <RCCEx_PLL2_Config+0xda>
    while (__HAL_RCC_GET_FLAG(RCC_FLAG_PLL2RDY) == 0U)
 8003644:	6823      	ldr	r3, [r4, #0]
 8003646:	011b      	lsls	r3, r3, #4
 8003648:	d5f7      	bpl.n	800363a <RCCEx_PLL2_Config+0xc6>
    }

  }


  return status;
 800364a:	2000      	movs	r0, #0
}
 800364c:	bdf8      	pop	{r3, r4, r5, r6, r7, pc}
        return HAL_TIMEOUT;
 800364e:	2003      	movs	r0, #3
}
 8003650:	bdf8      	pop	{r3, r4, r5, r6, r7, pc}
    return HAL_ERROR;
 8003652:	2001      	movs	r0, #1
}
 8003654:	bdf8      	pop	{r3, r4, r5, r6, r7, pc}
      __HAL_RCC_PLL2CLKOUT_ENABLE(RCC_PLL2_DIVP);
 8003656:	f443 2300 	orr.w	r3, r3, #524288	; 0x80000
 800365a:	62e3      	str	r3, [r4, #44]	; 0x2c
 800365c:	e7e4      	b.n	8003628 <RCCEx_PLL2_Config+0xb4>
 800365e:	bf00      	nop
 8003660:	58024400 	.word	0x58024400
 8003664:	ffff0007 	.word	0xffff0007

08003668 <RCCEx_PLL3_Config>:
  * @note   PLL3 is temporary disabled to apply new parameters
  *
  * @retval HAL status
  */
static HAL_StatusTypeDef RCCEx_PLL3_Config(RCC_PLL3InitTypeDef *pll3, uint32_t Divider)
{
 8003668:	b5f8      	push	{r3, r4, r5, r6, r7, lr}
  assert_param(IS_RCC_PLL3RGE_VALUE(pll3->PLL3RGE));
  assert_param(IS_RCC_PLL3VCO_VALUE(pll3->PLL3VCOSEL));
  assert_param(IS_RCC_PLLFRACN_VALUE(pll3->PLL3FRACN));

  /* Check that PLL3 OSC clock source is already set */
  if (__HAL_RCC_GET_PLL_OSCSOURCE() == RCC_PLLSOURCE_NONE)
 800366a:	4c3a      	ldr	r4, [pc, #232]	; (8003754 <RCCEx_PLL3_Config+0xec>)
 800366c:	6aa3      	ldr	r3, [r4, #40]	; 0x28
 800366e:	f003 0303 	and.w	r3, r3, #3
 8003672:	2b03      	cmp	r3, #3
 8003674:	d067      	beq.n	8003746 <RCCEx_PLL3_Config+0xde>


  else
  {
    /* Disable  PLL3. */
    __HAL_RCC_PLL3_DISABLE();
 8003676:	6823      	ldr	r3, [r4, #0]
 8003678:	4606      	mov	r6, r0
 800367a:	460f      	mov	r7, r1
 800367c:	f023 5380 	bic.w	r3, r3, #268435456	; 0x10000000
 8003680:	6023      	str	r3, [r4, #0]

    /* Get Start Tick*/
    tickstart = HAL_GetTick();
 8003682:	f7fd fd61 	bl	8001148 <HAL_GetTick>
 8003686:	4605      	mov	r5, r0
    /* Wait till PLL3 is ready */
    while (__HAL_RCC_GET_FLAG(RCC_FLAG_PLL3RDY) != 0U)
 8003688:	e004      	b.n	8003694 <RCCEx_PLL3_Config+0x2c>
    {
      if ((HAL_GetTick() - tickstart) > PLL3_TIMEOUT_VALUE)
 800368a:	f7fd fd5d 	bl	8001148 <HAL_GetTick>
 800368e:	1b43      	subs	r3, r0, r5
 8003690:	2b02      	cmp	r3, #2
 8003692:	d856      	bhi.n	8003742 <RCCEx_PLL3_Config+0xda>
    while (__HAL_RCC_GET_FLAG(RCC_FLAG_PLL3RDY) != 0U)
 8003694:	6823      	ldr	r3, [r4, #0]
 8003696:	009a      	lsls	r2, r3, #2
 8003698:	d4f7      	bmi.n	800368a <RCCEx_PLL3_Config+0x22>
        return HAL_TIMEOUT;
      }
    }

    /* Configure the PLL3  multiplication and division factors. */
    __HAL_RCC_PLL3_CONFIG(pll3->PLL3M,
 800369a:	6aa3      	ldr	r3, [r4, #40]	; 0x28
 800369c:	6832      	ldr	r2, [r6, #0]
 800369e:	f023 737c 	bic.w	r3, r3, #66060288	; 0x3f00000
 80036a2:	ea43 5302 	orr.w	r3, r3, r2, lsl #20
 80036a6:	62a3      	str	r3, [r4, #40]	; 0x28
 80036a8:	e9d6 3202 	ldrd	r3, r2, [r6, #8]
 80036ac:	3b01      	subs	r3, #1
 80036ae:	3a01      	subs	r2, #1
 80036b0:	025b      	lsls	r3, r3, #9
 80036b2:	0412      	lsls	r2, r2, #16
 80036b4:	b29b      	uxth	r3, r3
 80036b6:	f402 02fe 	and.w	r2, r2, #8323072	; 0x7f0000
 80036ba:	4313      	orrs	r3, r2
 80036bc:	6872      	ldr	r2, [r6, #4]
 80036be:	3a01      	subs	r2, #1
 80036c0:	f3c2 0208 	ubfx	r2, r2, #0, #9
 80036c4:	4313      	orrs	r3, r2
 80036c6:	6932      	ldr	r2, [r6, #16]
 80036c8:	3a01      	subs	r2, #1
 80036ca:	0612      	lsls	r2, r2, #24
 80036cc:	f002 42fe 	and.w	r2, r2, #2130706432	; 0x7f000000
 80036d0:	4313      	orrs	r3, r2
 80036d2:	6423      	str	r3, [r4, #64]	; 0x40
                          pll3->PLL3P,
                          pll3->PLL3Q,
                          pll3->PLL3R);

    /* Select PLL3 input reference frequency range: VCI */
    __HAL_RCC_PLL3_VCIRANGE(pll3->PLL3RGE) ;
 80036d4:	6ae3      	ldr	r3, [r4, #44]	; 0x2c
 80036d6:	6972      	ldr	r2, [r6, #20]
 80036d8:	f423 6340 	bic.w	r3, r3, #3072	; 0xc00
 80036dc:	4313      	orrs	r3, r2
 80036de:	62e3      	str	r3, [r4, #44]	; 0x2c

    /* Select PLL3 output frequency range : VCO */
    __HAL_RCC_PLL3_VCORANGE(pll3->PLL3VCOSEL) ;
 80036e0:	6ae2      	ldr	r2, [r4, #44]	; 0x2c
 80036e2:	69b3      	ldr	r3, [r6, #24]
 80036e4:	f422 7200 	bic.w	r2, r2, #512	; 0x200
 80036e8:	431a      	orrs	r2, r3

    /* Disable PLL3FRACN . */
    __HAL_RCC_PLL3FRACN_DISABLE();

    /* Configures PLL3 clock Fractional Part Of The Multiplication Factor */
    __HAL_RCC_PLL3FRACN_CONFIG(pll3->PLL3FRACN);
 80036ea:	4b1b      	ldr	r3, [pc, #108]	; (8003758 <RCCEx_PLL3_Config+0xf0>)
    __HAL_RCC_PLL3_VCORANGE(pll3->PLL3VCOSEL) ;
 80036ec:	62e2      	str	r2, [r4, #44]	; 0x2c
    __HAL_RCC_PLL3FRACN_DISABLE();
 80036ee:	6ae2      	ldr	r2, [r4, #44]	; 0x2c
 80036f0:	f422 7280 	bic.w	r2, r2, #256	; 0x100
 80036f4:	62e2      	str	r2, [r4, #44]	; 0x2c
    __HAL_RCC_PLL3FRACN_CONFIG(pll3->PLL3FRACN);
 80036f6:	6c61      	ldr	r1, [r4, #68]	; 0x44
 80036f8:	69f2      	ldr	r2, [r6, #28]
 80036fa:	400b      	ands	r3, r1
 80036fc:	ea43 03c2 	orr.w	r3, r3, r2, lsl #3
 8003700:	6463      	str	r3, [r4, #68]	; 0x44

    /* Enable PLL3FRACN . */
    __HAL_RCC_PLL3FRACN_ENABLE();
 8003702:	6ae3      	ldr	r3, [r4, #44]	; 0x2c
 8003704:	f443 7380 	orr.w	r3, r3, #256	; 0x100
 8003708:	62e3      	str	r3, [r4, #44]	; 0x2c

    /* Enable the PLL3 clock output */
    if (Divider == DIVIDER_P_UPDATE)
    {
      __HAL_RCC_PLL3CLKOUT_ENABLE(RCC_PLL3_DIVP);
 800370a:	6ae3      	ldr	r3, [r4, #44]	; 0x2c
    if (Divider == DIVIDER_P_UPDATE)
 800370c:	b1ef      	cbz	r7, 800374a <RCCEx_PLL3_Config+0xe2>
    }
    else if (Divider == DIVIDER_Q_UPDATE)
 800370e:	2f01      	cmp	r7, #1
    {
      __HAL_RCC_PLL3CLKOUT_ENABLE(RCC_PLL3_DIVQ);
 8003710:	bf0c      	ite	eq
 8003712:	f443 0300 	orreq.w	r3, r3, #8388608	; 0x800000
    }
    else
    {
      __HAL_RCC_PLL3CLKOUT_ENABLE(RCC_PLL3_DIVR);
 8003716:	f043 7380 	orrne.w	r3, r3, #16777216	; 0x1000000
 800371a:	62e3      	str	r3, [r4, #44]	; 0x2c
    }

    /* Enable  PLL3. */
    __HAL_RCC_PLL3_ENABLE();
 800371c:	4c0d      	ldr	r4, [pc, #52]	; (8003754 <RCCEx_PLL3_Config+0xec>)
 800371e:	6823      	ldr	r3, [r4, #0]
 8003720:	f043 5380 	orr.w	r3, r3, #268435456	; 0x10000000
 8003724:	6023      	str	r3, [r4, #0]

    /* Get Start Tick*/
    tickstart = HAL_GetTick();
 8003726:	f7fd fd0f 	bl	8001148 <HAL_GetTick>
 800372a:	4605      	mov	r5, r0

    /* Wait till PLL3 is ready */
    while (__HAL_RCC_GET_FLAG(RCC_FLAG_PLL3RDY) == 0U)
 800372c:	e004      	b.n	8003738 <RCCEx_PLL3_Config+0xd0>
    {
      if ((HAL_GetTick() - tickstart) > PLL3_TIMEOUT_VALUE)
 800372e:	f7fd fd0b 	bl	8001148 <HAL_GetTick>
 8003732:	1b40      	subs	r0, r0, r5
 8003734:	2802      	cmp	r0, #2
 8003736:	d804      	bhi.n	8003742 <RCCEx_PLL3_Config+0xda>
    while (__HAL_RCC_GET_FLAG(RCC_FLAG_PLL3RDY) == 0U)
 8003738:	6823      	ldr	r3, [r4, #0]
 800373a:	009b      	lsls	r3, r3, #2
 800373c:	d5f7      	bpl.n	800372e <RCCEx_PLL3_Config+0xc6>
    }

  }


  return status;
 800373e:	2000      	movs	r0, #0
}
 8003740:	bdf8      	pop	{r3, r4, r5, r6, r7, pc}
        return HAL_TIMEOUT;
 8003742:	2003      	movs	r0, #3
}
 8003744:	bdf8      	pop	{r3, r4, r5, r6, r7, pc}
    return HAL_ERROR;
 8003746:	2001      	movs	r0, #1
}
 8003748:	bdf8      	pop	{r3, r4, r5, r6, r7, pc}
      __HAL_RCC_PLL3CLKOUT_ENABLE(RCC_PLL3_DIVP);
 800374a:	f443 0380 	orr.w	r3, r3, #4194304	; 0x400000
 800374e:	62e3      	str	r3, [r4, #44]	; 0x2c
 8003750:	e7e4      	b.n	800371c <RCCEx_PLL3_Config+0xb4>
 8003752:	bf00      	nop
 8003754:	58024400 	.word	0x58024400
 8003758:	ffff0007 	.word	0xffff0007

0800375c <HAL_RCCEx_PeriphCLKConfig>:
{
 800375c:	e92d 43f8 	stmdb	sp!, {r3, r4, r5, r6, r7, r8, r9, lr}
  if (((PeriphClkInit->PeriphClockSelection) & RCC_PERIPHCLK_SPDIFRX) == RCC_PERIPHCLK_SPDIFRX)
 8003760:	e9d0 3200 	ldrd	r3, r2, [r0]
{
 8003764:	4604      	mov	r4, r0
  if (((PeriphClkInit->PeriphClockSelection) & RCC_PERIPHCLK_SPDIFRX) == RCC_PERIPHCLK_SPDIFRX)
 8003766:	011f      	lsls	r7, r3, #4
 8003768:	f003 6600 	and.w	r6, r3, #134217728	; 0x8000000
 800376c:	d51d      	bpl.n	80037aa <HAL_RCCEx_PeriphCLKConfig+0x4e>
    switch (PeriphClkInit->SpdifrxClockSelection)
 800376e:	6ec1      	ldr	r1, [r0, #108]	; 0x6c
 8003770:	f5b1 1f00 	cmp.w	r1, #2097152	; 0x200000
 8003774:	f000 8560 	beq.w	8004238 <HAL_RCCEx_PeriphCLKConfig+0xadc>
 8003778:	d824      	bhi.n	80037c4 <HAL_RCCEx_PeriphCLKConfig+0x68>
 800377a:	2900      	cmp	r1, #0
 800377c:	f000 8479 	beq.w	8004072 <HAL_RCCEx_PeriphCLKConfig+0x916>
 8003780:	f5b1 1f80 	cmp.w	r1, #1048576	; 0x100000
 8003784:	d121      	bne.n	80037ca <HAL_RCCEx_PeriphCLKConfig+0x6e>
        ret = RCCEx_PLL2_Config(&(PeriphClkInit->PLL2), DIVIDER_R_UPDATE);
 8003786:	2102      	movs	r1, #2
 8003788:	3008      	adds	r0, #8
 800378a:	f7ff fef3 	bl	8003574 <RCCEx_PLL2_Config>
 800378e:	4606      	mov	r6, r0
    if (ret == HAL_OK)
 8003790:	2e00      	cmp	r6, #0
 8003792:	f040 854d 	bne.w	8004230 <HAL_RCCEx_PeriphCLKConfig+0xad4>
      __HAL_RCC_SPDIFRX_CONFIG(PeriphClkInit->SpdifrxClockSelection);
 8003796:	6ee1      	ldr	r1, [r4, #108]	; 0x6c
  if (((PeriphClkInit->PeriphClockSelection) & RCC_PERIPHCLK_SAI1) == RCC_PERIPHCLK_SAI1)
 8003798:	e9d4 3200 	ldrd	r3, r2, [r4]
      __HAL_RCC_SPDIFRX_CONFIG(PeriphClkInit->SpdifrxClockSelection);
 800379c:	4dad      	ldr	r5, [pc, #692]	; (8003a54 <HAL_RCCEx_PeriphCLKConfig+0x2f8>)
 800379e:	2600      	movs	r6, #0
 80037a0:	6d28      	ldr	r0, [r5, #80]	; 0x50
 80037a2:	f420 1040 	bic.w	r0, r0, #3145728	; 0x300000
 80037a6:	4301      	orrs	r1, r0
 80037a8:	6529      	str	r1, [r5, #80]	; 0x50
  if (((PeriphClkInit->PeriphClockSelection) & RCC_PERIPHCLK_SAI1) == RCC_PERIPHCLK_SAI1)
 80037aa:	05dd      	lsls	r5, r3, #23
 80037ac:	d511      	bpl.n	80037d2 <HAL_RCCEx_PeriphCLKConfig+0x76>
    switch (PeriphClkInit->Sai1ClockSelection)
 80037ae:	6de1      	ldr	r1, [r4, #92]	; 0x5c
 80037b0:	2904      	cmp	r1, #4
 80037b2:	f200 85ef 	bhi.w	8004394 <HAL_RCCEx_PeriphCLKConfig+0xc38>
 80037b6:	e8df f011 	tbh	[pc, r1, lsl #1]
 80037ba:	0570      	.short	0x0570
 80037bc:	05800577 	.word	0x05800577
 80037c0:	03380338 	.word	0x03380338
    switch (PeriphClkInit->SpdifrxClockSelection)
 80037c4:	f5b1 1f40 	cmp.w	r1, #3145728	; 0x300000
 80037c8:	d0e8      	beq.n	800379c <HAL_RCCEx_PeriphCLKConfig+0x40>
  if (((PeriphClkInit->PeriphClockSelection) & RCC_PERIPHCLK_SAI1) == RCC_PERIPHCLK_SAI1)
 80037ca:	05dd      	lsls	r5, r3, #23
    switch (PeriphClkInit->SpdifrxClockSelection)
 80037cc:	f04f 0601 	mov.w	r6, #1
  if (((PeriphClkInit->PeriphClockSelection) & RCC_PERIPHCLK_SAI1) == RCC_PERIPHCLK_SAI1)
 80037d0:	d4ed      	bmi.n	80037ae <HAL_RCCEx_PeriphCLKConfig+0x52>
    switch (PeriphClkInit->Sai1ClockSelection)
 80037d2:	4635      	mov	r5, r6
  if (((PeriphClkInit->PeriphClockSelection) & RCC_PERIPHCLK_SAI23) == RCC_PERIPHCLK_SAI23)
 80037d4:	0598      	lsls	r0, r3, #22
 80037d6:	d51d      	bpl.n	8003814 <HAL_RCCEx_PeriphCLKConfig+0xb8>
    switch (PeriphClkInit->Sai23ClockSelection)
 80037d8:	6e21      	ldr	r1, [r4, #96]	; 0x60
 80037da:	2980      	cmp	r1, #128	; 0x80
 80037dc:	f000 8549 	beq.w	8004272 <HAL_RCCEx_PeriphCLKConfig+0xb16>
 80037e0:	f200 8107 	bhi.w	80039f2 <HAL_RCCEx_PeriphCLKConfig+0x296>
 80037e4:	2900      	cmp	r1, #0
 80037e6:	f000 8451 	beq.w	800408c <HAL_RCCEx_PeriphCLKConfig+0x930>
 80037ea:	2940      	cmp	r1, #64	; 0x40
 80037ec:	f040 8108 	bne.w	8003a00 <HAL_RCCEx_PeriphCLKConfig+0x2a4>
        ret = RCCEx_PLL2_Config(&(PeriphClkInit->PLL2), DIVIDER_P_UPDATE);
 80037f0:	2100      	movs	r1, #0
 80037f2:	f104 0008 	add.w	r0, r4, #8
 80037f6:	f7ff febd 	bl	8003574 <RCCEx_PLL2_Config>
 80037fa:	4605      	mov	r5, r0
  if (((PeriphClkInit->PeriphClockSelection) & RCC_PERIPHCLK_SAI4A) == RCC_PERIPHCLK_SAI4A)
 80037fc:	e9d4 3200 	ldrd	r3, r2, [r4]
    if (ret == HAL_OK)
 8003800:	2d00      	cmp	r5, #0
 8003802:	f040 8418 	bne.w	8004036 <HAL_RCCEx_PeriphCLKConfig+0x8da>
      __HAL_RCC_SAI23_CONFIG(PeriphClkInit->Sai23ClockSelection);
 8003806:	4f93      	ldr	r7, [pc, #588]	; (8003a54 <HAL_RCCEx_PeriphCLKConfig+0x2f8>)
 8003808:	6e20      	ldr	r0, [r4, #96]	; 0x60
 800380a:	6d39      	ldr	r1, [r7, #80]	; 0x50
 800380c:	f421 71e0 	bic.w	r1, r1, #448	; 0x1c0
 8003810:	4301      	orrs	r1, r0
 8003812:	6539      	str	r1, [r7, #80]	; 0x50
  if (((PeriphClkInit->PeriphClockSelection) & RCC_PERIPHCLK_SAI4A) == RCC_PERIPHCLK_SAI4A)
 8003814:	0559      	lsls	r1, r3, #21
 8003816:	d521      	bpl.n	800385c <HAL_RCCEx_PeriphCLKConfig+0x100>
    switch (PeriphClkInit->Sai4AClockSelection)
 8003818:	f8d4 10ac 	ldr.w	r1, [r4, #172]	; 0xac
 800381c:	f5b1 0f80 	cmp.w	r1, #4194304	; 0x400000
 8003820:	f000 8513 	beq.w	800424a <HAL_RCCEx_PeriphCLKConfig+0xaee>
 8003824:	f200 80ef 	bhi.w	8003a06 <HAL_RCCEx_PeriphCLKConfig+0x2aa>
 8003828:	2900      	cmp	r1, #0
 800382a:	f000 8436 	beq.w	800409a <HAL_RCCEx_PeriphCLKConfig+0x93e>
 800382e:	f5b1 1f00 	cmp.w	r1, #2097152	; 0x200000
 8003832:	f040 80f0 	bne.w	8003a16 <HAL_RCCEx_PeriphCLKConfig+0x2ba>
        ret = RCCEx_PLL2_Config(&(PeriphClkInit->PLL2), DIVIDER_P_UPDATE);
 8003836:	2100      	movs	r1, #0
 8003838:	f104 0008 	add.w	r0, r4, #8
 800383c:	f7ff fe9a 	bl	8003574 <RCCEx_PLL2_Config>
 8003840:	4605      	mov	r5, r0
  if (((PeriphClkInit->PeriphClockSelection) & RCC_PERIPHCLK_SAI4B) == RCC_PERIPHCLK_SAI4B)
 8003842:	e9d4 3200 	ldrd	r3, r2, [r4]
    if (ret == HAL_OK)
 8003846:	2d00      	cmp	r5, #0
 8003848:	f040 83f8 	bne.w	800403c <HAL_RCCEx_PeriphCLKConfig+0x8e0>
      __HAL_RCC_SAI4A_CONFIG(PeriphClkInit->Sai4AClockSelection);
 800384c:	4f81      	ldr	r7, [pc, #516]	; (8003a54 <HAL_RCCEx_PeriphCLKConfig+0x2f8>)
 800384e:	f8d4 00ac 	ldr.w	r0, [r4, #172]	; 0xac
 8003852:	6db9      	ldr	r1, [r7, #88]	; 0x58
 8003854:	f421 0160 	bic.w	r1, r1, #14680064	; 0xe00000
 8003858:	4301      	orrs	r1, r0
 800385a:	65b9      	str	r1, [r7, #88]	; 0x58
  if (((PeriphClkInit->PeriphClockSelection) & RCC_PERIPHCLK_SAI4B) == RCC_PERIPHCLK_SAI4B)
 800385c:	051f      	lsls	r7, r3, #20
 800385e:	d521      	bpl.n	80038a4 <HAL_RCCEx_PeriphCLKConfig+0x148>
    switch (PeriphClkInit->Sai4BClockSelection)
 8003860:	f8d4 10b0 	ldr.w	r1, [r4, #176]	; 0xb0
 8003864:	f1b1 7f00 	cmp.w	r1, #33554432	; 0x2000000
 8003868:	f000 84f9 	beq.w	800425e <HAL_RCCEx_PeriphCLKConfig+0xb02>
 800386c:	f200 80d6 	bhi.w	8003a1c <HAL_RCCEx_PeriphCLKConfig+0x2c0>
 8003870:	2900      	cmp	r1, #0
 8003872:	f000 8419 	beq.w	80040a8 <HAL_RCCEx_PeriphCLKConfig+0x94c>
 8003876:	f1b1 7f80 	cmp.w	r1, #16777216	; 0x1000000
 800387a:	f040 80d7 	bne.w	8003a2c <HAL_RCCEx_PeriphCLKConfig+0x2d0>
        ret = RCCEx_PLL2_Config(&(PeriphClkInit->PLL2), DIVIDER_P_UPDATE);
 800387e:	2100      	movs	r1, #0
 8003880:	f104 0008 	add.w	r0, r4, #8
 8003884:	f7ff fe76 	bl	8003574 <RCCEx_PLL2_Config>
 8003888:	4605      	mov	r5, r0
  if (((PeriphClkInit->PeriphClockSelection) & RCC_PERIPHCLK_QSPI) == RCC_PERIPHCLK_QSPI)
 800388a:	e9d4 3200 	ldrd	r3, r2, [r4]
    if (ret == HAL_OK)
 800388e:	2d00      	cmp	r5, #0
 8003890:	f040 83db 	bne.w	800404a <HAL_RCCEx_PeriphCLKConfig+0x8ee>
      __HAL_RCC_SAI4B_CONFIG(PeriphClkInit->Sai4BClockSelection);
 8003894:	4f6f      	ldr	r7, [pc, #444]	; (8003a54 <HAL_RCCEx_PeriphCLKConfig+0x2f8>)
 8003896:	f8d4 00b0 	ldr.w	r0, [r4, #176]	; 0xb0
 800389a:	6db9      	ldr	r1, [r7, #88]	; 0x58
 800389c:	f021 61e0 	bic.w	r1, r1, #117440512	; 0x7000000
 80038a0:	4301      	orrs	r1, r0
 80038a2:	65b9      	str	r1, [r7, #88]	; 0x58
  if (((PeriphClkInit->PeriphClockSelection) & RCC_PERIPHCLK_QSPI) == RCC_PERIPHCLK_QSPI)
 80038a4:	0198      	lsls	r0, r3, #6
 80038a6:	d518      	bpl.n	80038da <HAL_RCCEx_PeriphCLKConfig+0x17e>
    switch (PeriphClkInit->QspiClockSelection)
 80038a8:	6ce1      	ldr	r1, [r4, #76]	; 0x4c
 80038aa:	2920      	cmp	r1, #32
 80038ac:	f000 8499 	beq.w	80041e2 <HAL_RCCEx_PeriphCLKConfig+0xa86>
 80038b0:	f200 80bf 	bhi.w	8003a32 <HAL_RCCEx_PeriphCLKConfig+0x2d6>
 80038b4:	b139      	cbz	r1, 80038c6 <HAL_RCCEx_PeriphCLKConfig+0x16a>
 80038b6:	2910      	cmp	r1, #16
 80038b8:	f040 80be 	bne.w	8003a38 <HAL_RCCEx_PeriphCLKConfig+0x2dc>
        __HAL_RCC_PLLCLKOUT_ENABLE(RCC_PLL1_DIVQ);
 80038bc:	4865      	ldr	r0, [pc, #404]	; (8003a54 <HAL_RCCEx_PeriphCLKConfig+0x2f8>)
 80038be:	6ac1      	ldr	r1, [r0, #44]	; 0x2c
 80038c0:	f441 3100 	orr.w	r1, r1, #131072	; 0x20000
 80038c4:	62c1      	str	r1, [r0, #44]	; 0x2c
    if (ret == HAL_OK)
 80038c6:	2d00      	cmp	r5, #0
 80038c8:	f040 8405 	bne.w	80040d6 <HAL_RCCEx_PeriphCLKConfig+0x97a>
      __HAL_RCC_QSPI_CONFIG(PeriphClkInit->QspiClockSelection);
 80038cc:	4f61      	ldr	r7, [pc, #388]	; (8003a54 <HAL_RCCEx_PeriphCLKConfig+0x2f8>)
 80038ce:	6ce0      	ldr	r0, [r4, #76]	; 0x4c
 80038d0:	6cf9      	ldr	r1, [r7, #76]	; 0x4c
 80038d2:	f021 0130 	bic.w	r1, r1, #48	; 0x30
 80038d6:	4301      	orrs	r1, r0
 80038d8:	64f9      	str	r1, [r7, #76]	; 0x4c
  if (((PeriphClkInit->PeriphClockSelection) & RCC_PERIPHCLK_SPI123) == RCC_PERIPHCLK_SPI123)
 80038da:	04d9      	lsls	r1, r3, #19
 80038dc:	d51f      	bpl.n	800391e <HAL_RCCEx_PeriphCLKConfig+0x1c2>
    switch (PeriphClkInit->Spi123ClockSelection)
 80038de:	6e61      	ldr	r1, [r4, #100]	; 0x64
 80038e0:	f5b1 5f00 	cmp.w	r1, #8192	; 0x2000
 80038e4:	f000 84cf 	beq.w	8004286 <HAL_RCCEx_PeriphCLKConfig+0xb2a>
 80038e8:	f200 80a9 	bhi.w	8003a3e <HAL_RCCEx_PeriphCLKConfig+0x2e2>
 80038ec:	2900      	cmp	r1, #0
 80038ee:	f000 83c7 	beq.w	8004080 <HAL_RCCEx_PeriphCLKConfig+0x924>
 80038f2:	f5b1 5f80 	cmp.w	r1, #4096	; 0x1000
 80038f6:	f040 80aa 	bne.w	8003a4e <HAL_RCCEx_PeriphCLKConfig+0x2f2>
        ret = RCCEx_PLL2_Config(&(PeriphClkInit->PLL2), DIVIDER_P_UPDATE);
 80038fa:	2100      	movs	r1, #0
 80038fc:	f104 0008 	add.w	r0, r4, #8
 8003900:	f7ff fe38 	bl	8003574 <RCCEx_PLL2_Config>
 8003904:	4605      	mov	r5, r0
  if (((PeriphClkInit->PeriphClockSelection) & RCC_PERIPHCLK_SPI45) == RCC_PERIPHCLK_SPI45)
 8003906:	e9d4 3200 	ldrd	r3, r2, [r4]
    if (ret == HAL_OK)
 800390a:	2d00      	cmp	r5, #0
 800390c:	f040 839b 	bne.w	8004046 <HAL_RCCEx_PeriphCLKConfig+0x8ea>
      __HAL_RCC_SPI123_CONFIG(PeriphClkInit->Spi123ClockSelection);
 8003910:	4f50      	ldr	r7, [pc, #320]	; (8003a54 <HAL_RCCEx_PeriphCLKConfig+0x2f8>)
 8003912:	6e60      	ldr	r0, [r4, #100]	; 0x64
 8003914:	6d39      	ldr	r1, [r7, #80]	; 0x50
 8003916:	f421 41e0 	bic.w	r1, r1, #28672	; 0x7000
 800391a:	4301      	orrs	r1, r0
 800391c:	6539      	str	r1, [r7, #80]	; 0x50
  if (((PeriphClkInit->PeriphClockSelection) & RCC_PERIPHCLK_SPI45) == RCC_PERIPHCLK_SPI45)
 800391e:	049f      	lsls	r7, r3, #18
 8003920:	d51d      	bpl.n	800395e <HAL_RCCEx_PeriphCLKConfig+0x202>
    switch (PeriphClkInit->Spi45ClockSelection)
 8003922:	6ea1      	ldr	r1, [r4, #104]	; 0x68
 8003924:	f5b1 3f00 	cmp.w	r1, #131072	; 0x20000
 8003928:	f000 840e 	beq.w	8004148 <HAL_RCCEx_PeriphCLKConfig+0x9ec>
 800392c:	f200 8094 	bhi.w	8003a58 <HAL_RCCEx_PeriphCLKConfig+0x2fc>
 8003930:	b159      	cbz	r1, 800394a <HAL_RCCEx_PeriphCLKConfig+0x1ee>
 8003932:	f5b1 3f80 	cmp.w	r1, #65536	; 0x10000
 8003936:	f040 8099 	bne.w	8003a6c <HAL_RCCEx_PeriphCLKConfig+0x310>
        ret = RCCEx_PLL2_Config(&(PeriphClkInit->PLL2), DIVIDER_Q_UPDATE);
 800393a:	2101      	movs	r1, #1
 800393c:	f104 0008 	add.w	r0, r4, #8
 8003940:	f7ff fe18 	bl	8003574 <RCCEx_PLL2_Config>
 8003944:	4605      	mov	r5, r0
  if (((PeriphClkInit->PeriphClockSelection) & RCC_PERIPHCLK_SPI6) == RCC_PERIPHCLK_SPI6)
 8003946:	e9d4 3200 	ldrd	r3, r2, [r4]
    if (ret == HAL_OK)
 800394a:	2d00      	cmp	r5, #0
 800394c:	f040 83bf 	bne.w	80040ce <HAL_RCCEx_PeriphCLKConfig+0x972>
      __HAL_RCC_SPI45_CONFIG(PeriphClkInit->Spi45ClockSelection);
 8003950:	4f40      	ldr	r7, [pc, #256]	; (8003a54 <HAL_RCCEx_PeriphCLKConfig+0x2f8>)
 8003952:	6ea0      	ldr	r0, [r4, #104]	; 0x68
 8003954:	6d39      	ldr	r1, [r7, #80]	; 0x50
 8003956:	f421 21e0 	bic.w	r1, r1, #458752	; 0x70000
 800395a:	4301      	orrs	r1, r0
 800395c:	6539      	str	r1, [r7, #80]	; 0x50
  if (((PeriphClkInit->PeriphClockSelection) & RCC_PERIPHCLK_SPI6) == RCC_PERIPHCLK_SPI6)
 800395e:	0458      	lsls	r0, r3, #17
 8003960:	d51f      	bpl.n	80039a2 <HAL_RCCEx_PeriphCLKConfig+0x246>
    switch (PeriphClkInit->Spi6ClockSelection)
 8003962:	f8d4 10b4 	ldr.w	r1, [r4, #180]	; 0xb4
 8003966:	f1b1 5f00 	cmp.w	r1, #536870912	; 0x20000000
 800396a:	f000 83f9 	beq.w	8004160 <HAL_RCCEx_PeriphCLKConfig+0xa04>
 800396e:	f200 8080 	bhi.w	8003a72 <HAL_RCCEx_PeriphCLKConfig+0x316>
 8003972:	b159      	cbz	r1, 800398c <HAL_RCCEx_PeriphCLKConfig+0x230>
 8003974:	f1b1 5f80 	cmp.w	r1, #268435456	; 0x10000000
 8003978:	f040 8083 	bne.w	8003a82 <HAL_RCCEx_PeriphCLKConfig+0x326>
        ret = RCCEx_PLL2_Config(&(PeriphClkInit->PLL2), DIVIDER_Q_UPDATE);
 800397c:	2101      	movs	r1, #1
 800397e:	f104 0008 	add.w	r0, r4, #8
 8003982:	f7ff fdf7 	bl	8003574 <RCCEx_PLL2_Config>
 8003986:	4605      	mov	r5, r0
  if (((PeriphClkInit->PeriphClockSelection) & RCC_PERIPHCLK_DSI) == RCC_PERIPHCLK_DSI)
 8003988:	e9d4 3200 	ldrd	r3, r2, [r4]
    if (ret == HAL_OK)
 800398c:	2d00      	cmp	r5, #0
 800398e:	f040 8396 	bne.w	80040be <HAL_RCCEx_PeriphCLKConfig+0x962>
      __HAL_RCC_SPI6_CONFIG(PeriphClkInit->Spi6ClockSelection);
 8003992:	4f30      	ldr	r7, [pc, #192]	; (8003a54 <HAL_RCCEx_PeriphCLKConfig+0x2f8>)
 8003994:	f8d4 00b4 	ldr.w	r0, [r4, #180]	; 0xb4
 8003998:	6db9      	ldr	r1, [r7, #88]	; 0x58
 800399a:	f021 41e0 	bic.w	r1, r1, #1879048192	; 0x70000000
 800399e:	4301      	orrs	r1, r0
 80039a0:	65b9      	str	r1, [r7, #88]	; 0x58
  if (((PeriphClkInit->PeriphClockSelection) & RCC_PERIPHCLK_DSI) == RCC_PERIPHCLK_DSI)
 80039a2:	0159      	lsls	r1, r3, #5
 80039a4:	d509      	bpl.n	80039ba <HAL_RCCEx_PeriphCLKConfig+0x25e>
    switch (PeriphClkInit->DsiClockSelection)
 80039a6:	6d21      	ldr	r1, [r4, #80]	; 0x50
 80039a8:	2900      	cmp	r1, #0
 80039aa:	f000 8290 	beq.w	8003ece <HAL_RCCEx_PeriphCLKConfig+0x772>
 80039ae:	f5b1 7f80 	cmp.w	r1, #256	; 0x100
 80039b2:	f000 8284 	beq.w	8003ebe <HAL_RCCEx_PeriphCLKConfig+0x762>
 80039b6:	2601      	movs	r6, #1
 80039b8:	4635      	mov	r5, r6
  if (((PeriphClkInit->PeriphClockSelection) & RCC_PERIPHCLK_FDCAN) == RCC_PERIPHCLK_FDCAN)
 80039ba:	041f      	lsls	r7, r3, #16
 80039bc:	d50d      	bpl.n	80039da <HAL_RCCEx_PeriphCLKConfig+0x27e>
    switch (PeriphClkInit->FdcanClockSelection)
 80039be:	6f61      	ldr	r1, [r4, #116]	; 0x74
 80039c0:	f1b1 5f80 	cmp.w	r1, #268435456	; 0x10000000
 80039c4:	f000 83e2 	beq.w	800418c <HAL_RCCEx_PeriphCLKConfig+0xa30>
 80039c8:	f1b1 5f00 	cmp.w	r1, #536870912	; 0x20000000
 80039cc:	f000 823c 	beq.w	8003e48 <HAL_RCCEx_PeriphCLKConfig+0x6ec>
 80039d0:	2900      	cmp	r1, #0
 80039d2:	f000 8241 	beq.w	8003e58 <HAL_RCCEx_PeriphCLKConfig+0x6fc>
 80039d6:	2601      	movs	r6, #1
 80039d8:	4635      	mov	r5, r6
  if (((PeriphClkInit->PeriphClockSelection) & RCC_PERIPHCLK_FMC) == RCC_PERIPHCLK_FMC)
 80039da:	01d8      	lsls	r0, r3, #7
 80039dc:	d563      	bpl.n	8003aa6 <HAL_RCCEx_PeriphCLKConfig+0x34a>
    switch (PeriphClkInit->FmcClockSelection)
 80039de:	6ca1      	ldr	r1, [r4, #72]	; 0x48
 80039e0:	2903      	cmp	r1, #3
 80039e2:	f200 84d0 	bhi.w	8004386 <HAL_RCCEx_PeriphCLKConfig+0xc2a>
 80039e6:	e8df f011 	tbh	[pc, r1, lsl #1]
 80039ea:	0054      	.short	0x0054
 80039ec:	03d9004f 	.word	0x03d9004f
 80039f0:	0054      	.short	0x0054
    switch (PeriphClkInit->Sai23ClockSelection)
 80039f2:	29c0      	cmp	r1, #192	; 0xc0
 80039f4:	f43f af04 	beq.w	8003800 <HAL_RCCEx_PeriphCLKConfig+0xa4>
 80039f8:	f5b1 7f80 	cmp.w	r1, #256	; 0x100
 80039fc:	f43f af00 	beq.w	8003800 <HAL_RCCEx_PeriphCLKConfig+0xa4>
 8003a00:	2601      	movs	r6, #1
 8003a02:	4635      	mov	r5, r6
 8003a04:	e706      	b.n	8003814 <HAL_RCCEx_PeriphCLKConfig+0xb8>
    switch (PeriphClkInit->Sai4AClockSelection)
 8003a06:	f5b1 0fc0 	cmp.w	r1, #6291456	; 0x600000
 8003a0a:	f43f af1c 	beq.w	8003846 <HAL_RCCEx_PeriphCLKConfig+0xea>
 8003a0e:	f5b1 0f00 	cmp.w	r1, #8388608	; 0x800000
 8003a12:	f43f af18 	beq.w	8003846 <HAL_RCCEx_PeriphCLKConfig+0xea>
 8003a16:	2601      	movs	r6, #1
 8003a18:	4635      	mov	r5, r6
 8003a1a:	e71f      	b.n	800385c <HAL_RCCEx_PeriphCLKConfig+0x100>
    switch (PeriphClkInit->Sai4BClockSelection)
 8003a1c:	f1b1 7f40 	cmp.w	r1, #50331648	; 0x3000000
 8003a20:	f43f af35 	beq.w	800388e <HAL_RCCEx_PeriphCLKConfig+0x132>
 8003a24:	f1b1 6f80 	cmp.w	r1, #67108864	; 0x4000000
 8003a28:	f43f af31 	beq.w	800388e <HAL_RCCEx_PeriphCLKConfig+0x132>
 8003a2c:	2601      	movs	r6, #1
 8003a2e:	4635      	mov	r5, r6
 8003a30:	e738      	b.n	80038a4 <HAL_RCCEx_PeriphCLKConfig+0x148>
    switch (PeriphClkInit->QspiClockSelection)
 8003a32:	2930      	cmp	r1, #48	; 0x30
 8003a34:	f43f af47 	beq.w	80038c6 <HAL_RCCEx_PeriphCLKConfig+0x16a>
 8003a38:	2601      	movs	r6, #1
 8003a3a:	4635      	mov	r5, r6
 8003a3c:	e74d      	b.n	80038da <HAL_RCCEx_PeriphCLKConfig+0x17e>
    switch (PeriphClkInit->Spi123ClockSelection)
 8003a3e:	f5b1 5f40 	cmp.w	r1, #12288	; 0x3000
 8003a42:	f43f af62 	beq.w	800390a <HAL_RCCEx_PeriphCLKConfig+0x1ae>
 8003a46:	f5b1 4f80 	cmp.w	r1, #16384	; 0x4000
 8003a4a:	f43f af5e 	beq.w	800390a <HAL_RCCEx_PeriphCLKConfig+0x1ae>
 8003a4e:	2601      	movs	r6, #1
 8003a50:	4635      	mov	r5, r6
 8003a52:	e764      	b.n	800391e <HAL_RCCEx_PeriphCLKConfig+0x1c2>
 8003a54:	58024400 	.word	0x58024400
    switch (PeriphClkInit->Spi45ClockSelection)
 8003a58:	f421 3080 	bic.w	r0, r1, #65536	; 0x10000
 8003a5c:	f5b0 2f80 	cmp.w	r0, #262144	; 0x40000
 8003a60:	f43f af73 	beq.w	800394a <HAL_RCCEx_PeriphCLKConfig+0x1ee>
 8003a64:	f5b1 3f40 	cmp.w	r1, #196608	; 0x30000
 8003a68:	f43f af6f 	beq.w	800394a <HAL_RCCEx_PeriphCLKConfig+0x1ee>
 8003a6c:	2601      	movs	r6, #1
 8003a6e:	4635      	mov	r5, r6
 8003a70:	e775      	b.n	800395e <HAL_RCCEx_PeriphCLKConfig+0x202>
    switch (PeriphClkInit->Spi6ClockSelection)
 8003a72:	f021 5080 	bic.w	r0, r1, #268435456	; 0x10000000
 8003a76:	f1b0 4f80 	cmp.w	r0, #1073741824	; 0x40000000
 8003a7a:	d087      	beq.n	800398c <HAL_RCCEx_PeriphCLKConfig+0x230>
 8003a7c:	f1b1 5f40 	cmp.w	r1, #805306368	; 0x30000000
 8003a80:	d084      	beq.n	800398c <HAL_RCCEx_PeriphCLKConfig+0x230>
 8003a82:	2601      	movs	r6, #1
 8003a84:	4635      	mov	r5, r6
 8003a86:	e78c      	b.n	80039a2 <HAL_RCCEx_PeriphCLKConfig+0x246>
        __HAL_RCC_PLLCLKOUT_ENABLE(RCC_PLL1_DIVQ);
 8003a88:	4839      	ldr	r0, [pc, #228]	; (8003b70 <HAL_RCCEx_PeriphCLKConfig+0x414>)
 8003a8a:	6ac1      	ldr	r1, [r0, #44]	; 0x2c
 8003a8c:	f441 3100 	orr.w	r1, r1, #131072	; 0x20000
 8003a90:	62c1      	str	r1, [r0, #44]	; 0x2c
    if (ret == HAL_OK)
 8003a92:	2d00      	cmp	r5, #0
 8003a94:	f040 8315 	bne.w	80040c2 <HAL_RCCEx_PeriphCLKConfig+0x966>
      __HAL_RCC_FMC_CONFIG(PeriphClkInit->FmcClockSelection);
 8003a98:	4f35      	ldr	r7, [pc, #212]	; (8003b70 <HAL_RCCEx_PeriphCLKConfig+0x414>)
 8003a9a:	6ca0      	ldr	r0, [r4, #72]	; 0x48
 8003a9c:	6cf9      	ldr	r1, [r7, #76]	; 0x4c
 8003a9e:	f021 0103 	bic.w	r1, r1, #3
 8003aa2:	4301      	orrs	r1, r0
 8003aa4:	64f9      	str	r1, [r7, #76]	; 0x4c
  if (((PeriphClkInit->PeriphClockSelection) & RCC_PERIPHCLK_RTC) == RCC_PERIPHCLK_RTC)
 8003aa6:	0259      	lsls	r1, r3, #9
 8003aa8:	f100 823f 	bmi.w	8003f2a <HAL_RCCEx_PeriphCLKConfig+0x7ce>
  if (((PeriphClkInit->PeriphClockSelection) & RCC_PERIPHCLK_USART16) == RCC_PERIPHCLK_USART16)
 8003aac:	07d8      	lsls	r0, r3, #31
 8003aae:	d530      	bpl.n	8003b12 <HAL_RCCEx_PeriphCLKConfig+0x3b6>
    switch (PeriphClkInit->Usart16ClockSelection)
 8003ab0:	f8d4 1080 	ldr.w	r1, [r4, #128]	; 0x80
 8003ab4:	2928      	cmp	r1, #40	; 0x28
 8003ab6:	d82a      	bhi.n	8003b0e <HAL_RCCEx_PeriphCLKConfig+0x3b2>
 8003ab8:	e8df f011 	tbh	[pc, r1, lsl #1]
 8003abc:	0029021c 	.word	0x0029021c
 8003ac0:	00290029 	.word	0x00290029
 8003ac4:	00290029 	.word	0x00290029
 8003ac8:	00290029 	.word	0x00290029
 8003acc:	00290214 	.word	0x00290214
 8003ad0:	00290029 	.word	0x00290029
 8003ad4:	00290029 	.word	0x00290029
 8003ad8:	00290029 	.word	0x00290029
 8003adc:	00290420 	.word	0x00290420
 8003ae0:	00290029 	.word	0x00290029
 8003ae4:	00290029 	.word	0x00290029
 8003ae8:	00290029 	.word	0x00290029
 8003aec:	0029021c 	.word	0x0029021c
 8003af0:	00290029 	.word	0x00290029
 8003af4:	00290029 	.word	0x00290029
 8003af8:	00290029 	.word	0x00290029
 8003afc:	0029021c 	.word	0x0029021c
 8003b00:	00290029 	.word	0x00290029
 8003b04:	00290029 	.word	0x00290029
 8003b08:	00290029 	.word	0x00290029
 8003b0c:	021c      	.short	0x021c
 8003b0e:	2601      	movs	r6, #1
 8003b10:	4635      	mov	r5, r6
  if (((PeriphClkInit->PeriphClockSelection) & RCC_PERIPHCLK_USART234578) == RCC_PERIPHCLK_USART234578)
 8003b12:	0799      	lsls	r1, r3, #30
 8003b14:	d51d      	bpl.n	8003b52 <HAL_RCCEx_PeriphCLKConfig+0x3f6>
    switch (PeriphClkInit->Usart234578ClockSelection)
 8003b16:	6fe1      	ldr	r1, [r4, #124]	; 0x7c
 8003b18:	2905      	cmp	r1, #5
 8003b1a:	f200 8430 	bhi.w	800437e <HAL_RCCEx_PeriphCLKConfig+0xc22>
 8003b1e:	e8df f011 	tbh	[pc, r1, lsl #1]
 8003b22:	000e      	.short	0x000e
 8003b24:	03d50006 	.word	0x03d50006
 8003b28:	000e000e 	.word	0x000e000e
 8003b2c:	000e      	.short	0x000e
        ret = RCCEx_PLL2_Config(&(PeriphClkInit->PLL2), DIVIDER_Q_UPDATE);
 8003b2e:	2101      	movs	r1, #1
 8003b30:	f104 0008 	add.w	r0, r4, #8
 8003b34:	f7ff fd1e 	bl	8003574 <RCCEx_PLL2_Config>
 8003b38:	4605      	mov	r5, r0
  if (((PeriphClkInit->PeriphClockSelection) & RCC_PERIPHCLK_LPUART1) == RCC_PERIPHCLK_LPUART1)
 8003b3a:	e9d4 3200 	ldrd	r3, r2, [r4]
    if (ret == HAL_OK)
 8003b3e:	2d00      	cmp	r5, #0
 8003b40:	f040 82c1 	bne.w	80040c6 <HAL_RCCEx_PeriphCLKConfig+0x96a>
      __HAL_RCC_USART234578_CONFIG(PeriphClkInit->Usart234578ClockSelection);
 8003b44:	4f0a      	ldr	r7, [pc, #40]	; (8003b70 <HAL_RCCEx_PeriphCLKConfig+0x414>)
 8003b46:	6fe0      	ldr	r0, [r4, #124]	; 0x7c
 8003b48:	6d79      	ldr	r1, [r7, #84]	; 0x54
 8003b4a:	f021 0107 	bic.w	r1, r1, #7
 8003b4e:	4301      	orrs	r1, r0
 8003b50:	6579      	str	r1, [r7, #84]	; 0x54
  if (((PeriphClkInit->PeriphClockSelection) & RCC_PERIPHCLK_LPUART1) == RCC_PERIPHCLK_LPUART1)
 8003b52:	075f      	lsls	r7, r3, #29
 8003b54:	d521      	bpl.n	8003b9a <HAL_RCCEx_PeriphCLKConfig+0x43e>
    switch (PeriphClkInit->Lpuart1ClockSelection)
 8003b56:	f8d4 1098 	ldr.w	r1, [r4, #152]	; 0x98
 8003b5a:	2905      	cmp	r1, #5
 8003b5c:	f200 8417 	bhi.w	800438e <HAL_RCCEx_PeriphCLKConfig+0xc32>
 8003b60:	e8df f011 	tbh	[pc, r1, lsl #1]
 8003b64:	00080010 	.word	0x00080010
 8003b68:	001003c0 	.word	0x001003c0
 8003b6c:	00100010 	.word	0x00100010
 8003b70:	58024400 	.word	0x58024400
        ret = RCCEx_PLL2_Config(&(PeriphClkInit->PLL2), DIVIDER_Q_UPDATE);
 8003b74:	2101      	movs	r1, #1
 8003b76:	f104 0008 	add.w	r0, r4, #8
 8003b7a:	f7ff fcfb 	bl	8003574 <RCCEx_PLL2_Config>
 8003b7e:	4605      	mov	r5, r0
  if (((PeriphClkInit->PeriphClockSelection) & RCC_PERIPHCLK_LPTIM1) == RCC_PERIPHCLK_LPTIM1)
 8003b80:	e9d4 3200 	ldrd	r3, r2, [r4]
    if (ret == HAL_OK)
 8003b84:	2d00      	cmp	r5, #0
 8003b86:	f040 82a0 	bne.w	80040ca <HAL_RCCEx_PeriphCLKConfig+0x96e>
      __HAL_RCC_LPUART1_CONFIG(PeriphClkInit->Lpuart1ClockSelection);
 8003b8a:	4fae      	ldr	r7, [pc, #696]	; (8003e44 <HAL_RCCEx_PeriphCLKConfig+0x6e8>)
 8003b8c:	f8d4 0098 	ldr.w	r0, [r4, #152]	; 0x98
 8003b90:	6db9      	ldr	r1, [r7, #88]	; 0x58
 8003b92:	f021 0107 	bic.w	r1, r1, #7
 8003b96:	4301      	orrs	r1, r0
 8003b98:	65b9      	str	r1, [r7, #88]	; 0x58
  if (((PeriphClkInit->PeriphClockSelection) & RCC_PERIPHCLK_LPTIM1) == RCC_PERIPHCLK_LPTIM1)
 8003b9a:	0698      	lsls	r0, r3, #26
 8003b9c:	d51f      	bpl.n	8003bde <HAL_RCCEx_PeriphCLKConfig+0x482>
    switch (PeriphClkInit->Lptim1ClockSelection)
 8003b9e:	f8d4 1094 	ldr.w	r1, [r4, #148]	; 0x94
 8003ba2:	f1b1 5f00 	cmp.w	r1, #536870912	; 0x20000000
 8003ba6:	f000 82e6 	beq.w	8004176 <HAL_RCCEx_PeriphCLKConfig+0xa1a>
 8003baa:	f200 810b 	bhi.w	8003dc4 <HAL_RCCEx_PeriphCLKConfig+0x668>
 8003bae:	b159      	cbz	r1, 8003bc8 <HAL_RCCEx_PeriphCLKConfig+0x46c>
 8003bb0:	f1b1 5f80 	cmp.w	r1, #268435456	; 0x10000000
 8003bb4:	f040 8110 	bne.w	8003dd8 <HAL_RCCEx_PeriphCLKConfig+0x67c>
        ret = RCCEx_PLL2_Config(&(PeriphClkInit->PLL2), DIVIDER_P_UPDATE);
 8003bb8:	2100      	movs	r1, #0
 8003bba:	f104 0008 	add.w	r0, r4, #8
 8003bbe:	f7ff fcd9 	bl	8003574 <RCCEx_PLL2_Config>
 8003bc2:	4605      	mov	r5, r0
  if (((PeriphClkInit->PeriphClockSelection) & RCC_PERIPHCLK_LPTIM2) == RCC_PERIPHCLK_LPTIM2)
 8003bc4:	e9d4 3200 	ldrd	r3, r2, [r4]
    if (ret == HAL_OK)
 8003bc8:	2d00      	cmp	r5, #0
 8003bca:	f040 8287 	bne.w	80040dc <HAL_RCCEx_PeriphCLKConfig+0x980>
      __HAL_RCC_LPTIM1_CONFIG(PeriphClkInit->Lptim1ClockSelection);
 8003bce:	4f9d      	ldr	r7, [pc, #628]	; (8003e44 <HAL_RCCEx_PeriphCLKConfig+0x6e8>)
 8003bd0:	f8d4 0094 	ldr.w	r0, [r4, #148]	; 0x94
 8003bd4:	6d79      	ldr	r1, [r7, #84]	; 0x54
 8003bd6:	f021 41e0 	bic.w	r1, r1, #1879048192	; 0x70000000
 8003bda:	4301      	orrs	r1, r0
 8003bdc:	6579      	str	r1, [r7, #84]	; 0x54
  if (((PeriphClkInit->PeriphClockSelection) & RCC_PERIPHCLK_LPTIM2) == RCC_PERIPHCLK_LPTIM2)
 8003bde:	0659      	lsls	r1, r3, #25
 8003be0:	d51f      	bpl.n	8003c22 <HAL_RCCEx_PeriphCLKConfig+0x4c6>
    switch (PeriphClkInit->Lptim2ClockSelection)
 8003be2:	f8d4 10a0 	ldr.w	r1, [r4, #160]	; 0xa0
 8003be6:	f5b1 6f00 	cmp.w	r1, #2048	; 0x800
 8003bea:	f000 82e2 	beq.w	80041b2 <HAL_RCCEx_PeriphCLKConfig+0xa56>
 8003bee:	f200 80f6 	bhi.w	8003dde <HAL_RCCEx_PeriphCLKConfig+0x682>
 8003bf2:	b159      	cbz	r1, 8003c0c <HAL_RCCEx_PeriphCLKConfig+0x4b0>
 8003bf4:	f5b1 6f80 	cmp.w	r1, #1024	; 0x400
 8003bf8:	f040 80fb 	bne.w	8003df2 <HAL_RCCEx_PeriphCLKConfig+0x696>
        ret = RCCEx_PLL2_Config(&(PeriphClkInit->PLL2), DIVIDER_P_UPDATE);
 8003bfc:	2100      	movs	r1, #0
 8003bfe:	f104 0008 	add.w	r0, r4, #8
 8003c02:	f7ff fcb7 	bl	8003574 <RCCEx_PLL2_Config>
 8003c06:	4605      	mov	r5, r0
  if (((PeriphClkInit->PeriphClockSelection) & RCC_PERIPHCLK_LPTIM345) == RCC_PERIPHCLK_LPTIM345)
 8003c08:	e9d4 3200 	ldrd	r3, r2, [r4]
    if (ret == HAL_OK)
 8003c0c:	2d00      	cmp	r5, #0
 8003c0e:	f040 8254 	bne.w	80040ba <HAL_RCCEx_PeriphCLKConfig+0x95e>
      __HAL_RCC_LPTIM2_CONFIG(PeriphClkInit->Lptim2ClockSelection);
 8003c12:	4f8c      	ldr	r7, [pc, #560]	; (8003e44 <HAL_RCCEx_PeriphCLKConfig+0x6e8>)
 8003c14:	f8d4 00a0 	ldr.w	r0, [r4, #160]	; 0xa0
 8003c18:	6db9      	ldr	r1, [r7, #88]	; 0x58
 8003c1a:	f421 51e0 	bic.w	r1, r1, #7168	; 0x1c00
 8003c1e:	4301      	orrs	r1, r0
 8003c20:	65b9      	str	r1, [r7, #88]	; 0x58
  if (((PeriphClkInit->PeriphClockSelection) & RCC_PERIPHCLK_LPTIM345) == RCC_PERIPHCLK_LPTIM345)
 8003c22:	061f      	lsls	r7, r3, #24
 8003c24:	d51f      	bpl.n	8003c66 <HAL_RCCEx_PeriphCLKConfig+0x50a>
    switch (PeriphClkInit->Lptim345ClockSelection)
 8003c26:	f8d4 10a4 	ldr.w	r1, [r4, #164]	; 0xa4
 8003c2a:	f5b1 4f80 	cmp.w	r1, #16384	; 0x4000
 8003c2e:	f000 82cc 	beq.w	80041ca <HAL_RCCEx_PeriphCLKConfig+0xa6e>
 8003c32:	f200 80e1 	bhi.w	8003df8 <HAL_RCCEx_PeriphCLKConfig+0x69c>
 8003c36:	b159      	cbz	r1, 8003c50 <HAL_RCCEx_PeriphCLKConfig+0x4f4>
 8003c38:	f5b1 5f00 	cmp.w	r1, #8192	; 0x2000
 8003c3c:	f040 80e6 	bne.w	8003e0c <HAL_RCCEx_PeriphCLKConfig+0x6b0>
        ret = RCCEx_PLL2_Config(&(PeriphClkInit->PLL2), DIVIDER_P_UPDATE);
 8003c40:	2100      	movs	r1, #0
 8003c42:	f104 0008 	add.w	r0, r4, #8
 8003c46:	f7ff fc95 	bl	8003574 <RCCEx_PLL2_Config>
 8003c4a:	4605      	mov	r5, r0
  if (((PeriphClkInit->PeriphClockSelection) & RCC_PERIPHCLK_I2C123) == RCC_PERIPHCLK_I2C123)
 8003c4c:	e9d4 3200 	ldrd	r3, r2, [r4]
    if (ret == HAL_OK)
 8003c50:	2d00      	cmp	r5, #0
 8003c52:	f040 823e 	bne.w	80040d2 <HAL_RCCEx_PeriphCLKConfig+0x976>
      __HAL_RCC_LPTIM345_CONFIG(PeriphClkInit->Lptim345ClockSelection);
 8003c56:	4f7b      	ldr	r7, [pc, #492]	; (8003e44 <HAL_RCCEx_PeriphCLKConfig+0x6e8>)
 8003c58:	f8d4 00a4 	ldr.w	r0, [r4, #164]	; 0xa4
 8003c5c:	6db9      	ldr	r1, [r7, #88]	; 0x58
 8003c5e:	f421 4160 	bic.w	r1, r1, #57344	; 0xe000
 8003c62:	4301      	orrs	r1, r0
 8003c64:	65b9      	str	r1, [r7, #88]	; 0x58
  if (((PeriphClkInit->PeriphClockSelection) & RCC_PERIPHCLK_I2C123) == RCC_PERIPHCLK_I2C123)
 8003c66:	0718      	lsls	r0, r3, #28
 8003c68:	d50b      	bpl.n	8003c82 <HAL_RCCEx_PeriphCLKConfig+0x526>
    if ((PeriphClkInit->I2c123ClockSelection) == RCC_I2C123CLKSOURCE_PLL3)
 8003c6a:	f8d4 0088 	ldr.w	r0, [r4, #136]	; 0x88
 8003c6e:	f5b0 5f80 	cmp.w	r0, #4096	; 0x1000
 8003c72:	f000 82c3 	beq.w	80041fc <HAL_RCCEx_PeriphCLKConfig+0xaa0>
    __HAL_RCC_I2C123_CONFIG(PeriphClkInit->I2c123ClockSelection);
 8003c76:	4f73      	ldr	r7, [pc, #460]	; (8003e44 <HAL_RCCEx_PeriphCLKConfig+0x6e8>)
 8003c78:	6d79      	ldr	r1, [r7, #84]	; 0x54
 8003c7a:	f421 5140 	bic.w	r1, r1, #12288	; 0x3000
 8003c7e:	4301      	orrs	r1, r0
 8003c80:	6579      	str	r1, [r7, #84]	; 0x54
  if (((PeriphClkInit->PeriphClockSelection) & RCC_PERIPHCLK_I2C4) == RCC_PERIPHCLK_I2C4)
 8003c82:	06d9      	lsls	r1, r3, #27
 8003c84:	d50b      	bpl.n	8003c9e <HAL_RCCEx_PeriphCLKConfig+0x542>
    if ((PeriphClkInit->I2c4ClockSelection) == RCC_I2C4CLKSOURCE_PLL3)
 8003c86:	f8d4 009c 	ldr.w	r0, [r4, #156]	; 0x9c
 8003c8a:	f5b0 7f80 	cmp.w	r0, #256	; 0x100
 8003c8e:	f000 82c2 	beq.w	8004216 <HAL_RCCEx_PeriphCLKConfig+0xaba>
    __HAL_RCC_I2C4_CONFIG(PeriphClkInit->I2c4ClockSelection);
 8003c92:	4f6c      	ldr	r7, [pc, #432]	; (8003e44 <HAL_RCCEx_PeriphCLKConfig+0x6e8>)
 8003c94:	6db9      	ldr	r1, [r7, #88]	; 0x58
 8003c96:	f421 7140 	bic.w	r1, r1, #768	; 0x300
 8003c9a:	4301      	orrs	r1, r0
 8003c9c:	65b9      	str	r1, [r7, #88]	; 0x58
  if (((PeriphClkInit->PeriphClockSelection) & RCC_PERIPHCLK_ADC) == RCC_PERIPHCLK_ADC)
 8003c9e:	031f      	lsls	r7, r3, #12
 8003ca0:	d50e      	bpl.n	8003cc0 <HAL_RCCEx_PeriphCLKConfig+0x564>
    switch (PeriphClkInit->AdcClockSelection)
 8003ca2:	f8d4 10a8 	ldr.w	r1, [r4, #168]	; 0xa8
 8003ca6:	f5b1 3f80 	cmp.w	r1, #65536	; 0x10000
 8003caa:	f000 80e0 	beq.w	8003e6e <HAL_RCCEx_PeriphCLKConfig+0x712>
 8003cae:	f5b1 3f00 	cmp.w	r1, #131072	; 0x20000
 8003cb2:	f000 80e4 	beq.w	8003e7e <HAL_RCCEx_PeriphCLKConfig+0x722>
 8003cb6:	2900      	cmp	r1, #0
 8003cb8:	f000 8235 	beq.w	8004126 <HAL_RCCEx_PeriphCLKConfig+0x9ca>
 8003cbc:	2601      	movs	r6, #1
 8003cbe:	4635      	mov	r5, r6
  if (((PeriphClkInit->PeriphClockSelection) & RCC_PERIPHCLK_USB) == RCC_PERIPHCLK_USB)
 8003cc0:	0358      	lsls	r0, r3, #13
 8003cc2:	d50f      	bpl.n	8003ce4 <HAL_RCCEx_PeriphCLKConfig+0x588>
    switch (PeriphClkInit->UsbClockSelection)
 8003cc4:	f8d4 108c 	ldr.w	r1, [r4, #140]	; 0x8c
 8003cc8:	f5b1 1f00 	cmp.w	r1, #2097152	; 0x200000
 8003ccc:	f000 80e3 	beq.w	8003e96 <HAL_RCCEx_PeriphCLKConfig+0x73a>
 8003cd0:	f5b1 1f40 	cmp.w	r1, #3145728	; 0x300000
 8003cd4:	f000 80e7 	beq.w	8003ea6 <HAL_RCCEx_PeriphCLKConfig+0x74a>
 8003cd8:	f5b1 1f80 	cmp.w	r1, #1048576	; 0x100000
 8003cdc:	f000 821b 	beq.w	8004116 <HAL_RCCEx_PeriphCLKConfig+0x9ba>
 8003ce0:	2601      	movs	r6, #1
 8003ce2:	4635      	mov	r5, r6
  if (((PeriphClkInit->PeriphClockSelection) & RCC_PERIPHCLK_SDMMC) == RCC_PERIPHCLK_SDMMC)
 8003ce4:	03d9      	lsls	r1, r3, #15
 8003ce6:	d509      	bpl.n	8003cfc <HAL_RCCEx_PeriphCLKConfig+0x5a0>
    switch (PeriphClkInit->SdmmcClockSelection)
 8003ce8:	6d61      	ldr	r1, [r4, #84]	; 0x54
 8003cea:	2900      	cmp	r1, #0
 8003cec:	f000 820a 	beq.w	8004104 <HAL_RCCEx_PeriphCLKConfig+0x9a8>
 8003cf0:	f5b1 3f80 	cmp.w	r1, #65536	; 0x10000
 8003cf4:	f000 81ab 	beq.w	800404e <HAL_RCCEx_PeriphCLKConfig+0x8f2>
 8003cf8:	2601      	movs	r6, #1
 8003cfa:	4635      	mov	r5, r6
  if (((PeriphClkInit->PeriphClockSelection) & RCC_PERIPHCLK_LTDC) == RCC_PERIPHCLK_LTDC)
 8003cfc:	009f      	lsls	r7, r3, #2
 8003cfe:	f100 8156 	bmi.w	8003fae <HAL_RCCEx_PeriphCLKConfig+0x852>
  if (((PeriphClkInit->PeriphClockSelection) & RCC_PERIPHCLK_RNG) == RCC_PERIPHCLK_RNG)
 8003d02:	0398      	lsls	r0, r3, #14
 8003d04:	d50c      	bpl.n	8003d20 <HAL_RCCEx_PeriphCLKConfig+0x5c4>
    switch (PeriphClkInit->RngClockSelection)
 8003d06:	f8d4 1084 	ldr.w	r1, [r4, #132]	; 0x84
 8003d0a:	f5b1 7f80 	cmp.w	r1, #256	; 0x100
 8003d0e:	f000 81ef 	beq.w	80040f0 <HAL_RCCEx_PeriphCLKConfig+0x994>
 8003d12:	d97e      	bls.n	8003e12 <HAL_RCCEx_PeriphCLKConfig+0x6b6>
 8003d14:	f421 7080 	bic.w	r0, r1, #256	; 0x100
 8003d18:	f5b0 7f00 	cmp.w	r0, #512	; 0x200
 8003d1c:	d07b      	beq.n	8003e16 <HAL_RCCEx_PeriphCLKConfig+0x6ba>
 8003d1e:	2601      	movs	r6, #1
  if (((PeriphClkInit->PeriphClockSelection) & RCC_PERIPHCLK_SWPMI1) == RCC_PERIPHCLK_SWPMI1)
 8003d20:	02d9      	lsls	r1, r3, #11
 8003d22:	d506      	bpl.n	8003d32 <HAL_RCCEx_PeriphCLKConfig+0x5d6>
    __HAL_RCC_SWPMI1_CONFIG(PeriphClkInit->Swpmi1ClockSelection);
 8003d24:	4847      	ldr	r0, [pc, #284]	; (8003e44 <HAL_RCCEx_PeriphCLKConfig+0x6e8>)
 8003d26:	6fa5      	ldr	r5, [r4, #120]	; 0x78
 8003d28:	6d01      	ldr	r1, [r0, #80]	; 0x50
 8003d2a:	f021 4100 	bic.w	r1, r1, #2147483648	; 0x80000000
 8003d2e:	4329      	orrs	r1, r5
 8003d30:	6501      	str	r1, [r0, #80]	; 0x50
  if (((PeriphClkInit->PeriphClockSelection) & RCC_PERIPHCLK_HRTIM1) == RCC_PERIPHCLK_HRTIM1)
 8003d32:	00df      	lsls	r7, r3, #3
 8003d34:	d507      	bpl.n	8003d46 <HAL_RCCEx_PeriphCLKConfig+0x5ea>
    __HAL_RCC_HRTIM1_CONFIG(PeriphClkInit->Hrtim1ClockSelection);
 8003d36:	4843      	ldr	r0, [pc, #268]	; (8003e44 <HAL_RCCEx_PeriphCLKConfig+0x6e8>)
 8003d38:	f8d4 50bc 	ldr.w	r5, [r4, #188]	; 0xbc
 8003d3c:	6901      	ldr	r1, [r0, #16]
 8003d3e:	f421 4180 	bic.w	r1, r1, #16384	; 0x4000
 8003d42:	4329      	orrs	r1, r5
 8003d44:	6101      	str	r1, [r0, #16]
  if (((PeriphClkInit->PeriphClockSelection) & RCC_PERIPHCLK_DFSDM1) == RCC_PERIPHCLK_DFSDM1)
 8003d46:	029d      	lsls	r5, r3, #10
 8003d48:	d506      	bpl.n	8003d58 <HAL_RCCEx_PeriphCLKConfig+0x5fc>
    __HAL_RCC_DFSDM1_CONFIG(PeriphClkInit->Dfsdm1ClockSelection);
 8003d4a:	483e      	ldr	r0, [pc, #248]	; (8003e44 <HAL_RCCEx_PeriphCLKConfig+0x6e8>)
 8003d4c:	6f25      	ldr	r5, [r4, #112]	; 0x70
 8003d4e:	6d01      	ldr	r1, [r0, #80]	; 0x50
 8003d50:	f021 7180 	bic.w	r1, r1, #16777216	; 0x1000000
 8003d54:	4329      	orrs	r1, r5
 8003d56:	6501      	str	r1, [r0, #80]	; 0x50
  if (((PeriphClkInit->PeriphClockSelection) & RCC_PERIPHCLK_TIM) == RCC_PERIPHCLK_TIM)
 8003d58:	0058      	lsls	r0, r3, #1
 8003d5a:	d509      	bpl.n	8003d70 <HAL_RCCEx_PeriphCLKConfig+0x614>
    __HAL_RCC_TIMCLKPRESCALER(PeriphClkInit->TIMPresSelection);
 8003d5c:	4939      	ldr	r1, [pc, #228]	; (8003e44 <HAL_RCCEx_PeriphCLKConfig+0x6e8>)
 8003d5e:	6908      	ldr	r0, [r1, #16]
 8003d60:	f420 4000 	bic.w	r0, r0, #32768	; 0x8000
 8003d64:	6108      	str	r0, [r1, #16]
 8003d66:	6908      	ldr	r0, [r1, #16]
 8003d68:	f8d4 50c0 	ldr.w	r5, [r4, #192]	; 0xc0
 8003d6c:	4328      	orrs	r0, r5
 8003d6e:	6108      	str	r0, [r1, #16]
  if (((PeriphClkInit->PeriphClockSelection) & RCC_PERIPHCLK_CKPER) == RCC_PERIPHCLK_CKPER)
 8003d70:	2b00      	cmp	r3, #0
 8003d72:	da06      	bge.n	8003d82 <HAL_RCCEx_PeriphCLKConfig+0x626>
    __HAL_RCC_CLKP_CONFIG(PeriphClkInit->CkperClockSelection);
 8003d74:	4833      	ldr	r0, [pc, #204]	; (8003e44 <HAL_RCCEx_PeriphCLKConfig+0x6e8>)
 8003d76:	6da5      	ldr	r5, [r4, #88]	; 0x58
 8003d78:	6cc1      	ldr	r1, [r0, #76]	; 0x4c
 8003d7a:	f021 5140 	bic.w	r1, r1, #805306368	; 0x30000000
 8003d7e:	4329      	orrs	r1, r5
 8003d80:	64c1      	str	r1, [r0, #76]	; 0x4c
  if (((PeriphClkInit->PeriphClockSelection) & RCC_PERIPHCLK_CEC) == RCC_PERIPHCLK_CEC)
 8003d82:	0219      	lsls	r1, r3, #8
 8003d84:	d507      	bpl.n	8003d96 <HAL_RCCEx_PeriphCLKConfig+0x63a>
    __HAL_RCC_CEC_CONFIG(PeriphClkInit->CecClockSelection);
 8003d86:	492f      	ldr	r1, [pc, #188]	; (8003e44 <HAL_RCCEx_PeriphCLKConfig+0x6e8>)
 8003d88:	f8d4 0090 	ldr.w	r0, [r4, #144]	; 0x90
 8003d8c:	6d4b      	ldr	r3, [r1, #84]	; 0x54
 8003d8e:	f423 0340 	bic.w	r3, r3, #12582912	; 0xc00000
 8003d92:	4303      	orrs	r3, r0
 8003d94:	654b      	str	r3, [r1, #84]	; 0x54
  if (((PeriphClkInit->PeriphClockSelection) & RCC_PERIPHCLK_PLL2_DIVP) == RCC_PERIPHCLK_PLL2_DIVP)
 8003d96:	07d3      	lsls	r3, r2, #31
 8003d98:	f100 8136 	bmi.w	8004008 <HAL_RCCEx_PeriphCLKConfig+0x8ac>
  if (((PeriphClkInit->PeriphClockSelection) & RCC_PERIPHCLK_PLL2_DIVQ) == RCC_PERIPHCLK_PLL2_DIVQ)
 8003d9c:	0797      	lsls	r7, r2, #30
 8003d9e:	f100 8128 	bmi.w	8003ff2 <HAL_RCCEx_PeriphCLKConfig+0x896>
  if (((PeriphClkInit->PeriphClockSelection) & RCC_PERIPHCLK_PLL2_DIVR) == RCC_PERIPHCLK_PLL2_DIVR)
 8003da2:	0755      	lsls	r5, r2, #29
 8003da4:	f100 811a 	bmi.w	8003fdc <HAL_RCCEx_PeriphCLKConfig+0x880>
  if (((PeriphClkInit->PeriphClockSelection) & RCC_PERIPHCLK_PLL3_DIVP) == RCC_PERIPHCLK_PLL3_DIVP)
 8003da8:	0710      	lsls	r0, r2, #28
 8003daa:	f100 810c 	bmi.w	8003fc6 <HAL_RCCEx_PeriphCLKConfig+0x86a>
  if (((PeriphClkInit->PeriphClockSelection) & RCC_PERIPHCLK_PLL3_DIVQ) == RCC_PERIPHCLK_PLL3_DIVQ)
 8003dae:	06d1      	lsls	r1, r2, #27
 8003db0:	f100 80ac 	bmi.w	8003f0c <HAL_RCCEx_PeriphCLKConfig+0x7b0>
  if (((PeriphClkInit->PeriphClockSelection) & RCC_PERIPHCLK_PLL3_DIVR) == RCC_PERIPHCLK_PLL3_DIVR)
 8003db4:	0692      	lsls	r2, r2, #26
 8003db6:	f100 8132 	bmi.w	800401e <HAL_RCCEx_PeriphCLKConfig+0x8c2>
    return HAL_OK;
 8003dba:	1e30      	subs	r0, r6, #0
 8003dbc:	bf18      	it	ne
 8003dbe:	2001      	movne	r0, #1
}
 8003dc0:	e8bd 83f8 	ldmia.w	sp!, {r3, r4, r5, r6, r7, r8, r9, pc}
    switch (PeriphClkInit->Lptim1ClockSelection)
 8003dc4:	f021 5080 	bic.w	r0, r1, #268435456	; 0x10000000
 8003dc8:	f1b0 4f80 	cmp.w	r0, #1073741824	; 0x40000000
 8003dcc:	f43f aefc 	beq.w	8003bc8 <HAL_RCCEx_PeriphCLKConfig+0x46c>
 8003dd0:	f1b1 5f40 	cmp.w	r1, #805306368	; 0x30000000
 8003dd4:	f43f aef8 	beq.w	8003bc8 <HAL_RCCEx_PeriphCLKConfig+0x46c>
 8003dd8:	2601      	movs	r6, #1
 8003dda:	4635      	mov	r5, r6
 8003ddc:	e6ff      	b.n	8003bde <HAL_RCCEx_PeriphCLKConfig+0x482>
    switch (PeriphClkInit->Lptim2ClockSelection)
 8003dde:	f421 6080 	bic.w	r0, r1, #1024	; 0x400
 8003de2:	f5b0 5f80 	cmp.w	r0, #4096	; 0x1000
 8003de6:	f43f af11 	beq.w	8003c0c <HAL_RCCEx_PeriphCLKConfig+0x4b0>
 8003dea:	f5b1 6f40 	cmp.w	r1, #3072	; 0xc00
 8003dee:	f43f af0d 	beq.w	8003c0c <HAL_RCCEx_PeriphCLKConfig+0x4b0>
 8003df2:	2601      	movs	r6, #1
 8003df4:	4635      	mov	r5, r6
 8003df6:	e714      	b.n	8003c22 <HAL_RCCEx_PeriphCLKConfig+0x4c6>
    switch (PeriphClkInit->Lptim345ClockSelection)
 8003df8:	f421 5000 	bic.w	r0, r1, #8192	; 0x2000
 8003dfc:	f5b0 4f00 	cmp.w	r0, #32768	; 0x8000
 8003e00:	f43f af26 	beq.w	8003c50 <HAL_RCCEx_PeriphCLKConfig+0x4f4>
 8003e04:	f5b1 4fc0 	cmp.w	r1, #24576	; 0x6000
 8003e08:	f43f af22 	beq.w	8003c50 <HAL_RCCEx_PeriphCLKConfig+0x4f4>
 8003e0c:	2601      	movs	r6, #1
 8003e0e:	4635      	mov	r5, r6
 8003e10:	e729      	b.n	8003c66 <HAL_RCCEx_PeriphCLKConfig+0x50a>
    switch (PeriphClkInit->RngClockSelection)
 8003e12:	2900      	cmp	r1, #0
 8003e14:	d183      	bne.n	8003d1e <HAL_RCCEx_PeriphCLKConfig+0x5c2>
    if (ret == HAL_OK)
 8003e16:	2d00      	cmp	r5, #0
 8003e18:	f040 8168 	bne.w	80040ec <HAL_RCCEx_PeriphCLKConfig+0x990>
      __HAL_RCC_RNG_CONFIG(PeriphClkInit->RngClockSelection);
 8003e1c:	4d09      	ldr	r5, [pc, #36]	; (8003e44 <HAL_RCCEx_PeriphCLKConfig+0x6e8>)
 8003e1e:	6d68      	ldr	r0, [r5, #84]	; 0x54
 8003e20:	f420 7040 	bic.w	r0, r0, #768	; 0x300
 8003e24:	4301      	orrs	r1, r0
 8003e26:	6569      	str	r1, [r5, #84]	; 0x54
 8003e28:	e77a      	b.n	8003d20 <HAL_RCCEx_PeriphCLKConfig+0x5c4>
    switch (PeriphClkInit->Sai1ClockSelection)
 8003e2a:	4635      	mov	r5, r6
    if (ret == HAL_OK)
 8003e2c:	2d00      	cmp	r5, #0
 8003e2e:	f040 8107 	bne.w	8004040 <HAL_RCCEx_PeriphCLKConfig+0x8e4>
      __HAL_RCC_SAI1_CONFIG(PeriphClkInit->Sai1ClockSelection);
 8003e32:	4f04      	ldr	r7, [pc, #16]	; (8003e44 <HAL_RCCEx_PeriphCLKConfig+0x6e8>)
 8003e34:	6de0      	ldr	r0, [r4, #92]	; 0x5c
 8003e36:	6d39      	ldr	r1, [r7, #80]	; 0x50
 8003e38:	f021 0107 	bic.w	r1, r1, #7
 8003e3c:	4301      	orrs	r1, r0
 8003e3e:	6539      	str	r1, [r7, #80]	; 0x50
 8003e40:	e4c8      	b.n	80037d4 <HAL_RCCEx_PeriphCLKConfig+0x78>
 8003e42:	bf00      	nop
 8003e44:	58024400 	.word	0x58024400
        ret = RCCEx_PLL2_Config(&(PeriphClkInit->PLL2), DIVIDER_Q_UPDATE);
 8003e48:	2101      	movs	r1, #1
 8003e4a:	f104 0008 	add.w	r0, r4, #8
 8003e4e:	f7ff fb91 	bl	8003574 <RCCEx_PLL2_Config>
 8003e52:	4605      	mov	r5, r0
  if (((PeriphClkInit->PeriphClockSelection) & RCC_PERIPHCLK_FMC) == RCC_PERIPHCLK_FMC)
 8003e54:	e9d4 3200 	ldrd	r3, r2, [r4]
    if (ret == HAL_OK)
 8003e58:	2d00      	cmp	r5, #0
 8003e5a:	f040 8145 	bne.w	80040e8 <HAL_RCCEx_PeriphCLKConfig+0x98c>
      __HAL_RCC_FDCAN_CONFIG(PeriphClkInit->FdcanClockSelection);
 8003e5e:	4fb8      	ldr	r7, [pc, #736]	; (8004140 <HAL_RCCEx_PeriphCLKConfig+0x9e4>)
 8003e60:	6f60      	ldr	r0, [r4, #116]	; 0x74
 8003e62:	6d39      	ldr	r1, [r7, #80]	; 0x50
 8003e64:	f021 5140 	bic.w	r1, r1, #805306368	; 0x30000000
 8003e68:	4301      	orrs	r1, r0
 8003e6a:	6539      	str	r1, [r7, #80]	; 0x50
 8003e6c:	e5b5      	b.n	80039da <HAL_RCCEx_PeriphCLKConfig+0x27e>
        ret = RCCEx_PLL3_Config(&(PeriphClkInit->PLL3), DIVIDER_R_UPDATE);
 8003e6e:	2102      	movs	r1, #2
 8003e70:	f104 0028 	add.w	r0, r4, #40	; 0x28
 8003e74:	f7ff fbf8 	bl	8003668 <RCCEx_PLL3_Config>
 8003e78:	4605      	mov	r5, r0
  if (((PeriphClkInit->PeriphClockSelection) & RCC_PERIPHCLK_USB) == RCC_PERIPHCLK_USB)
 8003e7a:	e9d4 3200 	ldrd	r3, r2, [r4]
    if (ret == HAL_OK)
 8003e7e:	2d00      	cmp	r5, #0
 8003e80:	f040 8130 	bne.w	80040e4 <HAL_RCCEx_PeriphCLKConfig+0x988>
      __HAL_RCC_ADC_CONFIG(PeriphClkInit->AdcClockSelection);
 8003e84:	4fae      	ldr	r7, [pc, #696]	; (8004140 <HAL_RCCEx_PeriphCLKConfig+0x9e4>)
 8003e86:	f8d4 00a8 	ldr.w	r0, [r4, #168]	; 0xa8
 8003e8a:	6db9      	ldr	r1, [r7, #88]	; 0x58
 8003e8c:	f421 3140 	bic.w	r1, r1, #196608	; 0x30000
 8003e90:	4301      	orrs	r1, r0
 8003e92:	65b9      	str	r1, [r7, #88]	; 0x58
 8003e94:	e714      	b.n	8003cc0 <HAL_RCCEx_PeriphCLKConfig+0x564>
        ret = RCCEx_PLL3_Config(&(PeriphClkInit->PLL3), DIVIDER_Q_UPDATE);
 8003e96:	2101      	movs	r1, #1
 8003e98:	f104 0028 	add.w	r0, r4, #40	; 0x28
 8003e9c:	f7ff fbe4 	bl	8003668 <RCCEx_PLL3_Config>
 8003ea0:	4605      	mov	r5, r0
  if (((PeriphClkInit->PeriphClockSelection) & RCC_PERIPHCLK_SDMMC) == RCC_PERIPHCLK_SDMMC)
 8003ea2:	e9d4 3200 	ldrd	r3, r2, [r4]
    if (ret == HAL_OK)
 8003ea6:	2d00      	cmp	r5, #0
 8003ea8:	f040 811a 	bne.w	80040e0 <HAL_RCCEx_PeriphCLKConfig+0x984>
      __HAL_RCC_USB_CONFIG(PeriphClkInit->UsbClockSelection);
 8003eac:	4fa4      	ldr	r7, [pc, #656]	; (8004140 <HAL_RCCEx_PeriphCLKConfig+0x9e4>)
 8003eae:	f8d4 008c 	ldr.w	r0, [r4, #140]	; 0x8c
 8003eb2:	6d79      	ldr	r1, [r7, #84]	; 0x54
 8003eb4:	f421 1140 	bic.w	r1, r1, #3145728	; 0x300000
 8003eb8:	4301      	orrs	r1, r0
 8003eba:	6579      	str	r1, [r7, #84]	; 0x54
 8003ebc:	e712      	b.n	8003ce4 <HAL_RCCEx_PeriphCLKConfig+0x588>
        ret = RCCEx_PLL2_Config(&(PeriphClkInit->PLL2), DIVIDER_Q_UPDATE);
 8003ebe:	2101      	movs	r1, #1
 8003ec0:	f104 0008 	add.w	r0, r4, #8
 8003ec4:	f7ff fb56 	bl	8003574 <RCCEx_PLL2_Config>
 8003ec8:	4605      	mov	r5, r0
  if (((PeriphClkInit->PeriphClockSelection) & RCC_PERIPHCLK_FDCAN) == RCC_PERIPHCLK_FDCAN)
 8003eca:	e9d4 3200 	ldrd	r3, r2, [r4]
    if (ret == HAL_OK)
 8003ece:	2d00      	cmp	r5, #0
 8003ed0:	f040 8116 	bne.w	8004100 <HAL_RCCEx_PeriphCLKConfig+0x9a4>
      __HAL_RCC_DSI_CONFIG(PeriphClkInit->DsiClockSelection);
 8003ed4:	4f9a      	ldr	r7, [pc, #616]	; (8004140 <HAL_RCCEx_PeriphCLKConfig+0x9e4>)
 8003ed6:	6d20      	ldr	r0, [r4, #80]	; 0x50
 8003ed8:	6cf9      	ldr	r1, [r7, #76]	; 0x4c
 8003eda:	f421 7180 	bic.w	r1, r1, #256	; 0x100
 8003ede:	4301      	orrs	r1, r0
 8003ee0:	64f9      	str	r1, [r7, #76]	; 0x4c
 8003ee2:	e56a      	b.n	80039ba <HAL_RCCEx_PeriphCLKConfig+0x25e>
        ret = RCCEx_PLL2_Config(&(PeriphClkInit->PLL2), DIVIDER_Q_UPDATE);
 8003ee4:	2101      	movs	r1, #1
 8003ee6:	f104 0008 	add.w	r0, r4, #8
 8003eea:	f7ff fb43 	bl	8003574 <RCCEx_PLL2_Config>
 8003eee:	4605      	mov	r5, r0
  if (((PeriphClkInit->PeriphClockSelection) & RCC_PERIPHCLK_USART234578) == RCC_PERIPHCLK_USART234578)
 8003ef0:	e9d4 3200 	ldrd	r3, r2, [r4]
    if (ret == HAL_OK)
 8003ef4:	2d00      	cmp	r5, #0
 8003ef6:	f040 80de 	bne.w	80040b6 <HAL_RCCEx_PeriphCLKConfig+0x95a>
      __HAL_RCC_USART16_CONFIG(PeriphClkInit->Usart16ClockSelection);
 8003efa:	4f91      	ldr	r7, [pc, #580]	; (8004140 <HAL_RCCEx_PeriphCLKConfig+0x9e4>)
 8003efc:	f8d4 0080 	ldr.w	r0, [r4, #128]	; 0x80
 8003f00:	6d79      	ldr	r1, [r7, #84]	; 0x54
 8003f02:	f021 0138 	bic.w	r1, r1, #56	; 0x38
 8003f06:	4301      	orrs	r1, r0
 8003f08:	6579      	str	r1, [r7, #84]	; 0x54
 8003f0a:	e602      	b.n	8003b12 <HAL_RCCEx_PeriphCLKConfig+0x3b6>
    ret = RCCEx_PLL3_Config(&(PeriphClkInit->PLL3), DIVIDER_Q_UPDATE);
 8003f0c:	f104 0528 	add.w	r5, r4, #40	; 0x28
 8003f10:	2101      	movs	r1, #1
 8003f12:	4628      	mov	r0, r5
 8003f14:	f7ff fba8 	bl	8003668 <RCCEx_PLL3_Config>
    if (ret == HAL_OK)
 8003f18:	2800      	cmp	r0, #0
 8003f1a:	f000 810e 	beq.w	800413a <HAL_RCCEx_PeriphCLKConfig+0x9de>
  if (((PeriphClkInit->PeriphClockSelection) & RCC_PERIPHCLK_PLL3_DIVR) == RCC_PERIPHCLK_PLL3_DIVR)
 8003f1e:	6863      	ldr	r3, [r4, #4]
 8003f20:	069b      	lsls	r3, r3, #26
 8003f22:	f140 8085 	bpl.w	8004030 <HAL_RCCEx_PeriphCLKConfig+0x8d4>
 8003f26:	4606      	mov	r6, r0
 8003f28:	e07b      	b.n	8004022 <HAL_RCCEx_PeriphCLKConfig+0x8c6>
    SET_BIT(PWR->CR1, PWR_CR1_DBP);
 8003f2a:	4f86      	ldr	r7, [pc, #536]	; (8004144 <HAL_RCCEx_PeriphCLKConfig+0x9e8>)
 8003f2c:	683b      	ldr	r3, [r7, #0]
 8003f2e:	f443 7380 	orr.w	r3, r3, #256	; 0x100
 8003f32:	603b      	str	r3, [r7, #0]
    tickstart = HAL_GetTick();
 8003f34:	f7fd f908 	bl	8001148 <HAL_GetTick>
 8003f38:	4680      	mov	r8, r0
    while ((PWR->CR1 & PWR_CR1_DBP) == 0U)
 8003f3a:	e006      	b.n	8003f4a <HAL_RCCEx_PeriphCLKConfig+0x7ee>
      if ((HAL_GetTick() - tickstart) > RCC_DBP_TIMEOUT_VALUE)
 8003f3c:	f7fd f904 	bl	8001148 <HAL_GetTick>
 8003f40:	eba0 0008 	sub.w	r0, r0, r8
 8003f44:	2864      	cmp	r0, #100	; 0x64
 8003f46:	f200 81e5 	bhi.w	8004314 <HAL_RCCEx_PeriphCLKConfig+0xbb8>
    while ((PWR->CR1 & PWR_CR1_DBP) == 0U)
 8003f4a:	683b      	ldr	r3, [r7, #0]
 8003f4c:	05da      	lsls	r2, r3, #23
 8003f4e:	d5f5      	bpl.n	8003f3c <HAL_RCCEx_PeriphCLKConfig+0x7e0>
    if (ret == HAL_OK)
 8003f50:	2d00      	cmp	r5, #0
 8003f52:	f040 820f 	bne.w	8004374 <HAL_RCCEx_PeriphCLKConfig+0xc18>
      if ((RCC->BDCR & RCC_BDCR_RTCSEL) != (PeriphClkInit->RTCClockSelection & RCC_BDCR_RTCSEL))
 8003f56:	4a7a      	ldr	r2, [pc, #488]	; (8004140 <HAL_RCCEx_PeriphCLKConfig+0x9e4>)
 8003f58:	f8d4 30b8 	ldr.w	r3, [r4, #184]	; 0xb8
 8003f5c:	6f11      	ldr	r1, [r2, #112]	; 0x70
 8003f5e:	4059      	eors	r1, r3
 8003f60:	f411 7f40 	tst.w	r1, #768	; 0x300
 8003f64:	d00b      	beq.n	8003f7e <HAL_RCCEx_PeriphCLKConfig+0x822>
        tmpreg = (RCC->BDCR & ~(RCC_BDCR_RTCSEL));
 8003f66:	6f11      	ldr	r1, [r2, #112]	; 0x70
        __HAL_RCC_BACKUPRESET_FORCE();
 8003f68:	6f10      	ldr	r0, [r2, #112]	; 0x70
        tmpreg = (RCC->BDCR & ~(RCC_BDCR_RTCSEL));
 8003f6a:	f421 7140 	bic.w	r1, r1, #768	; 0x300
        __HAL_RCC_BACKUPRESET_FORCE();
 8003f6e:	f440 3080 	orr.w	r0, r0, #65536	; 0x10000
 8003f72:	6710      	str	r0, [r2, #112]	; 0x70
        __HAL_RCC_BACKUPRESET_RELEASE();
 8003f74:	6f10      	ldr	r0, [r2, #112]	; 0x70
 8003f76:	f420 3080 	bic.w	r0, r0, #65536	; 0x10000
 8003f7a:	6710      	str	r0, [r2, #112]	; 0x70
        RCC->BDCR = tmpreg;
 8003f7c:	6711      	str	r1, [r2, #112]	; 0x70
      if (PeriphClkInit->RTCClockSelection == RCC_RTCCLKSOURCE_LSE)
 8003f7e:	f5b3 7f80 	cmp.w	r3, #256	; 0x100
 8003f82:	f000 81d9 	beq.w	8004338 <HAL_RCCEx_PeriphCLKConfig+0xbdc>
        __HAL_RCC_RTC_CONFIG(PeriphClkInit->RTCClockSelection);
 8003f86:	f403 7240 	and.w	r2, r3, #768	; 0x300
 8003f8a:	f5b2 7f40 	cmp.w	r2, #768	; 0x300
 8003f8e:	f000 81e7 	beq.w	8004360 <HAL_RCCEx_PeriphCLKConfig+0xc04>
 8003f92:	496b      	ldr	r1, [pc, #428]	; (8004140 <HAL_RCCEx_PeriphCLKConfig+0x9e4>)
 8003f94:	690a      	ldr	r2, [r1, #16]
 8003f96:	f422 527c 	bic.w	r2, r2, #16128	; 0x3f00
 8003f9a:	610a      	str	r2, [r1, #16]
 8003f9c:	4868      	ldr	r0, [pc, #416]	; (8004140 <HAL_RCCEx_PeriphCLKConfig+0x9e4>)
 8003f9e:	f3c3 010b 	ubfx	r1, r3, #0, #12
 8003fa2:	6f07      	ldr	r7, [r0, #112]	; 0x70
 8003fa4:	4339      	orrs	r1, r7
  if (((PeriphClkInit->PeriphClockSelection) & RCC_PERIPHCLK_USART16) == RCC_PERIPHCLK_USART16)
 8003fa6:	e9d4 3200 	ldrd	r3, r2, [r4]
        __HAL_RCC_RTC_CONFIG(PeriphClkInit->RTCClockSelection);
 8003faa:	6701      	str	r1, [r0, #112]	; 0x70
 8003fac:	e57e      	b.n	8003aac <HAL_RCCEx_PeriphCLKConfig+0x350>
    if (RCCEx_PLL3_Config(&(PeriphClkInit->PLL3), DIVIDER_R_UPDATE) != HAL_OK)
 8003fae:	2102      	movs	r1, #2
 8003fb0:	f104 0028 	add.w	r0, r4, #40	; 0x28
 8003fb4:	f7ff fb58 	bl	8003668 <RCCEx_PLL3_Config>
  if (((PeriphClkInit->PeriphClockSelection) & RCC_PERIPHCLK_RNG) == RCC_PERIPHCLK_RNG)
 8003fb8:	e9d4 3200 	ldrd	r3, r2, [r4]
    if (RCCEx_PLL3_Config(&(PeriphClkInit->PLL3), DIVIDER_R_UPDATE) != HAL_OK)
 8003fbc:	2800      	cmp	r0, #0
 8003fbe:	f43f aea0 	beq.w	8003d02 <HAL_RCCEx_PeriphCLKConfig+0x5a6>
      status = HAL_ERROR;
 8003fc2:	2601      	movs	r6, #1
 8003fc4:	e69d      	b.n	8003d02 <HAL_RCCEx_PeriphCLKConfig+0x5a6>
    ret = RCCEx_PLL3_Config(&(PeriphClkInit->PLL3), DIVIDER_P_UPDATE);
 8003fc6:	2100      	movs	r1, #0
 8003fc8:	f104 0028 	add.w	r0, r4, #40	; 0x28
 8003fcc:	f7ff fb4c 	bl	8003668 <RCCEx_PLL3_Config>
  if (((PeriphClkInit->PeriphClockSelection) & RCC_PERIPHCLK_PLL3_DIVQ) == RCC_PERIPHCLK_PLL3_DIVQ)
 8003fd0:	6862      	ldr	r2, [r4, #4]
    if (ret == HAL_OK)
 8003fd2:	2800      	cmp	r0, #0
 8003fd4:	f43f aeeb 	beq.w	8003dae <HAL_RCCEx_PeriphCLKConfig+0x652>
  if (((PeriphClkInit->PeriphClockSelection) & RCC_PERIPHCLK_PLL3_DIVQ) == RCC_PERIPHCLK_PLL3_DIVQ)
 8003fd8:	4606      	mov	r6, r0
 8003fda:	e6e8      	b.n	8003dae <HAL_RCCEx_PeriphCLKConfig+0x652>
    ret = RCCEx_PLL2_Config(&(PeriphClkInit->PLL2), DIVIDER_R_UPDATE);
 8003fdc:	2102      	movs	r1, #2
 8003fde:	f104 0008 	add.w	r0, r4, #8
 8003fe2:	f7ff fac7 	bl	8003574 <RCCEx_PLL2_Config>
  if (((PeriphClkInit->PeriphClockSelection) & RCC_PERIPHCLK_PLL3_DIVP) == RCC_PERIPHCLK_PLL3_DIVP)
 8003fe6:	6862      	ldr	r2, [r4, #4]
    if (ret == HAL_OK)
 8003fe8:	2800      	cmp	r0, #0
 8003fea:	f43f aedd 	beq.w	8003da8 <HAL_RCCEx_PeriphCLKConfig+0x64c>
  if (((PeriphClkInit->PeriphClockSelection) & RCC_PERIPHCLK_PLL3_DIVP) == RCC_PERIPHCLK_PLL3_DIVP)
 8003fee:	4606      	mov	r6, r0
 8003ff0:	e6da      	b.n	8003da8 <HAL_RCCEx_PeriphCLKConfig+0x64c>
    ret = RCCEx_PLL2_Config(&(PeriphClkInit->PLL2), DIVIDER_Q_UPDATE);
 8003ff2:	2101      	movs	r1, #1
 8003ff4:	f104 0008 	add.w	r0, r4, #8
 8003ff8:	f7ff fabc 	bl	8003574 <RCCEx_PLL2_Config>
  if (((PeriphClkInit->PeriphClockSelection) & RCC_PERIPHCLK_PLL2_DIVR) == RCC_PERIPHCLK_PLL2_DIVR)
 8003ffc:	6862      	ldr	r2, [r4, #4]
    if (ret == HAL_OK)
 8003ffe:	2800      	cmp	r0, #0
 8004000:	f43f aecf 	beq.w	8003da2 <HAL_RCCEx_PeriphCLKConfig+0x646>
  if (((PeriphClkInit->PeriphClockSelection) & RCC_PERIPHCLK_PLL2_DIVR) == RCC_PERIPHCLK_PLL2_DIVR)
 8004004:	4606      	mov	r6, r0
 8004006:	e6cc      	b.n	8003da2 <HAL_RCCEx_PeriphCLKConfig+0x646>
    ret = RCCEx_PLL2_Config(&(PeriphClkInit->PLL2), DIVIDER_P_UPDATE);
 8004008:	2100      	movs	r1, #0
 800400a:	f104 0008 	add.w	r0, r4, #8
 800400e:	f7ff fab1 	bl	8003574 <RCCEx_PLL2_Config>
  if (((PeriphClkInit->PeriphClockSelection) & RCC_PERIPHCLK_PLL2_DIVQ) == RCC_PERIPHCLK_PLL2_DIVQ)
 8004012:	6862      	ldr	r2, [r4, #4]
    if (ret == HAL_OK)
 8004014:	2800      	cmp	r0, #0
 8004016:	f43f aec1 	beq.w	8003d9c <HAL_RCCEx_PeriphCLKConfig+0x640>
  if (((PeriphClkInit->PeriphClockSelection) & RCC_PERIPHCLK_PLL2_DIVQ) == RCC_PERIPHCLK_PLL2_DIVQ)
 800401a:	4606      	mov	r6, r0
 800401c:	e6be      	b.n	8003d9c <HAL_RCCEx_PeriphCLKConfig+0x640>
        ret = RCCEx_PLL3_Config(&(PeriphClkInit->PLL3), DIVIDER_R_UPDATE);
 800401e:	f104 0528 	add.w	r5, r4, #40	; 0x28
    ret = RCCEx_PLL3_Config(&(PeriphClkInit->PLL3), DIVIDER_R_UPDATE);
 8004022:	2102      	movs	r1, #2
 8004024:	4628      	mov	r0, r5
 8004026:	f7ff fb1f 	bl	8003668 <RCCEx_PLL3_Config>
    if (ret == HAL_OK)
 800402a:	2800      	cmp	r0, #0
 800402c:	f43f aec5 	beq.w	8003dba <HAL_RCCEx_PeriphCLKConfig+0x65e>
  return HAL_ERROR;
 8004030:	2001      	movs	r0, #1
}
 8004032:	e8bd 83f8 	ldmia.w	sp!, {r3, r4, r5, r6, r7, r8, r9, pc}
 8004036:	462e      	mov	r6, r5
 8004038:	f7ff bbec 	b.w	8003814 <HAL_RCCEx_PeriphCLKConfig+0xb8>
 800403c:	462e      	mov	r6, r5
 800403e:	e40d      	b.n	800385c <HAL_RCCEx_PeriphCLKConfig+0x100>
 8004040:	462e      	mov	r6, r5
 8004042:	f7ff bbc7 	b.w	80037d4 <HAL_RCCEx_PeriphCLKConfig+0x78>
 8004046:	462e      	mov	r6, r5
 8004048:	e469      	b.n	800391e <HAL_RCCEx_PeriphCLKConfig+0x1c2>
 800404a:	462e      	mov	r6, r5
 800404c:	e42a      	b.n	80038a4 <HAL_RCCEx_PeriphCLKConfig+0x148>
        ret = RCCEx_PLL2_Config(&(PeriphClkInit->PLL2), DIVIDER_R_UPDATE);
 800404e:	2102      	movs	r1, #2
 8004050:	f104 0008 	add.w	r0, r4, #8
 8004054:	f7ff fa8e 	bl	8003574 <RCCEx_PLL2_Config>
 8004058:	4605      	mov	r5, r0
  if (((PeriphClkInit->PeriphClockSelection) & RCC_PERIPHCLK_LTDC) == RCC_PERIPHCLK_LTDC)
 800405a:	e9d4 3200 	ldrd	r3, r2, [r4]
    if (ret == HAL_OK)
 800405e:	2d00      	cmp	r5, #0
 8004060:	d157      	bne.n	8004112 <HAL_RCCEx_PeriphCLKConfig+0x9b6>
      __HAL_RCC_SDMMC_CONFIG(PeriphClkInit->SdmmcClockSelection);
 8004062:	4f37      	ldr	r7, [pc, #220]	; (8004140 <HAL_RCCEx_PeriphCLKConfig+0x9e4>)
 8004064:	6d60      	ldr	r0, [r4, #84]	; 0x54
 8004066:	6cf9      	ldr	r1, [r7, #76]	; 0x4c
 8004068:	f421 3180 	bic.w	r1, r1, #65536	; 0x10000
 800406c:	4301      	orrs	r1, r0
 800406e:	64f9      	str	r1, [r7, #76]	; 0x4c
 8004070:	e644      	b.n	8003cfc <HAL_RCCEx_PeriphCLKConfig+0x5a0>
        __HAL_RCC_PLLCLKOUT_ENABLE(RCC_PLL1_DIVQ);
 8004072:	4d33      	ldr	r5, [pc, #204]	; (8004140 <HAL_RCCEx_PeriphCLKConfig+0x9e4>)
 8004074:	6ae8      	ldr	r0, [r5, #44]	; 0x2c
 8004076:	f440 3000 	orr.w	r0, r0, #131072	; 0x20000
 800407a:	62e8      	str	r0, [r5, #44]	; 0x2c
    if (ret == HAL_OK)
 800407c:	f7ff bb8e 	b.w	800379c <HAL_RCCEx_PeriphCLKConfig+0x40>
        __HAL_RCC_PLLCLKOUT_ENABLE(RCC_PLL1_DIVQ);
 8004080:	482f      	ldr	r0, [pc, #188]	; (8004140 <HAL_RCCEx_PeriphCLKConfig+0x9e4>)
 8004082:	6ac1      	ldr	r1, [r0, #44]	; 0x2c
 8004084:	f441 3100 	orr.w	r1, r1, #131072	; 0x20000
 8004088:	62c1      	str	r1, [r0, #44]	; 0x2c
        break;
 800408a:	e43e      	b.n	800390a <HAL_RCCEx_PeriphCLKConfig+0x1ae>
        __HAL_RCC_PLLCLKOUT_ENABLE(RCC_PLL1_DIVQ);
 800408c:	482c      	ldr	r0, [pc, #176]	; (8004140 <HAL_RCCEx_PeriphCLKConfig+0x9e4>)
 800408e:	6ac1      	ldr	r1, [r0, #44]	; 0x2c
 8004090:	f441 3100 	orr.w	r1, r1, #131072	; 0x20000
 8004094:	62c1      	str	r1, [r0, #44]	; 0x2c
        break;
 8004096:	f7ff bbb3 	b.w	8003800 <HAL_RCCEx_PeriphCLKConfig+0xa4>
        __HAL_RCC_PLLCLKOUT_ENABLE(RCC_PLL1_DIVQ);
 800409a:	4829      	ldr	r0, [pc, #164]	; (8004140 <HAL_RCCEx_PeriphCLKConfig+0x9e4>)
 800409c:	6ac1      	ldr	r1, [r0, #44]	; 0x2c
 800409e:	f441 3100 	orr.w	r1, r1, #131072	; 0x20000
 80040a2:	62c1      	str	r1, [r0, #44]	; 0x2c
        break;
 80040a4:	f7ff bbcf 	b.w	8003846 <HAL_RCCEx_PeriphCLKConfig+0xea>
        __HAL_RCC_PLLCLKOUT_ENABLE(RCC_PLL1_DIVQ);
 80040a8:	4825      	ldr	r0, [pc, #148]	; (8004140 <HAL_RCCEx_PeriphCLKConfig+0x9e4>)
 80040aa:	6ac1      	ldr	r1, [r0, #44]	; 0x2c
 80040ac:	f441 3100 	orr.w	r1, r1, #131072	; 0x20000
 80040b0:	62c1      	str	r1, [r0, #44]	; 0x2c
        break;
 80040b2:	f7ff bbec 	b.w	800388e <HAL_RCCEx_PeriphCLKConfig+0x132>
 80040b6:	462e      	mov	r6, r5
 80040b8:	e52b      	b.n	8003b12 <HAL_RCCEx_PeriphCLKConfig+0x3b6>
 80040ba:	462e      	mov	r6, r5
 80040bc:	e5b1      	b.n	8003c22 <HAL_RCCEx_PeriphCLKConfig+0x4c6>
 80040be:	462e      	mov	r6, r5
 80040c0:	e46f      	b.n	80039a2 <HAL_RCCEx_PeriphCLKConfig+0x246>
 80040c2:	462e      	mov	r6, r5
 80040c4:	e4ef      	b.n	8003aa6 <HAL_RCCEx_PeriphCLKConfig+0x34a>
 80040c6:	462e      	mov	r6, r5
 80040c8:	e543      	b.n	8003b52 <HAL_RCCEx_PeriphCLKConfig+0x3f6>
 80040ca:	462e      	mov	r6, r5
 80040cc:	e565      	b.n	8003b9a <HAL_RCCEx_PeriphCLKConfig+0x43e>
 80040ce:	462e      	mov	r6, r5
 80040d0:	e445      	b.n	800395e <HAL_RCCEx_PeriphCLKConfig+0x202>
 80040d2:	462e      	mov	r6, r5
 80040d4:	e5c7      	b.n	8003c66 <HAL_RCCEx_PeriphCLKConfig+0x50a>
 80040d6:	462e      	mov	r6, r5
 80040d8:	f7ff bbff 	b.w	80038da <HAL_RCCEx_PeriphCLKConfig+0x17e>
 80040dc:	462e      	mov	r6, r5
 80040de:	e57e      	b.n	8003bde <HAL_RCCEx_PeriphCLKConfig+0x482>
 80040e0:	462e      	mov	r6, r5
 80040e2:	e5ff      	b.n	8003ce4 <HAL_RCCEx_PeriphCLKConfig+0x588>
 80040e4:	462e      	mov	r6, r5
 80040e6:	e5eb      	b.n	8003cc0 <HAL_RCCEx_PeriphCLKConfig+0x564>
 80040e8:	462e      	mov	r6, r5
 80040ea:	e476      	b.n	80039da <HAL_RCCEx_PeriphCLKConfig+0x27e>
 80040ec:	462e      	mov	r6, r5
 80040ee:	e617      	b.n	8003d20 <HAL_RCCEx_PeriphCLKConfig+0x5c4>
        __HAL_RCC_PLLCLKOUT_ENABLE(RCC_PLL1_DIVQ);
 80040f0:	4f13      	ldr	r7, [pc, #76]	; (8004140 <HAL_RCCEx_PeriphCLKConfig+0x9e4>)
 80040f2:	6af8      	ldr	r0, [r7, #44]	; 0x2c
 80040f4:	f440 3000 	orr.w	r0, r0, #131072	; 0x20000
 80040f8:	62f8      	str	r0, [r7, #44]	; 0x2c
    if (ret == HAL_OK)
 80040fa:	2d00      	cmp	r5, #0
 80040fc:	d1f6      	bne.n	80040ec <HAL_RCCEx_PeriphCLKConfig+0x990>
 80040fe:	e68d      	b.n	8003e1c <HAL_RCCEx_PeriphCLKConfig+0x6c0>
 8004100:	462e      	mov	r6, r5
 8004102:	e45a      	b.n	80039ba <HAL_RCCEx_PeriphCLKConfig+0x25e>
        __HAL_RCC_PLLCLKOUT_ENABLE(RCC_PLL1_DIVQ);
 8004104:	480e      	ldr	r0, [pc, #56]	; (8004140 <HAL_RCCEx_PeriphCLKConfig+0x9e4>)
 8004106:	6ac1      	ldr	r1, [r0, #44]	; 0x2c
 8004108:	f441 3100 	orr.w	r1, r1, #131072	; 0x20000
 800410c:	62c1      	str	r1, [r0, #44]	; 0x2c
    if (ret == HAL_OK)
 800410e:	2d00      	cmp	r5, #0
 8004110:	d0a7      	beq.n	8004062 <HAL_RCCEx_PeriphCLKConfig+0x906>
 8004112:	462e      	mov	r6, r5
 8004114:	e5f2      	b.n	8003cfc <HAL_RCCEx_PeriphCLKConfig+0x5a0>
        __HAL_RCC_PLLCLKOUT_ENABLE(RCC_PLL1_DIVQ);
 8004116:	480a      	ldr	r0, [pc, #40]	; (8004140 <HAL_RCCEx_PeriphCLKConfig+0x9e4>)
 8004118:	6ac1      	ldr	r1, [r0, #44]	; 0x2c
 800411a:	f441 3100 	orr.w	r1, r1, #131072	; 0x20000
 800411e:	62c1      	str	r1, [r0, #44]	; 0x2c
    if (ret == HAL_OK)
 8004120:	2d00      	cmp	r5, #0
 8004122:	d1dd      	bne.n	80040e0 <HAL_RCCEx_PeriphCLKConfig+0x984>
 8004124:	e6c2      	b.n	8003eac <HAL_RCCEx_PeriphCLKConfig+0x750>
        ret = RCCEx_PLL2_Config(&(PeriphClkInit->PLL2), DIVIDER_P_UPDATE);
 8004126:	f104 0008 	add.w	r0, r4, #8
 800412a:	f7ff fa23 	bl	8003574 <RCCEx_PLL2_Config>
 800412e:	4605      	mov	r5, r0
  if (((PeriphClkInit->PeriphClockSelection) & RCC_PERIPHCLK_USB) == RCC_PERIPHCLK_USB)
 8004130:	e9d4 3200 	ldrd	r3, r2, [r4]
    if (ret == HAL_OK)
 8004134:	2d00      	cmp	r5, #0
 8004136:	d1d5      	bne.n	80040e4 <HAL_RCCEx_PeriphCLKConfig+0x988>
 8004138:	e6a4      	b.n	8003e84 <HAL_RCCEx_PeriphCLKConfig+0x728>
  if (((PeriphClkInit->PeriphClockSelection) & RCC_PERIPHCLK_PLL3_DIVR) == RCC_PERIPHCLK_PLL3_DIVR)
 800413a:	6862      	ldr	r2, [r4, #4]
 800413c:	e63a      	b.n	8003db4 <HAL_RCCEx_PeriphCLKConfig+0x658>
 800413e:	bf00      	nop
 8004140:	58024400 	.word	0x58024400
 8004144:	58024800 	.word	0x58024800
        ret = RCCEx_PLL3_Config(&(PeriphClkInit->PLL3), DIVIDER_Q_UPDATE);
 8004148:	2101      	movs	r1, #1
 800414a:	f104 0028 	add.w	r0, r4, #40	; 0x28
 800414e:	f7ff fa8b 	bl	8003668 <RCCEx_PLL3_Config>
 8004152:	4605      	mov	r5, r0
  if (((PeriphClkInit->PeriphClockSelection) & RCC_PERIPHCLK_SPI6) == RCC_PERIPHCLK_SPI6)
 8004154:	e9d4 3200 	ldrd	r3, r2, [r4]
    if (ret == HAL_OK)
 8004158:	2d00      	cmp	r5, #0
 800415a:	d1b8      	bne.n	80040ce <HAL_RCCEx_PeriphCLKConfig+0x972>
 800415c:	f7ff bbf8 	b.w	8003950 <HAL_RCCEx_PeriphCLKConfig+0x1f4>
        ret = RCCEx_PLL3_Config(&(PeriphClkInit->PLL3), DIVIDER_Q_UPDATE);
 8004160:	2101      	movs	r1, #1
 8004162:	f104 0028 	add.w	r0, r4, #40	; 0x28
 8004166:	f7ff fa7f 	bl	8003668 <RCCEx_PLL3_Config>
 800416a:	4605      	mov	r5, r0
  if (((PeriphClkInit->PeriphClockSelection) & RCC_PERIPHCLK_DSI) == RCC_PERIPHCLK_DSI)
 800416c:	e9d4 3200 	ldrd	r3, r2, [r4]
    if (ret == HAL_OK)
 8004170:	2d00      	cmp	r5, #0
 8004172:	d1a4      	bne.n	80040be <HAL_RCCEx_PeriphCLKConfig+0x962>
 8004174:	e40d      	b.n	8003992 <HAL_RCCEx_PeriphCLKConfig+0x236>
        ret = RCCEx_PLL3_Config(&(PeriphClkInit->PLL3), DIVIDER_R_UPDATE);
 8004176:	2102      	movs	r1, #2
 8004178:	f104 0028 	add.w	r0, r4, #40	; 0x28
 800417c:	f7ff fa74 	bl	8003668 <RCCEx_PLL3_Config>
 8004180:	4605      	mov	r5, r0
  if (((PeriphClkInit->PeriphClockSelection) & RCC_PERIPHCLK_LPTIM2) == RCC_PERIPHCLK_LPTIM2)
 8004182:	e9d4 3200 	ldrd	r3, r2, [r4]
    if (ret == HAL_OK)
 8004186:	2d00      	cmp	r5, #0
 8004188:	d1a8      	bne.n	80040dc <HAL_RCCEx_PeriphCLKConfig+0x980>
 800418a:	e520      	b.n	8003bce <HAL_RCCEx_PeriphCLKConfig+0x472>
        __HAL_RCC_PLLCLKOUT_ENABLE(RCC_PLL1_DIVQ);
 800418c:	4883      	ldr	r0, [pc, #524]	; (800439c <HAL_RCCEx_PeriphCLKConfig+0xc40>)
 800418e:	6ac1      	ldr	r1, [r0, #44]	; 0x2c
 8004190:	f441 3100 	orr.w	r1, r1, #131072	; 0x20000
 8004194:	62c1      	str	r1, [r0, #44]	; 0x2c
    if (ret == HAL_OK)
 8004196:	2d00      	cmp	r5, #0
 8004198:	d1a6      	bne.n	80040e8 <HAL_RCCEx_PeriphCLKConfig+0x98c>
 800419a:	e660      	b.n	8003e5e <HAL_RCCEx_PeriphCLKConfig+0x702>
        ret = RCCEx_PLL2_Config(&(PeriphClkInit->PLL2), DIVIDER_R_UPDATE);
 800419c:	2102      	movs	r1, #2
 800419e:	f104 0008 	add.w	r0, r4, #8
 80041a2:	f7ff f9e7 	bl	8003574 <RCCEx_PLL2_Config>
 80041a6:	4605      	mov	r5, r0
  if (((PeriphClkInit->PeriphClockSelection) & RCC_PERIPHCLK_RTC) == RCC_PERIPHCLK_RTC)
 80041a8:	e9d4 3200 	ldrd	r3, r2, [r4]
    if (ret == HAL_OK)
 80041ac:	2d00      	cmp	r5, #0
 80041ae:	d188      	bne.n	80040c2 <HAL_RCCEx_PeriphCLKConfig+0x966>
 80041b0:	e472      	b.n	8003a98 <HAL_RCCEx_PeriphCLKConfig+0x33c>
        ret = RCCEx_PLL3_Config(&(PeriphClkInit->PLL3), DIVIDER_R_UPDATE);
 80041b2:	2102      	movs	r1, #2
 80041b4:	f104 0028 	add.w	r0, r4, #40	; 0x28
 80041b8:	f7ff fa56 	bl	8003668 <RCCEx_PLL3_Config>
 80041bc:	4605      	mov	r5, r0
  if (((PeriphClkInit->PeriphClockSelection) & RCC_PERIPHCLK_LPTIM345) == RCC_PERIPHCLK_LPTIM345)
 80041be:	e9d4 3200 	ldrd	r3, r2, [r4]
    if (ret == HAL_OK)
 80041c2:	2d00      	cmp	r5, #0
 80041c4:	f47f af79 	bne.w	80040ba <HAL_RCCEx_PeriphCLKConfig+0x95e>
 80041c8:	e523      	b.n	8003c12 <HAL_RCCEx_PeriphCLKConfig+0x4b6>
        ret = RCCEx_PLL3_Config(&(PeriphClkInit->PLL3), DIVIDER_R_UPDATE);
 80041ca:	2102      	movs	r1, #2
 80041cc:	f104 0028 	add.w	r0, r4, #40	; 0x28
 80041d0:	f7ff fa4a 	bl	8003668 <RCCEx_PLL3_Config>
 80041d4:	4605      	mov	r5, r0
  if (((PeriphClkInit->PeriphClockSelection) & RCC_PERIPHCLK_I2C123) == RCC_PERIPHCLK_I2C123)
 80041d6:	e9d4 3200 	ldrd	r3, r2, [r4]
    if (ret == HAL_OK)
 80041da:	2d00      	cmp	r5, #0
 80041dc:	f47f af79 	bne.w	80040d2 <HAL_RCCEx_PeriphCLKConfig+0x976>
 80041e0:	e539      	b.n	8003c56 <HAL_RCCEx_PeriphCLKConfig+0x4fa>
        ret = RCCEx_PLL2_Config(&(PeriphClkInit->PLL2), DIVIDER_R_UPDATE);
 80041e2:	2102      	movs	r1, #2
 80041e4:	f104 0008 	add.w	r0, r4, #8
 80041e8:	f7ff f9c4 	bl	8003574 <RCCEx_PLL2_Config>
 80041ec:	4605      	mov	r5, r0
  if (((PeriphClkInit->PeriphClockSelection) & RCC_PERIPHCLK_SPI123) == RCC_PERIPHCLK_SPI123)
 80041ee:	e9d4 3200 	ldrd	r3, r2, [r4]
    if (ret == HAL_OK)
 80041f2:	2d00      	cmp	r5, #0
 80041f4:	f47f af6f 	bne.w	80040d6 <HAL_RCCEx_PeriphCLKConfig+0x97a>
 80041f8:	f7ff bb68 	b.w	80038cc <HAL_RCCEx_PeriphCLKConfig+0x170>
      if (RCCEx_PLL3_Config(&(PeriphClkInit->PLL3), DIVIDER_R_UPDATE) != HAL_OK)
 80041fc:	2102      	movs	r1, #2
 80041fe:	f104 0028 	add.w	r0, r4, #40	; 0x28
 8004202:	f7ff fa31 	bl	8003668 <RCCEx_PLL3_Config>
 8004206:	2800      	cmp	r0, #0
 8004208:	f040 808a 	bne.w	8004320 <HAL_RCCEx_PeriphCLKConfig+0xbc4>
    __HAL_RCC_I2C123_CONFIG(PeriphClkInit->I2c123ClockSelection);
 800420c:	f8d4 0088 	ldr.w	r0, [r4, #136]	; 0x88
  if (((PeriphClkInit->PeriphClockSelection) & RCC_PERIPHCLK_I2C4) == RCC_PERIPHCLK_I2C4)
 8004210:	e9d4 3200 	ldrd	r3, r2, [r4]
 8004214:	e52f      	b.n	8003c76 <HAL_RCCEx_PeriphCLKConfig+0x51a>
      if (RCCEx_PLL3_Config(&(PeriphClkInit->PLL3), DIVIDER_R_UPDATE) != HAL_OK)
 8004216:	2102      	movs	r1, #2
 8004218:	f104 0028 	add.w	r0, r4, #40	; 0x28
 800421c:	f7ff fa24 	bl	8003668 <RCCEx_PLL3_Config>
 8004220:	2800      	cmp	r0, #0
 8004222:	f040 8083 	bne.w	800432c <HAL_RCCEx_PeriphCLKConfig+0xbd0>
    __HAL_RCC_I2C4_CONFIG(PeriphClkInit->I2c4ClockSelection);
 8004226:	f8d4 009c 	ldr.w	r0, [r4, #156]	; 0x9c
  if (((PeriphClkInit->PeriphClockSelection) & RCC_PERIPHCLK_ADC) == RCC_PERIPHCLK_ADC)
 800422a:	e9d4 3200 	ldrd	r3, r2, [r4]
 800422e:	e530      	b.n	8003c92 <HAL_RCCEx_PeriphCLKConfig+0x536>
  if (((PeriphClkInit->PeriphClockSelection) & RCC_PERIPHCLK_SAI1) == RCC_PERIPHCLK_SAI1)
 8004230:	e9d4 3200 	ldrd	r3, r2, [r4]
 8004234:	f7ff bab9 	b.w	80037aa <HAL_RCCEx_PeriphCLKConfig+0x4e>
        ret = RCCEx_PLL3_Config(&(PeriphClkInit->PLL3), DIVIDER_R_UPDATE);
 8004238:	2102      	movs	r1, #2
 800423a:	3028      	adds	r0, #40	; 0x28
 800423c:	f7ff fa14 	bl	8003668 <RCCEx_PLL3_Config>
 8004240:	4606      	mov	r6, r0
    if (ret == HAL_OK)
 8004242:	2e00      	cmp	r6, #0
 8004244:	f43f aaa7 	beq.w	8003796 <HAL_RCCEx_PeriphCLKConfig+0x3a>
 8004248:	e7f2      	b.n	8004230 <HAL_RCCEx_PeriphCLKConfig+0xad4>
        ret = RCCEx_PLL3_Config(&(PeriphClkInit->PLL3), DIVIDER_P_UPDATE);
 800424a:	2100      	movs	r1, #0
 800424c:	f104 0028 	add.w	r0, r4, #40	; 0x28
 8004250:	f7ff fa0a 	bl	8003668 <RCCEx_PLL3_Config>
 8004254:	4605      	mov	r5, r0
  if (((PeriphClkInit->PeriphClockSelection) & RCC_PERIPHCLK_SAI4B) == RCC_PERIPHCLK_SAI4B)
 8004256:	e9d4 3200 	ldrd	r3, r2, [r4]
        break;
 800425a:	f7ff baf4 	b.w	8003846 <HAL_RCCEx_PeriphCLKConfig+0xea>
        ret = RCCEx_PLL3_Config(&(PeriphClkInit->PLL3), DIVIDER_P_UPDATE);
 800425e:	2100      	movs	r1, #0
 8004260:	f104 0028 	add.w	r0, r4, #40	; 0x28
 8004264:	f7ff fa00 	bl	8003668 <RCCEx_PLL3_Config>
 8004268:	4605      	mov	r5, r0
  if (((PeriphClkInit->PeriphClockSelection) & RCC_PERIPHCLK_QSPI) == RCC_PERIPHCLK_QSPI)
 800426a:	e9d4 3200 	ldrd	r3, r2, [r4]
        break;
 800426e:	f7ff bb0e 	b.w	800388e <HAL_RCCEx_PeriphCLKConfig+0x132>
        ret = RCCEx_PLL3_Config(&(PeriphClkInit->PLL3), DIVIDER_P_UPDATE);
 8004272:	2100      	movs	r1, #0
 8004274:	f104 0028 	add.w	r0, r4, #40	; 0x28
 8004278:	f7ff f9f6 	bl	8003668 <RCCEx_PLL3_Config>
 800427c:	4605      	mov	r5, r0
  if (((PeriphClkInit->PeriphClockSelection) & RCC_PERIPHCLK_SAI4A) == RCC_PERIPHCLK_SAI4A)
 800427e:	e9d4 3200 	ldrd	r3, r2, [r4]
        break;
 8004282:	f7ff babd 	b.w	8003800 <HAL_RCCEx_PeriphCLKConfig+0xa4>
        ret = RCCEx_PLL3_Config(&(PeriphClkInit->PLL3), DIVIDER_P_UPDATE);
 8004286:	2100      	movs	r1, #0
 8004288:	f104 0028 	add.w	r0, r4, #40	; 0x28
 800428c:	f7ff f9ec 	bl	8003668 <RCCEx_PLL3_Config>
 8004290:	4605      	mov	r5, r0
  if (((PeriphClkInit->PeriphClockSelection) & RCC_PERIPHCLK_SPI45) == RCC_PERIPHCLK_SPI45)
 8004292:	e9d4 3200 	ldrd	r3, r2, [r4]
        break;
 8004296:	f7ff bb38 	b.w	800390a <HAL_RCCEx_PeriphCLKConfig+0x1ae>
        __HAL_RCC_PLLCLKOUT_ENABLE(RCC_PLL1_DIVQ);
 800429a:	4840      	ldr	r0, [pc, #256]	; (800439c <HAL_RCCEx_PeriphCLKConfig+0xc40>)
        break;
 800429c:	4635      	mov	r5, r6
        __HAL_RCC_PLLCLKOUT_ENABLE(RCC_PLL1_DIVQ);
 800429e:	6ac1      	ldr	r1, [r0, #44]	; 0x2c
 80042a0:	f441 3100 	orr.w	r1, r1, #131072	; 0x20000
 80042a4:	62c1      	str	r1, [r0, #44]	; 0x2c
        break;
 80042a6:	e5c1      	b.n	8003e2c <HAL_RCCEx_PeriphCLKConfig+0x6d0>
        ret = RCCEx_PLL2_Config(&(PeriphClkInit->PLL2), DIVIDER_P_UPDATE);
 80042a8:	2100      	movs	r1, #0
 80042aa:	f104 0008 	add.w	r0, r4, #8
 80042ae:	f7ff f961 	bl	8003574 <RCCEx_PLL2_Config>
 80042b2:	4605      	mov	r5, r0
  if (((PeriphClkInit->PeriphClockSelection) & RCC_PERIPHCLK_SAI23) == RCC_PERIPHCLK_SAI23)
 80042b4:	e9d4 3200 	ldrd	r3, r2, [r4]
        break;
 80042b8:	e5b8      	b.n	8003e2c <HAL_RCCEx_PeriphCLKConfig+0x6d0>
        ret = RCCEx_PLL3_Config(&(PeriphClkInit->PLL3), DIVIDER_P_UPDATE);
 80042ba:	2100      	movs	r1, #0
 80042bc:	f104 0028 	add.w	r0, r4, #40	; 0x28
 80042c0:	f7ff f9d2 	bl	8003668 <RCCEx_PLL3_Config>
 80042c4:	4605      	mov	r5, r0
  if (((PeriphClkInit->PeriphClockSelection) & RCC_PERIPHCLK_SAI23) == RCC_PERIPHCLK_SAI23)
 80042c6:	e9d4 3200 	ldrd	r3, r2, [r4]
        break;
 80042ca:	e5af      	b.n	8003e2c <HAL_RCCEx_PeriphCLKConfig+0x6d0>
        ret = RCCEx_PLL3_Config(&(PeriphClkInit->PLL3), DIVIDER_Q_UPDATE);
 80042cc:	2101      	movs	r1, #1
 80042ce:	f104 0028 	add.w	r0, r4, #40	; 0x28
 80042d2:	f7ff f9c9 	bl	8003668 <RCCEx_PLL3_Config>
 80042d6:	4605      	mov	r5, r0
  if (((PeriphClkInit->PeriphClockSelection) & RCC_PERIPHCLK_LPUART1) == RCC_PERIPHCLK_LPUART1)
 80042d8:	e9d4 3200 	ldrd	r3, r2, [r4]
    if (ret == HAL_OK)
 80042dc:	2d00      	cmp	r5, #0
 80042de:	f47f aef2 	bne.w	80040c6 <HAL_RCCEx_PeriphCLKConfig+0x96a>
 80042e2:	e42f      	b.n	8003b44 <HAL_RCCEx_PeriphCLKConfig+0x3e8>
        ret = RCCEx_PLL3_Config(&(PeriphClkInit->PLL3), DIVIDER_Q_UPDATE);
 80042e4:	2101      	movs	r1, #1
 80042e6:	f104 0028 	add.w	r0, r4, #40	; 0x28
 80042ea:	f7ff f9bd 	bl	8003668 <RCCEx_PLL3_Config>
 80042ee:	4605      	mov	r5, r0
  if (((PeriphClkInit->PeriphClockSelection) & RCC_PERIPHCLK_LPTIM1) == RCC_PERIPHCLK_LPTIM1)
 80042f0:	e9d4 3200 	ldrd	r3, r2, [r4]
    if (ret == HAL_OK)
 80042f4:	2d00      	cmp	r5, #0
 80042f6:	f47f aee8 	bne.w	80040ca <HAL_RCCEx_PeriphCLKConfig+0x96e>
 80042fa:	e446      	b.n	8003b8a <HAL_RCCEx_PeriphCLKConfig+0x42e>
        ret = RCCEx_PLL3_Config(&(PeriphClkInit->PLL3), DIVIDER_Q_UPDATE);
 80042fc:	2101      	movs	r1, #1
 80042fe:	f104 0028 	add.w	r0, r4, #40	; 0x28
 8004302:	f7ff f9b1 	bl	8003668 <RCCEx_PLL3_Config>
 8004306:	4605      	mov	r5, r0
  if (((PeriphClkInit->PeriphClockSelection) & RCC_PERIPHCLK_USART234578) == RCC_PERIPHCLK_USART234578)
 8004308:	e9d4 3200 	ldrd	r3, r2, [r4]
    if (ret == HAL_OK)
 800430c:	2d00      	cmp	r5, #0
 800430e:	f47f aed2 	bne.w	80040b6 <HAL_RCCEx_PeriphCLKConfig+0x95a>
 8004312:	e5f2      	b.n	8003efa <HAL_RCCEx_PeriphCLKConfig+0x79e>
        status = ret;
 8004314:	2603      	movs	r6, #3
  if (((PeriphClkInit->PeriphClockSelection) & RCC_PERIPHCLK_USART16) == RCC_PERIPHCLK_USART16)
 8004316:	e9d4 3200 	ldrd	r3, r2, [r4]
 800431a:	4635      	mov	r5, r6
 800431c:	f7ff bbc6 	b.w	8003aac <HAL_RCCEx_PeriphCLKConfig+0x350>
    __HAL_RCC_I2C123_CONFIG(PeriphClkInit->I2c123ClockSelection);
 8004320:	f8d4 0088 	ldr.w	r0, [r4, #136]	; 0x88
        status = HAL_ERROR;
 8004324:	2601      	movs	r6, #1
  if (((PeriphClkInit->PeriphClockSelection) & RCC_PERIPHCLK_I2C4) == RCC_PERIPHCLK_I2C4)
 8004326:	e9d4 3200 	ldrd	r3, r2, [r4]
 800432a:	e4a4      	b.n	8003c76 <HAL_RCCEx_PeriphCLKConfig+0x51a>
    __HAL_RCC_I2C4_CONFIG(PeriphClkInit->I2c4ClockSelection);
 800432c:	f8d4 009c 	ldr.w	r0, [r4, #156]	; 0x9c
        status = HAL_ERROR;
 8004330:	2601      	movs	r6, #1
  if (((PeriphClkInit->PeriphClockSelection) & RCC_PERIPHCLK_ADC) == RCC_PERIPHCLK_ADC)
 8004332:	e9d4 3200 	ldrd	r3, r2, [r4]
 8004336:	e4ac      	b.n	8003c92 <HAL_RCCEx_PeriphCLKConfig+0x536>
        tickstart = HAL_GetTick();
 8004338:	f7fc ff06 	bl	8001148 <HAL_GetTick>
        while (__HAL_RCC_GET_FLAG(RCC_FLAG_LSERDY) == 0U)
 800433c:	f8df 805c 	ldr.w	r8, [pc, #92]	; 800439c <HAL_RCCEx_PeriphCLKConfig+0xc40>
        tickstart = HAL_GetTick();
 8004340:	4607      	mov	r7, r0
          if ((HAL_GetTick() - tickstart) > RCC_LSE_TIMEOUT_VALUE)
 8004342:	f241 3988 	movw	r9, #5000	; 0x1388
        while (__HAL_RCC_GET_FLAG(RCC_FLAG_LSERDY) == 0U)
 8004346:	e004      	b.n	8004352 <HAL_RCCEx_PeriphCLKConfig+0xbf6>
          if ((HAL_GetTick() - tickstart) > RCC_LSE_TIMEOUT_VALUE)
 8004348:	f7fc fefe 	bl	8001148 <HAL_GetTick>
 800434c:	1bc0      	subs	r0, r0, r7
 800434e:	4548      	cmp	r0, r9
 8004350:	d8e0      	bhi.n	8004314 <HAL_RCCEx_PeriphCLKConfig+0xbb8>
        while (__HAL_RCC_GET_FLAG(RCC_FLAG_LSERDY) == 0U)
 8004352:	f8d8 3070 	ldr.w	r3, [r8, #112]	; 0x70
 8004356:	079b      	lsls	r3, r3, #30
 8004358:	d5f6      	bpl.n	8004348 <HAL_RCCEx_PeriphCLKConfig+0xbec>
        __HAL_RCC_RTC_CONFIG(PeriphClkInit->RTCClockSelection);
 800435a:	f8d4 30b8 	ldr.w	r3, [r4, #184]	; 0xb8
 800435e:	e612      	b.n	8003f86 <HAL_RCCEx_PeriphCLKConfig+0x82a>
 8004360:	480e      	ldr	r0, [pc, #56]	; (800439c <HAL_RCCEx_PeriphCLKConfig+0xc40>)
 8004362:	4a0f      	ldr	r2, [pc, #60]	; (80043a0 <HAL_RCCEx_PeriphCLKConfig+0xc44>)
 8004364:	6901      	ldr	r1, [r0, #16]
 8004366:	ea02 1213 	and.w	r2, r2, r3, lsr #4
 800436a:	f421 517c 	bic.w	r1, r1, #16128	; 0x3f00
 800436e:	430a      	orrs	r2, r1
 8004370:	6102      	str	r2, [r0, #16]
 8004372:	e613      	b.n	8003f9c <HAL_RCCEx_PeriphCLKConfig+0x840>
  if (((PeriphClkInit->PeriphClockSelection) & RCC_PERIPHCLK_USART16) == RCC_PERIPHCLK_USART16)
 8004374:	e9d4 3200 	ldrd	r3, r2, [r4]
 8004378:	462e      	mov	r6, r5
 800437a:	f7ff bb97 	b.w	8003aac <HAL_RCCEx_PeriphCLKConfig+0x350>
    switch (PeriphClkInit->Usart234578ClockSelection)
 800437e:	2601      	movs	r6, #1
 8004380:	4635      	mov	r5, r6
 8004382:	f7ff bbe6 	b.w	8003b52 <HAL_RCCEx_PeriphCLKConfig+0x3f6>
    switch (PeriphClkInit->FmcClockSelection)
 8004386:	2601      	movs	r6, #1
 8004388:	4635      	mov	r5, r6
 800438a:	f7ff bb8c 	b.w	8003aa6 <HAL_RCCEx_PeriphCLKConfig+0x34a>
    switch (PeriphClkInit->Lpuart1ClockSelection)
 800438e:	2601      	movs	r6, #1
 8004390:	4635      	mov	r5, r6
 8004392:	e402      	b.n	8003b9a <HAL_RCCEx_PeriphCLKConfig+0x43e>
    switch (PeriphClkInit->Sai1ClockSelection)
 8004394:	2601      	movs	r6, #1
 8004396:	f7ff ba1c 	b.w	80037d2 <HAL_RCCEx_PeriphCLKConfig+0x76>
 800439a:	bf00      	nop
 800439c:	58024400 	.word	0x58024400
 80043a0:	00ffffcf 	.word	0x00ffffcf

080043a4 <HAL_RCCEx_GetPLL2ClockFreq>:
  pllsource = (RCC->PLLCKSELR & RCC_PLLCKSELR_PLLSRC);
 80043a4:	4a50      	ldr	r2, [pc, #320]	; (80044e8 <HAL_RCCEx_GetPLL2ClockFreq+0x144>)
{
 80043a6:	b470      	push	{r4, r5, r6}
  pllsource = (RCC->PLLCKSELR & RCC_PLLCKSELR_PLLSRC);
 80043a8:	6a91      	ldr	r1, [r2, #40]	; 0x28
  pll2m = ((RCC->PLLCKSELR & RCC_PLLCKSELR_DIVM2) >> 12);
 80043aa:	6a95      	ldr	r5, [r2, #40]	; 0x28
  pll2fracen = (RCC->PLLCFGR & RCC_PLLCFGR_PLL2FRACEN) >> RCC_PLLCFGR_PLL2FRACEN_Pos;
 80043ac:	6ad6      	ldr	r6, [r2, #44]	; 0x2c
  if (pll2m != 0U)
 80043ae:	f415 3f7c 	tst.w	r5, #258048	; 0x3f000
  pll2m = ((RCC->PLLCKSELR & RCC_PLLCKSELR_DIVM2) >> 12);
 80043b2:	f3c5 3305 	ubfx	r3, r5, #12, #6
  fracn2 = (float_t)(uint32_t)(pll2fracen * ((RCC->PLL2FRACR & RCC_PLL2FRACR_FRACN2) >> 3));
 80043b6:	6bd4      	ldr	r4, [r2, #60]	; 0x3c
  if (pll2m != 0U)
 80043b8:	d05d      	beq.n	8004476 <HAL_RCCEx_GetPLL2ClockFreq+0xd2>
  fracn2 = (float_t)(uint32_t)(pll2fracen * ((RCC->PLL2FRACR & RCC_PLL2FRACR_FRACN2) >> 3));
 80043ba:	f3c4 04cc 	ubfx	r4, r4, #3, #13
  pll2fracen = (RCC->PLLCFGR & RCC_PLLCFGR_PLL2FRACEN) >> RCC_PLLCFGR_PLL2FRACEN_Pos;
 80043be:	f3c6 1600 	ubfx	r6, r6, #4, #1
  pllsource = (RCC->PLLCKSELR & RCC_PLLCKSELR_PLLSRC);
 80043c2:	f001 0103 	and.w	r1, r1, #3
  fracn2 = (float_t)(uint32_t)(pll2fracen * ((RCC->PLL2FRACR & RCC_PLL2FRACR_FRACN2) >> 3));
 80043c6:	fb06 f404 	mul.w	r4, r6, r4
    switch (pllsource)
 80043ca:	2901      	cmp	r1, #1
  fracn2 = (float_t)(uint32_t)(pll2fracen * ((RCC->PLL2FRACR & RCC_PLL2FRACR_FRACN2) >> 3));
 80043cc:	ee07 4a90 	vmov	s15, r4
 80043d0:	eeb8 7ae7 	vcvt.f32.s32	s14, s15
    switch (pllsource)
 80043d4:	d003      	beq.n	80043de <HAL_RCCEx_GetPLL2ClockFreq+0x3a>
 80043d6:	2902      	cmp	r1, #2
 80043d8:	d078      	beq.n	80044cc <HAL_RCCEx_GetPLL2ClockFreq+0x128>
 80043da:	2900      	cmp	r1, #0
 80043dc:	d050      	beq.n	8004480 <HAL_RCCEx_GetPLL2ClockFreq+0xdc>
        pll2vco = ((float_t)CSI_VALUE / (float_t)pll2m) * ((float_t)(uint32_t)(RCC->PLL2DIVR & RCC_PLL2DIVR_N2) + (fracn2 / (float_t)0x2000) + (float_t)1);
 80043de:	ee07 3a90 	vmov	s15, r3
 80043e2:	ed9f 5a42 	vldr	s10, [pc, #264]	; 80044ec <HAL_RCCEx_GetPLL2ClockFreq+0x148>
 80043e6:	eef8 7ae7 	vcvt.f32.s32	s15, s15
 80043ea:	6b93      	ldr	r3, [r2, #56]	; 0x38
 80043ec:	eec5 6a27 	vdiv.f32	s13, s10, s15
 80043f0:	ed9f 6a3f 	vldr	s12, [pc, #252]	; 80044f0 <HAL_RCCEx_GetPLL2ClockFreq+0x14c>
 80043f4:	f3c3 0308 	ubfx	r3, r3, #0, #9
 80043f8:	ee07 3a90 	vmov	s15, r3
 80043fc:	eef7 5a00 	vmov.f32	s11, #112	; 0x3f800000  1.0
 8004400:	eef8 7ae7 	vcvt.f32.s32	s15, s15
 8004404:	ee77 7aa5 	vadd.f32	s15, s15, s11
 8004408:	eee7 7a06 	vfma.f32	s15, s14, s12
 800440c:	ee66 6aa7 	vmul.f32	s13, s13, s15
    PLL2_Clocks->PLL2_P_Frequency = (uint32_t)(float_t)(pll2vco / ((float_t)(uint32_t)((RCC->PLL2DIVR & RCC_PLL2DIVR_P2) >> 9)  + (float_t)1)) ;
 8004410:	4a35      	ldr	r2, [pc, #212]	; (80044e8 <HAL_RCCEx_GetPLL2ClockFreq+0x144>)
 8004412:	eeb7 6a00 	vmov.f32	s12, #112	; 0x3f800000  1.0
 8004416:	6b93      	ldr	r3, [r2, #56]	; 0x38
 8004418:	f3c3 2346 	ubfx	r3, r3, #9, #7
 800441c:	ee07 3a90 	vmov	s15, r3
 8004420:	eef8 7ae7 	vcvt.f32.s32	s15, s15
}
 8004424:	bc70      	pop	{r4, r5, r6}
    PLL2_Clocks->PLL2_P_Frequency = (uint32_t)(float_t)(pll2vco / ((float_t)(uint32_t)((RCC->PLL2DIVR & RCC_PLL2DIVR_P2) >> 9)  + (float_t)1)) ;
 8004426:	ee77 7a86 	vadd.f32	s15, s15, s12
 800442a:	ee86 7aa7 	vdiv.f32	s14, s13, s15
 800442e:	eebc 7ac7 	vcvt.u32.f32	s14, s14
 8004432:	ed80 7a00 	vstr	s14, [r0]
    PLL2_Clocks->PLL2_Q_Frequency = (uint32_t)(float_t)(pll2vco / ((float_t)(uint32_t)((RCC->PLL2DIVR & RCC_PLL2DIVR_Q2) >> 16) + (float_t)1)) ;
 8004436:	6b93      	ldr	r3, [r2, #56]	; 0x38
 8004438:	f3c3 4306 	ubfx	r3, r3, #16, #7
 800443c:	ee07 3a90 	vmov	s15, r3
 8004440:	eef8 7ae7 	vcvt.f32.s32	s15, s15
 8004444:	ee77 7a86 	vadd.f32	s15, s15, s12
 8004448:	ee86 7aa7 	vdiv.f32	s14, s13, s15
 800444c:	eebc 7ac7 	vcvt.u32.f32	s14, s14
 8004450:	ed80 7a01 	vstr	s14, [r0, #4]
    PLL2_Clocks->PLL2_R_Frequency = (uint32_t)(float_t)(pll2vco / ((float_t)(uint32_t)((RCC->PLL2DIVR & RCC_PLL2DIVR_R2) >> 24) + (float_t)1)) ;
 8004454:	6b93      	ldr	r3, [r2, #56]	; 0x38
 8004456:	f3c3 6306 	ubfx	r3, r3, #24, #7
 800445a:	ee07 3a10 	vmov	s14, r3
 800445e:	eeb8 7ac7 	vcvt.f32.s32	s14, s14
 8004462:	ee37 7a06 	vadd.f32	s14, s14, s12
 8004466:	eec6 7a87 	vdiv.f32	s15, s13, s14
 800446a:	eefc 7ae7 	vcvt.u32.f32	s15, s15
 800446e:	ee17 3a90 	vmov	r3, s15
 8004472:	6083      	str	r3, [r0, #8]
}
 8004474:	4770      	bx	lr
 8004476:	bc70      	pop	{r4, r5, r6}
    PLL2_Clocks->PLL2_Q_Frequency = 0U;
 8004478:	e9c0 3300 	strd	r3, r3, [r0]
    PLL2_Clocks->PLL2_R_Frequency = (uint32_t)(float_t)(pll2vco / ((float_t)(uint32_t)((RCC->PLL2DIVR & RCC_PLL2DIVR_R2) >> 24) + (float_t)1)) ;
 800447c:	6083      	str	r3, [r0, #8]
}
 800447e:	4770      	bx	lr
        if (__HAL_RCC_GET_FLAG(RCC_FLAG_HSIDIV) != 0U)
 8004480:	6811      	ldr	r1, [r2, #0]
 8004482:	0689      	lsls	r1, r1, #26
 8004484:	d529      	bpl.n	80044da <HAL_RCCEx_GetPLL2ClockFreq+0x136>
          hsivalue = (HSI_VALUE >> (__HAL_RCC_GET_HSI_DIVIDER() >> 3));
 8004486:	6814      	ldr	r4, [r2, #0]
          pll2vco = ((float_t)hsivalue / (float_t)pll2m) * ((float_t)(uint32_t)(RCC->PLL2DIVR & RCC_PLL2DIVR_N2) + (fracn2 / (float_t)0x2000) + (float_t)1);
 8004488:	ee07 3a90 	vmov	s15, r3
          hsivalue = (HSI_VALUE >> (__HAL_RCC_GET_HSI_DIVIDER() >> 3));
 800448c:	4919      	ldr	r1, [pc, #100]	; (80044f4 <HAL_RCCEx_GetPLL2ClockFreq+0x150>)
          pll2vco = ((float_t)hsivalue / (float_t)pll2m) * ((float_t)(uint32_t)(RCC->PLL2DIVR & RCC_PLL2DIVR_N2) + (fracn2 / (float_t)0x2000) + (float_t)1);
 800448e:	eef7 6a00 	vmov.f32	s13, #112	; 0x3f800000  1.0
 8004492:	6b93      	ldr	r3, [r2, #56]	; 0x38
          hsivalue = (HSI_VALUE >> (__HAL_RCC_GET_HSI_DIVIDER() >> 3));
 8004494:	f3c4 02c1 	ubfx	r2, r4, #3, #2
          pll2vco = ((float_t)hsivalue / (float_t)pll2m) * ((float_t)(uint32_t)(RCC->PLL2DIVR & RCC_PLL2DIVR_N2) + (fracn2 / (float_t)0x2000) + (float_t)1);
 8004498:	eef8 7ae7 	vcvt.f32.s32	s15, s15
 800449c:	ed9f 5a14 	vldr	s10, [pc, #80]	; 80044f0 <HAL_RCCEx_GetPLL2ClockFreq+0x14c>
 80044a0:	f3c3 0308 	ubfx	r3, r3, #0, #9
          hsivalue = (HSI_VALUE >> (__HAL_RCC_GET_HSI_DIVIDER() >> 3));
 80044a4:	40d1      	lsrs	r1, r2
          pll2vco = ((float_t)hsivalue / (float_t)pll2m) * ((float_t)(uint32_t)(RCC->PLL2DIVR & RCC_PLL2DIVR_N2) + (fracn2 / (float_t)0x2000) + (float_t)1);
 80044a6:	ee06 3a10 	vmov	s12, r3
 80044aa:	ee05 1a90 	vmov	s11, r1
 80044ae:	eeb8 6ac6 	vcvt.f32.s32	s12, s12
 80044b2:	eef8 5ae5 	vcvt.f32.s32	s11, s11
 80044b6:	ee36 6a26 	vadd.f32	s12, s12, s13
 80044ba:	eec5 6aa7 	vdiv.f32	s13, s11, s15
 80044be:	eef0 7a46 	vmov.f32	s15, s12
 80044c2:	eee7 7a05 	vfma.f32	s15, s14, s10
 80044c6:	ee66 6aa7 	vmul.f32	s13, s13, s15
 80044ca:	e7a1      	b.n	8004410 <HAL_RCCEx_GetPLL2ClockFreq+0x6c>
        pll2vco = ((float_t)HSE_VALUE / (float_t)pll2m) * ((float_t)(uint32_t)(RCC->PLL2DIVR & RCC_PLL2DIVR_N2) + (fracn2 / (float_t)0x2000) + (float_t)1);
 80044cc:	ee07 3a90 	vmov	s15, r3
 80044d0:	ed9f 5a09 	vldr	s10, [pc, #36]	; 80044f8 <HAL_RCCEx_GetPLL2ClockFreq+0x154>
 80044d4:	eef8 7ae7 	vcvt.f32.s32	s15, s15
 80044d8:	e787      	b.n	80043ea <HAL_RCCEx_GetPLL2ClockFreq+0x46>
          pll2vco = ((float_t)HSI_VALUE / (float_t)pll2m) * ((float_t)(uint32_t)(RCC->PLL2DIVR & RCC_PLL2DIVR_N2) + (fracn2 / (float_t)0x2000) + (float_t)1);
 80044da:	ee07 3a90 	vmov	s15, r3
 80044de:	ed9f 5a07 	vldr	s10, [pc, #28]	; 80044fc <HAL_RCCEx_GetPLL2ClockFreq+0x158>
 80044e2:	eef8 7ae7 	vcvt.f32.s32	s15, s15
 80044e6:	e780      	b.n	80043ea <HAL_RCCEx_GetPLL2ClockFreq+0x46>
 80044e8:	58024400 	.word	0x58024400
 80044ec:	4a742400 	.word	0x4a742400
 80044f0:	39000000 	.word	0x39000000
 80044f4:	03d09000 	.word	0x03d09000
 80044f8:	4bbebc20 	.word	0x4bbebc20
 80044fc:	4c742400 	.word	0x4c742400

08004500 <HAL_RCCEx_GetPLL3ClockFreq>:
  pllsource = (RCC->PLLCKSELR & RCC_PLLCKSELR_PLLSRC);
 8004500:	4a50      	ldr	r2, [pc, #320]	; (8004644 <HAL_RCCEx_GetPLL3ClockFreq+0x144>)
{
 8004502:	b470      	push	{r4, r5, r6}
  pllsource = (RCC->PLLCKSELR & RCC_PLLCKSELR_PLLSRC);
 8004504:	6a91      	ldr	r1, [r2, #40]	; 0x28
  pll3m = ((RCC->PLLCKSELR & RCC_PLLCKSELR_DIVM3) >> 20)  ;
 8004506:	6a95      	ldr	r5, [r2, #40]	; 0x28
  pll3fracen = (RCC->PLLCFGR & RCC_PLLCFGR_PLL3FRACEN) >> RCC_PLLCFGR_PLL3FRACEN_Pos;
 8004508:	6ad6      	ldr	r6, [r2, #44]	; 0x2c
  if (pll3m != 0U)
 800450a:	f015 7f7c 	tst.w	r5, #66060288	; 0x3f00000
  pll3m = ((RCC->PLLCKSELR & RCC_PLLCKSELR_DIVM3) >> 20)  ;
 800450e:	f3c5 5305 	ubfx	r3, r5, #20, #6
  fracn3 = (float_t)(uint32_t)(pll3fracen * ((RCC->PLL3FRACR & RCC_PLL3FRACR_FRACN3) >> 3));
 8004512:	6c54      	ldr	r4, [r2, #68]	; 0x44
  if (pll3m != 0U)
 8004514:	d05d      	beq.n	80045d2 <HAL_RCCEx_GetPLL3ClockFreq+0xd2>
  fracn3 = (float_t)(uint32_t)(pll3fracen * ((RCC->PLL3FRACR & RCC_PLL3FRACR_FRACN3) >> 3));
 8004516:	f3c4 04cc 	ubfx	r4, r4, #3, #13
  pll3fracen = (RCC->PLLCFGR & RCC_PLLCFGR_PLL3FRACEN) >> RCC_PLLCFGR_PLL3FRACEN_Pos;
 800451a:	f3c6 2600 	ubfx	r6, r6, #8, #1
  pllsource = (RCC->PLLCKSELR & RCC_PLLCKSELR_PLLSRC);
 800451e:	f001 0103 	and.w	r1, r1, #3
  fracn3 = (float_t)(uint32_t)(pll3fracen * ((RCC->PLL3FRACR & RCC_PLL3FRACR_FRACN3) >> 3));
 8004522:	fb06 f404 	mul.w	r4, r6, r4
    switch (pllsource)
 8004526:	2901      	cmp	r1, #1
  fracn3 = (float_t)(uint32_t)(pll3fracen * ((RCC->PLL3FRACR & RCC_PLL3FRACR_FRACN3) >> 3));
 8004528:	ee07 4a90 	vmov	s15, r4
 800452c:	eeb8 7ae7 	vcvt.f32.s32	s14, s15
    switch (pllsource)
 8004530:	d003      	beq.n	800453a <HAL_RCCEx_GetPLL3ClockFreq+0x3a>
 8004532:	2902      	cmp	r1, #2
 8004534:	d078      	beq.n	8004628 <HAL_RCCEx_GetPLL3ClockFreq+0x128>
 8004536:	2900      	cmp	r1, #0
 8004538:	d050      	beq.n	80045dc <HAL_RCCEx_GetPLL3ClockFreq+0xdc>
        pll3vco = ((float_t)CSI_VALUE / (float_t)pll3m) * ((float_t)(uint32_t)(RCC->PLL3DIVR & RCC_PLL3DIVR_N3) + (fracn3 / (float_t)0x2000) + (float_t)1);
 800453a:	ee07 3a90 	vmov	s15, r3
 800453e:	ed9f 5a42 	vldr	s10, [pc, #264]	; 8004648 <HAL_RCCEx_GetPLL3ClockFreq+0x148>
 8004542:	eef8 7ae7 	vcvt.f32.s32	s15, s15
 8004546:	6c13      	ldr	r3, [r2, #64]	; 0x40
 8004548:	eec5 6a27 	vdiv.f32	s13, s10, s15
 800454c:	ed9f 6a3f 	vldr	s12, [pc, #252]	; 800464c <HAL_RCCEx_GetPLL3ClockFreq+0x14c>
 8004550:	f3c3 0308 	ubfx	r3, r3, #0, #9
 8004554:	ee07 3a90 	vmov	s15, r3
 8004558:	eef7 5a00 	vmov.f32	s11, #112	; 0x3f800000  1.0
 800455c:	eef8 7ae7 	vcvt.f32.s32	s15, s15
 8004560:	ee77 7aa5 	vadd.f32	s15, s15, s11
 8004564:	eee7 7a06 	vfma.f32	s15, s14, s12
 8004568:	ee66 6aa7 	vmul.f32	s13, s13, s15
    PLL3_Clocks->PLL3_P_Frequency = (uint32_t)(float_t)(pll3vco / ((float_t)(uint32_t)((RCC->PLL3DIVR & RCC_PLL3DIVR_P3) >> 9)  + (float_t)1)) ;
 800456c:	4a35      	ldr	r2, [pc, #212]	; (8004644 <HAL_RCCEx_GetPLL3ClockFreq+0x144>)
 800456e:	eeb7 6a00 	vmov.f32	s12, #112	; 0x3f800000  1.0
 8004572:	6c13      	ldr	r3, [r2, #64]	; 0x40
 8004574:	f3c3 2346 	ubfx	r3, r3, #9, #7
 8004578:	ee07 3a90 	vmov	s15, r3
 800457c:	eef8 7ae7 	vcvt.f32.s32	s15, s15
}
 8004580:	bc70      	pop	{r4, r5, r6}
    PLL3_Clocks->PLL3_P_Frequency = (uint32_t)(float_t)(pll3vco / ((float_t)(uint32_t)((RCC->PLL3DIVR & RCC_PLL3DIVR_P3) >> 9)  + (float_t)1)) ;
 8004582:	ee77 7a86 	vadd.f32	s15, s15, s12
 8004586:	ee86 7aa7 	vdiv.f32	s14, s13, s15
 800458a:	eebc 7ac7 	vcvt.u32.f32	s14, s14
 800458e:	ed80 7a00 	vstr	s14, [r0]
    PLL3_Clocks->PLL3_Q_Frequency = (uint32_t)(float_t)(pll3vco / ((float_t)(uint32_t)((RCC->PLL3DIVR & RCC_PLL3DIVR_Q3) >> 16) + (float_t)1)) ;
 8004592:	6c13      	ldr	r3, [r2, #64]	; 0x40
 8004594:	f3c3 4306 	ubfx	r3, r3, #16, #7
 8004598:	ee07 3a90 	vmov	s15, r3
 800459c:	eef8 7ae7 	vcvt.f32.s32	s15, s15
 80045a0:	ee77 7a86 	vadd.f32	s15, s15, s12
 80045a4:	ee86 7aa7 	vdiv.f32	s14, s13, s15
 80045a8:	eebc 7ac7 	vcvt.u32.f32	s14, s14
 80045ac:	ed80 7a01 	vstr	s14, [r0, #4]
    PLL3_Clocks->PLL3_R_Frequency = (uint32_t)(float_t)(pll3vco / ((float_t)(uint32_t)((RCC->PLL3DIVR & RCC_PLL3DIVR_R3) >> 24) + (float_t)1)) ;
 80045b0:	6c13      	ldr	r3, [r2, #64]	; 0x40
 80045b2:	f3c3 6306 	ubfx	r3, r3, #24, #7
 80045b6:	ee07 3a10 	vmov	s14, r3
 80045ba:	eeb8 7ac7 	vcvt.f32.s32	s14, s14
 80045be:	ee37 7a06 	vadd.f32	s14, s14, s12
 80045c2:	eec6 7a87 	vdiv.f32	s15, s13, s14
 80045c6:	eefc 7ae7 	vcvt.u32.f32	s15, s15
 80045ca:	ee17 3a90 	vmov	r3, s15
 80045ce:	6083      	str	r3, [r0, #8]
}
 80045d0:	4770      	bx	lr
 80045d2:	bc70      	pop	{r4, r5, r6}
    PLL3_Clocks->PLL3_Q_Frequency = 0U;
 80045d4:	e9c0 3300 	strd	r3, r3, [r0]
    PLL3_Clocks->PLL3_R_Frequency = (uint32_t)(float_t)(pll3vco / ((float_t)(uint32_t)((RCC->PLL3DIVR & RCC_PLL3DIVR_R3) >> 24) + (float_t)1)) ;
 80045d8:	6083      	str	r3, [r0, #8]
}
 80045da:	4770      	bx	lr
        if (__HAL_RCC_GET_FLAG(RCC_FLAG_HSIDIV) != 0U)
 80045dc:	6811      	ldr	r1, [r2, #0]
 80045de:	0689      	lsls	r1, r1, #26
 80045e0:	d529      	bpl.n	8004636 <HAL_RCCEx_GetPLL3ClockFreq+0x136>
          hsivalue = (HSI_VALUE >> (__HAL_RCC_GET_HSI_DIVIDER() >> 3));
 80045e2:	6814      	ldr	r4, [r2, #0]
          pll3vco = ((float_t)hsivalue / (float_t)pll3m) * ((float_t)(uint32_t)(RCC->PLL3DIVR & RCC_PLL3DIVR_N3) + (fracn3 / (float_t)0x2000) + (float_t)1);
 80045e4:	ee07 3a90 	vmov	s15, r3
          hsivalue = (HSI_VALUE >> (__HAL_RCC_GET_HSI_DIVIDER() >> 3));
 80045e8:	4919      	ldr	r1, [pc, #100]	; (8004650 <HAL_RCCEx_GetPLL3ClockFreq+0x150>)
          pll3vco = ((float_t)hsivalue / (float_t)pll3m) * ((float_t)(uint32_t)(RCC->PLL3DIVR & RCC_PLL3DIVR_N3) + (fracn3 / (float_t)0x2000) + (float_t)1);
 80045ea:	eef7 6a00 	vmov.f32	s13, #112	; 0x3f800000  1.0
 80045ee:	6c13      	ldr	r3, [r2, #64]	; 0x40
          hsivalue = (HSI_VALUE >> (__HAL_RCC_GET_HSI_DIVIDER() >> 3));
 80045f0:	f3c4 02c1 	ubfx	r2, r4, #3, #2
          pll3vco = ((float_t)hsivalue / (float_t)pll3m) * ((float_t)(uint32_t)(RCC->PLL3DIVR & RCC_PLL3DIVR_N3) + (fracn3 / (float_t)0x2000) + (float_t)1);
 80045f4:	eef8 7ae7 	vcvt.f32.s32	s15, s15
 80045f8:	ed9f 5a14 	vldr	s10, [pc, #80]	; 800464c <HAL_RCCEx_GetPLL3ClockFreq+0x14c>
 80045fc:	f3c3 0308 	ubfx	r3, r3, #0, #9
          hsivalue = (HSI_VALUE >> (__HAL_RCC_GET_HSI_DIVIDER() >> 3));
 8004600:	40d1      	lsrs	r1, r2
          pll3vco = ((float_t)hsivalue / (float_t)pll3m) * ((float_t)(uint32_t)(RCC->PLL3DIVR & RCC_PLL3DIVR_N3) + (fracn3 / (float_t)0x2000) + (float_t)1);
 8004602:	ee06 3a10 	vmov	s12, r3
 8004606:	ee05 1a90 	vmov	s11, r1
 800460a:	eeb8 6ac6 	vcvt.f32.s32	s12, s12
 800460e:	eef8 5ae5 	vcvt.f32.s32	s11, s11
 8004612:	ee36 6a26 	vadd.f32	s12, s12, s13
 8004616:	eec5 6aa7 	vdiv.f32	s13, s11, s15
 800461a:	eef0 7a46 	vmov.f32	s15, s12
 800461e:	eee7 7a05 	vfma.f32	s15, s14, s10
 8004622:	ee66 6aa7 	vmul.f32	s13, s13, s15
 8004626:	e7a1      	b.n	800456c <HAL_RCCEx_GetPLL3ClockFreq+0x6c>
        pll3vco = ((float_t)HSE_VALUE / (float_t)pll3m) * ((float_t)(uint32_t)(RCC->PLL3DIVR & RCC_PLL3DIVR_N3) + (fracn3 / (float_t)0x2000) + (float_t)1);
 8004628:	ee07 3a90 	vmov	s15, r3
 800462c:	ed9f 5a09 	vldr	s10, [pc, #36]	; 8004654 <HAL_RCCEx_GetPLL3ClockFreq+0x154>
 8004630:	eef8 7ae7 	vcvt.f32.s32	s15, s15
 8004634:	e787      	b.n	8004546 <HAL_RCCEx_GetPLL3ClockFreq+0x46>
          pll3vco = ((float_t)HSI_VALUE / (float_t)pll3m) * ((float_t)(uint32_t)(RCC->PLL3DIVR & RCC_PLL3DIVR_N3) + (fracn3 / (float_t)0x2000) + (float_t)1);
 8004636:	ee07 3a90 	vmov	s15, r3
 800463a:	ed9f 5a07 	vldr	s10, [pc, #28]	; 8004658 <HAL_RCCEx_GetPLL3ClockFreq+0x158>
 800463e:	eef8 7ae7 	vcvt.f32.s32	s15, s15
 8004642:	e780      	b.n	8004546 <HAL_RCCEx_GetPLL3ClockFreq+0x46>
 8004644:	58024400 	.word	0x58024400
 8004648:	4a742400 	.word	0x4a742400
 800464c:	39000000 	.word	0x39000000
 8004650:	03d09000 	.word	0x03d09000
 8004654:	4bbebc20 	.word	0x4bbebc20
 8004658:	4c742400 	.word	0x4c742400

0800465c <HAL_RCCEx_GetPLL1ClockFreq>:
  pllsource = (RCC->PLLCKSELR & RCC_PLLCKSELR_PLLSRC);
 800465c:	4a51      	ldr	r2, [pc, #324]	; (80047a4 <HAL_RCCEx_GetPLL1ClockFreq+0x148>)
{
 800465e:	b470      	push	{r4, r5, r6}
  pllsource = (RCC->PLLCKSELR & RCC_PLLCKSELR_PLLSRC);
 8004660:	6a91      	ldr	r1, [r2, #40]	; 0x28
  pll1m = ((RCC->PLLCKSELR & RCC_PLLCKSELR_DIVM1) >> 4);
 8004662:	6a95      	ldr	r5, [r2, #40]	; 0x28
  pll1fracen = RCC->PLLCFGR & RCC_PLLCFGR_PLL1FRACEN;
 8004664:	6ad6      	ldr	r6, [r2, #44]	; 0x2c
  if (pll1m != 0U)
 8004666:	f415 7f7c 	tst.w	r5, #1008	; 0x3f0
  pll1m = ((RCC->PLLCKSELR & RCC_PLLCKSELR_DIVM1) >> 4);
 800466a:	f3c5 1305 	ubfx	r3, r5, #4, #6
  fracn1 = (float_t)(uint32_t)(pll1fracen * ((RCC->PLL1FRACR & RCC_PLL1FRACR_FRACN1) >> 3));
 800466e:	6b54      	ldr	r4, [r2, #52]	; 0x34
  if (pll1m != 0U)
 8004670:	d05e      	beq.n	8004730 <HAL_RCCEx_GetPLL1ClockFreq+0xd4>
  fracn1 = (float_t)(uint32_t)(pll1fracen * ((RCC->PLL1FRACR & RCC_PLL1FRACR_FRACN1) >> 3));
 8004672:	f3c4 04cc 	ubfx	r4, r4, #3, #13
  pll1fracen = RCC->PLLCFGR & RCC_PLLCFGR_PLL1FRACEN;
 8004676:	f006 0601 	and.w	r6, r6, #1
  pllsource = (RCC->PLLCKSELR & RCC_PLLCKSELR_PLLSRC);
 800467a:	f001 0103 	and.w	r1, r1, #3
  fracn1 = (float_t)(uint32_t)(pll1fracen * ((RCC->PLL1FRACR & RCC_PLL1FRACR_FRACN1) >> 3));
 800467e:	fb06 f404 	mul.w	r4, r6, r4
    switch (pllsource)
 8004682:	2901      	cmp	r1, #1
  fracn1 = (float_t)(uint32_t)(pll1fracen * ((RCC->PLL1FRACR & RCC_PLL1FRACR_FRACN1) >> 3));
 8004684:	ee07 4a90 	vmov	s15, r4
 8004688:	eeb8 7ae7 	vcvt.f32.s32	s14, s15
    switch (pllsource)
 800468c:	f000 8082 	beq.w	8004794 <HAL_RCCEx_GetPLL1ClockFreq+0x138>
 8004690:	2902      	cmp	r1, #2
 8004692:	d078      	beq.n	8004786 <HAL_RCCEx_GetPLL1ClockFreq+0x12a>
 8004694:	2900      	cmp	r1, #0
 8004696:	d050      	beq.n	800473a <HAL_RCCEx_GetPLL1ClockFreq+0xde>
        pll1vco = ((float_t)HSI_VALUE / (float_t)pll1m) * ((float_t)(uint32_t)(RCC->PLL1DIVR & RCC_PLL1DIVR_N1) + (fracn1 / (float_t)0x2000) + (float_t)1);
 8004698:	ee07 3a90 	vmov	s15, r3
 800469c:	ed9f 5a42 	vldr	s10, [pc, #264]	; 80047a8 <HAL_RCCEx_GetPLL1ClockFreq+0x14c>
 80046a0:	eef8 7ae7 	vcvt.f32.s32	s15, s15
 80046a4:	6b13      	ldr	r3, [r2, #48]	; 0x30
 80046a6:	eec5 6a27 	vdiv.f32	s13, s10, s15
 80046aa:	ed9f 6a40 	vldr	s12, [pc, #256]	; 80047ac <HAL_RCCEx_GetPLL1ClockFreq+0x150>
 80046ae:	f3c3 0308 	ubfx	r3, r3, #0, #9
 80046b2:	ee07 3a90 	vmov	s15, r3
 80046b6:	eef7 5a00 	vmov.f32	s11, #112	; 0x3f800000  1.0
 80046ba:	eef8 7ae7 	vcvt.f32.s32	s15, s15
 80046be:	ee77 7aa5 	vadd.f32	s15, s15, s11
 80046c2:	eee7 7a06 	vfma.f32	s15, s14, s12
 80046c6:	ee66 6aa7 	vmul.f32	s13, s13, s15
    PLL1_Clocks->PLL1_P_Frequency = (uint32_t)(float_t)(pll1vco / ((float_t)(uint32_t)((RCC->PLL1DIVR & RCC_PLL1DIVR_P1) >> 9)  + (float_t)1)) ;
 80046ca:	4a36      	ldr	r2, [pc, #216]	; (80047a4 <HAL_RCCEx_GetPLL1ClockFreq+0x148>)
 80046cc:	eeb7 6a00 	vmov.f32	s12, #112	; 0x3f800000  1.0
 80046d0:	6b13      	ldr	r3, [r2, #48]	; 0x30
 80046d2:	f3c3 2346 	ubfx	r3, r3, #9, #7
 80046d6:	ee07 3a90 	vmov	s15, r3
 80046da:	eef8 7ae7 	vcvt.f32.s32	s15, s15
}
 80046de:	bc70      	pop	{r4, r5, r6}
    PLL1_Clocks->PLL1_P_Frequency = (uint32_t)(float_t)(pll1vco / ((float_t)(uint32_t)((RCC->PLL1DIVR & RCC_PLL1DIVR_P1) >> 9)  + (float_t)1)) ;
 80046e0:	ee77 7a86 	vadd.f32	s15, s15, s12
 80046e4:	ee86 7aa7 	vdiv.f32	s14, s13, s15
 80046e8:	eebc 7ac7 	vcvt.u32.f32	s14, s14
 80046ec:	ed80 7a00 	vstr	s14, [r0]
    PLL1_Clocks->PLL1_Q_Frequency = (uint32_t)(float_t)(pll1vco / ((float_t)(uint32_t)((RCC->PLL1DIVR & RCC_PLL1DIVR_Q1) >> 16) + (float_t)1)) ;
 80046f0:	6b13      	ldr	r3, [r2, #48]	; 0x30
 80046f2:	f3c3 4306 	ubfx	r3, r3, #16, #7
 80046f6:	ee07 3a90 	vmov	s15, r3
 80046fa:	eef8 7ae7 	vcvt.f32.s32	s15, s15
 80046fe:	ee77 7a86 	vadd.f32	s15, s15, s12
 8004702:	ee86 7aa7 	vdiv.f32	s14, s13, s15
 8004706:	eebc 7ac7 	vcvt.u32.f32	s14, s14
 800470a:	ed80 7a01 	vstr	s14, [r0, #4]
    PLL1_Clocks->PLL1_R_Frequency = (uint32_t)(float_t)(pll1vco / ((float_t)(uint32_t)((RCC->PLL1DIVR & RCC_PLL1DIVR_R1) >> 24) + (float_t)1)) ;
 800470e:	6b13      	ldr	r3, [r2, #48]	; 0x30
 8004710:	f3c3 6306 	ubfx	r3, r3, #24, #7
 8004714:	ee07 3a10 	vmov	s14, r3
 8004718:	eeb8 7ac7 	vcvt.f32.s32	s14, s14
 800471c:	ee37 7a06 	vadd.f32	s14, s14, s12
 8004720:	eec6 7a87 	vdiv.f32	s15, s13, s14
 8004724:	eefc 7ae7 	vcvt.u32.f32	s15, s15
 8004728:	ee17 3a90 	vmov	r3, s15
 800472c:	6083      	str	r3, [r0, #8]
}
 800472e:	4770      	bx	lr
 8004730:	bc70      	pop	{r4, r5, r6}
    PLL1_Clocks->PLL1_Q_Frequency = 0U;
 8004732:	e9c0 3300 	strd	r3, r3, [r0]
    PLL1_Clocks->PLL1_R_Frequency = (uint32_t)(float_t)(pll1vco / ((float_t)(uint32_t)((RCC->PLL1DIVR & RCC_PLL1DIVR_R1) >> 24) + (float_t)1)) ;
 8004736:	6083      	str	r3, [r0, #8]
}
 8004738:	4770      	bx	lr
        if (__HAL_RCC_GET_FLAG(RCC_FLAG_HSIDIV) != 0U)
 800473a:	6811      	ldr	r1, [r2, #0]
 800473c:	0689      	lsls	r1, r1, #26
 800473e:	d5ab      	bpl.n	8004698 <HAL_RCCEx_GetPLL1ClockFreq+0x3c>
          hsivalue = (HSI_VALUE >> (__HAL_RCC_GET_HSI_DIVIDER() >> 3));
 8004740:	6814      	ldr	r4, [r2, #0]
          pll1vco = ((float_t)hsivalue / (float_t)pll1m) * ((float_t)(uint32_t)(RCC->PLL1DIVR & RCC_PLL1DIVR_N1) + (fracn1 / (float_t)0x2000) + (float_t)1);
 8004742:	ee07 3a90 	vmov	s15, r3
          hsivalue = (HSI_VALUE >> (__HAL_RCC_GET_HSI_DIVIDER() >> 3));
 8004746:	491a      	ldr	r1, [pc, #104]	; (80047b0 <HAL_RCCEx_GetPLL1ClockFreq+0x154>)
          pll1vco = ((float_t)hsivalue / (float_t)pll1m) * ((float_t)(uint32_t)(RCC->PLL1DIVR & RCC_PLL1DIVR_N1) + (fracn1 / (float_t)0x2000) + (float_t)1);
 8004748:	eef7 6a00 	vmov.f32	s13, #112	; 0x3f800000  1.0
 800474c:	6b13      	ldr	r3, [r2, #48]	; 0x30
          hsivalue = (HSI_VALUE >> (__HAL_RCC_GET_HSI_DIVIDER() >> 3));
 800474e:	f3c4 02c1 	ubfx	r2, r4, #3, #2
          pll1vco = ((float_t)hsivalue / (float_t)pll1m) * ((float_t)(uint32_t)(RCC->PLL1DIVR & RCC_PLL1DIVR_N1) + (fracn1 / (float_t)0x2000) + (float_t)1);
 8004752:	eef8 7ae7 	vcvt.f32.s32	s15, s15
 8004756:	ed9f 5a15 	vldr	s10, [pc, #84]	; 80047ac <HAL_RCCEx_GetPLL1ClockFreq+0x150>
 800475a:	f3c3 0308 	ubfx	r3, r3, #0, #9
          hsivalue = (HSI_VALUE >> (__HAL_RCC_GET_HSI_DIVIDER() >> 3));
 800475e:	40d1      	lsrs	r1, r2
          pll1vco = ((float_t)hsivalue / (float_t)pll1m) * ((float_t)(uint32_t)(RCC->PLL1DIVR & RCC_PLL1DIVR_N1) + (fracn1 / (float_t)0x2000) + (float_t)1);
 8004760:	ee06 3a10 	vmov	s12, r3
 8004764:	ee05 1a90 	vmov	s11, r1
 8004768:	eeb8 6ac6 	vcvt.f32.s32	s12, s12
 800476c:	eef8 5ae5 	vcvt.f32.s32	s11, s11
 8004770:	ee36 6a26 	vadd.f32	s12, s12, s13
 8004774:	eec5 6aa7 	vdiv.f32	s13, s11, s15
 8004778:	eef0 7a46 	vmov.f32	s15, s12
 800477c:	eee7 7a05 	vfma.f32	s15, s14, s10
 8004780:	ee66 6aa7 	vmul.f32	s13, s13, s15
 8004784:	e7a1      	b.n	80046ca <HAL_RCCEx_GetPLL1ClockFreq+0x6e>
        pll1vco = ((float_t)HSE_VALUE / (float_t)pll1m) * ((float_t)(uint32_t)(RCC->PLL1DIVR & RCC_PLL1DIVR_N1) + (fracn1 / (float_t)0x2000) + (float_t)1);
 8004786:	ee07 3a90 	vmov	s15, r3
 800478a:	ed9f 5a0a 	vldr	s10, [pc, #40]	; 80047b4 <HAL_RCCEx_GetPLL1ClockFreq+0x158>
 800478e:	eef8 7ae7 	vcvt.f32.s32	s15, s15
 8004792:	e787      	b.n	80046a4 <HAL_RCCEx_GetPLL1ClockFreq+0x48>
        pll1vco = ((float_t)CSI_VALUE / (float_t)pll1m) * ((float_t)(uint32_t)(RCC->PLL1DIVR & RCC_PLL1DIVR_N1) + (fracn1 / (float_t)0x2000) + (float_t)1);
 8004794:	ee07 3a90 	vmov	s15, r3
 8004798:	ed9f 5a07 	vldr	s10, [pc, #28]	; 80047b8 <HAL_RCCEx_GetPLL1ClockFreq+0x15c>
 800479c:	eef8 7ae7 	vcvt.f32.s32	s15, s15
 80047a0:	e780      	b.n	80046a4 <HAL_RCCEx_GetPLL1ClockFreq+0x48>
 80047a2:	bf00      	nop
 80047a4:	58024400 	.word	0x58024400
 80047a8:	4c742400 	.word	0x4c742400
 80047ac:	39000000 	.word	0x39000000
 80047b0:	03d09000 	.word	0x03d09000
 80047b4:	4bbebc20 	.word	0x4bbebc20
 80047b8:	4a742400 	.word	0x4a742400

080047bc <HAL_RCCEx_GetPeriphCLKFreq>:
  if (PeriphClk == RCC_PERIPHCLK_SAI1)
 80047bc:	f5a0 7380 	sub.w	r3, r0, #256	; 0x100
 80047c0:	430b      	orrs	r3, r1
{
 80047c2:	b500      	push	{lr}
 80047c4:	b085      	sub	sp, #20
  if (PeriphClk == RCC_PERIPHCLK_SAI1)
 80047c6:	f000 8083 	beq.w	80048d0 <HAL_RCCEx_GetPeriphCLKFreq+0x114>
  else if (PeriphClk == RCC_PERIPHCLK_SAI23)
 80047ca:	f5a0 7300 	sub.w	r3, r0, #512	; 0x200
 80047ce:	430b      	orrs	r3, r1
 80047d0:	d038      	beq.n	8004844 <HAL_RCCEx_GetPeriphCLKFreq+0x88>
  else if (PeriphClk == RCC_PERIPHCLK_SAI4A)
 80047d2:	f5a0 6380 	sub.w	r3, r0, #1024	; 0x400
 80047d6:	430b      	orrs	r3, r1
 80047d8:	f000 80e6 	beq.w	80049a8 <HAL_RCCEx_GetPeriphCLKFreq+0x1ec>
  else if (PeriphClk == RCC_PERIPHCLK_SAI4B)
 80047dc:	f5a0 6300 	sub.w	r3, r0, #2048	; 0x800
 80047e0:	430b      	orrs	r3, r1
 80047e2:	f000 8089 	beq.w	80048f8 <HAL_RCCEx_GetPeriphCLKFreq+0x13c>
  else if (PeriphClk == RCC_PERIPHCLK_SPI123)
 80047e6:	f5a0 5380 	sub.w	r3, r0, #4096	; 0x1000
 80047ea:	430b      	orrs	r3, r1
 80047ec:	d060      	beq.n	80048b0 <HAL_RCCEx_GetPeriphCLKFreq+0xf4>
  else if (PeriphClk == RCC_PERIPHCLK_SPI45)
 80047ee:	f5a0 5300 	sub.w	r3, r0, #8192	; 0x2000
 80047f2:	430b      	orrs	r3, r1
 80047f4:	f000 8112 	beq.w	8004a1c <HAL_RCCEx_GetPeriphCLKFreq+0x260>
  else if (PeriphClk == RCC_PERIPHCLK_ADC)
 80047f8:	f5a0 2300 	sub.w	r3, r0, #524288	; 0x80000
 80047fc:	430b      	orrs	r3, r1
 80047fe:	f000 80a3 	beq.w	8004948 <HAL_RCCEx_GetPeriphCLKFreq+0x18c>
  else if (PeriphClk == RCC_PERIPHCLK_SDMMC)
 8004802:	f5a0 3380 	sub.w	r3, r0, #65536	; 0x10000
 8004806:	430b      	orrs	r3, r1
 8004808:	f000 80fa 	beq.w	8004a00 <HAL_RCCEx_GetPeriphCLKFreq+0x244>
  else if (PeriphClk == RCC_PERIPHCLK_SPI6)
 800480c:	f5a0 4380 	sub.w	r3, r0, #16384	; 0x4000
 8004810:	430b      	orrs	r3, r1
 8004812:	f000 8143 	beq.w	8004a9c <HAL_RCCEx_GetPeriphCLKFreq+0x2e0>
  else if (PeriphClk == RCC_PERIPHCLK_FDCAN)
 8004816:	f5a0 4000 	sub.w	r0, r0, #32768	; 0x8000
 800481a:	4308      	orrs	r0, r1
 800481c:	d137      	bne.n	800488e <HAL_RCCEx_GetPeriphCLKFreq+0xd2>
    srcclk = __HAL_RCC_GET_FDCAN_SOURCE();
 800481e:	4a9a      	ldr	r2, [pc, #616]	; (8004a88 <HAL_RCCEx_GetPeriphCLKFreq+0x2cc>)
 8004820:	6d13      	ldr	r3, [r2, #80]	; 0x50
 8004822:	f003 5340 	and.w	r3, r3, #805306368	; 0x30000000
    switch (srcclk)
 8004826:	f1b3 5f80 	cmp.w	r3, #268435456	; 0x10000000
 800482a:	f000 8084 	beq.w	8004936 <HAL_RCCEx_GetPeriphCLKFreq+0x17a>
 800482e:	f1b3 5f00 	cmp.w	r3, #536870912	; 0x20000000
 8004832:	f000 8157 	beq.w	8004ae4 <HAL_RCCEx_GetPeriphCLKFreq+0x328>
 8004836:	bb53      	cbnz	r3, 800488e <HAL_RCCEx_GetPeriphCLKFreq+0xd2>
        if (HAL_IS_BIT_SET(RCC->CR, RCC_CR_HSERDY))
 8004838:	6810      	ldr	r0, [r2, #0]
 800483a:	f410 3000 	ands.w	r0, r0, #131072	; 0x20000
 800483e:	d044      	beq.n	80048ca <HAL_RCCEx_GetPeriphCLKFreq+0x10e>
          frequency = HSE_VALUE;
 8004840:	4892      	ldr	r0, [pc, #584]	; (8004a8c <HAL_RCCEx_GetPeriphCLKFreq+0x2d0>)
 8004842:	e042      	b.n	80048ca <HAL_RCCEx_GetPeriphCLKFreq+0x10e>
    saiclocksource = __HAL_RCC_GET_SAI23_SOURCE();
 8004844:	4a90      	ldr	r2, [pc, #576]	; (8004a88 <HAL_RCCEx_GetPeriphCLKFreq+0x2cc>)
 8004846:	6d13      	ldr	r3, [r2, #80]	; 0x50
 8004848:	f403 73e0 	and.w	r3, r3, #448	; 0x1c0
    switch (saiclocksource)
 800484c:	2b80      	cmp	r3, #128	; 0x80
 800484e:	f000 80a6 	beq.w	800499e <HAL_RCCEx_GetPeriphCLKFreq+0x1e2>
 8004852:	d920      	bls.n	8004896 <HAL_RCCEx_GetPeriphCLKFreq+0xda>
 8004854:	2bc0      	cmp	r3, #192	; 0xc0
 8004856:	d037      	beq.n	80048c8 <HAL_RCCEx_GetPeriphCLKFreq+0x10c>
 8004858:	f5b3 7f80 	cmp.w	r3, #256	; 0x100
 800485c:	d117      	bne.n	800488e <HAL_RCCEx_GetPeriphCLKFreq+0xd2>
        ckpclocksource = __HAL_RCC_GET_CLKP_SOURCE();
 800485e:	6cd3      	ldr	r3, [r2, #76]	; 0x4c
        if ((HAL_IS_BIT_SET(RCC->CR, RCC_CR_HSIRDY)) && (ckpclocksource == RCC_CLKPSOURCE_HSI))
 8004860:	6811      	ldr	r1, [r2, #0]
        ckpclocksource = __HAL_RCC_GET_CLKP_SOURCE();
 8004862:	f003 5340 	and.w	r3, r3, #805306368	; 0x30000000
        if ((HAL_IS_BIT_SET(RCC->CR, RCC_CR_HSIRDY)) && (ckpclocksource == RCC_CLKPSOURCE_HSI))
 8004866:	0749      	lsls	r1, r1, #29
 8004868:	d502      	bpl.n	8004870 <HAL_RCCEx_GetPeriphCLKFreq+0xb4>
 800486a:	2b00      	cmp	r3, #0
 800486c:	f000 80c2 	beq.w	80049f4 <HAL_RCCEx_GetPeriphCLKFreq+0x238>
        else if ((HAL_IS_BIT_SET(RCC->CR, RCC_CR_CSIRDY)) && (ckpclocksource == RCC_CLKPSOURCE_CSI))
 8004870:	4a85      	ldr	r2, [pc, #532]	; (8004a88 <HAL_RCCEx_GetPeriphCLKFreq+0x2cc>)
 8004872:	6812      	ldr	r2, [r2, #0]
 8004874:	05d0      	lsls	r0, r2, #23
 8004876:	d503      	bpl.n	8004880 <HAL_RCCEx_GetPeriphCLKFreq+0xc4>
 8004878:	f1b3 5f80 	cmp.w	r3, #268435456	; 0x10000000
 800487c:	f000 8102 	beq.w	8004a84 <HAL_RCCEx_GetPeriphCLKFreq+0x2c8>
        else if ((HAL_IS_BIT_SET(RCC->CR, RCC_CR_HSERDY)) && (ckpclocksource == RCC_CLKPSOURCE_HSE))
 8004880:	4a81      	ldr	r2, [pc, #516]	; (8004a88 <HAL_RCCEx_GetPeriphCLKFreq+0x2cc>)
 8004882:	6812      	ldr	r2, [r2, #0]
 8004884:	0391      	lsls	r1, r2, #14
 8004886:	d502      	bpl.n	800488e <HAL_RCCEx_GetPeriphCLKFreq+0xd2>
 8004888:	f1b3 5f00 	cmp.w	r3, #536870912	; 0x20000000
 800488c:	d0d8      	beq.n	8004840 <HAL_RCCEx_GetPeriphCLKFreq+0x84>
    switch (srcclk)
 800488e:	2000      	movs	r0, #0
}
 8004890:	b005      	add	sp, #20
 8004892:	f85d fb04 	ldr.w	pc, [sp], #4
    switch (saiclocksource)
 8004896:	2b00      	cmp	r3, #0
 8004898:	d04d      	beq.n	8004936 <HAL_RCCEx_GetPeriphCLKFreq+0x17a>
 800489a:	2b40      	cmp	r3, #64	; 0x40
 800489c:	d1f7      	bne.n	800488e <HAL_RCCEx_GetPeriphCLKFreq+0xd2>
        if (HAL_IS_BIT_SET(RCC->CR, RCC_CR_PLL2RDY))
 800489e:	6810      	ldr	r0, [r2, #0]
 80048a0:	f010 6000 	ands.w	r0, r0, #134217728	; 0x8000000
 80048a4:	d011      	beq.n	80048ca <HAL_RCCEx_GetPeriphCLKFreq+0x10e>
          HAL_RCCEx_GetPLL2ClockFreq(&pll2_clocks);
 80048a6:	a801      	add	r0, sp, #4
 80048a8:	f7ff fd7c 	bl	80043a4 <HAL_RCCEx_GetPLL2ClockFreq>
          frequency = pll2_clocks.PLL2_P_Frequency;
 80048ac:	9801      	ldr	r0, [sp, #4]
 80048ae:	e00c      	b.n	80048ca <HAL_RCCEx_GetPeriphCLKFreq+0x10e>
    srcclk = __HAL_RCC_GET_SPI123_SOURCE();
 80048b0:	4a75      	ldr	r2, [pc, #468]	; (8004a88 <HAL_RCCEx_GetPeriphCLKFreq+0x2cc>)
 80048b2:	6d13      	ldr	r3, [r2, #80]	; 0x50
 80048b4:	f403 43e0 	and.w	r3, r3, #28672	; 0x7000
    switch (srcclk)
 80048b8:	f5b3 5f00 	cmp.w	r3, #8192	; 0x2000
 80048bc:	d06f      	beq.n	800499e <HAL_RCCEx_GetPeriphCLKFreq+0x1e2>
 80048be:	d938      	bls.n	8004932 <HAL_RCCEx_GetPeriphCLKFreq+0x176>
 80048c0:	f5b3 5f40 	cmp.w	r3, #12288	; 0x3000
 80048c4:	f040 8088 	bne.w	80049d8 <HAL_RCCEx_GetPeriphCLKFreq+0x21c>
        frequency = EXTERNAL_CLOCK_VALUE;
 80048c8:	4871      	ldr	r0, [pc, #452]	; (8004a90 <HAL_RCCEx_GetPeriphCLKFreq+0x2d4>)
}
 80048ca:	b005      	add	sp, #20
 80048cc:	f85d fb04 	ldr.w	pc, [sp], #4
    saiclocksource = __HAL_RCC_GET_SAI1_SOURCE();
 80048d0:	4b6d      	ldr	r3, [pc, #436]	; (8004a88 <HAL_RCCEx_GetPeriphCLKFreq+0x2cc>)
 80048d2:	6d1b      	ldr	r3, [r3, #80]	; 0x50
 80048d4:	f003 0307 	and.w	r3, r3, #7
    switch (saiclocksource)
 80048d8:	2b04      	cmp	r3, #4
 80048da:	d8d8      	bhi.n	800488e <HAL_RCCEx_GetPeriphCLKFreq+0xd2>
 80048dc:	a201      	add	r2, pc, #4	; (adr r2, 80048e4 <HAL_RCCEx_GetPeriphCLKFreq+0x128>)
 80048de:	f852 f023 	ldr.w	pc, [r2, r3, lsl #2]
 80048e2:	bf00      	nop
 80048e4:	08004987 	.word	0x08004987
 80048e8:	08004963 	.word	0x08004963
 80048ec:	08004973 	.word	0x08004973
 80048f0:	080048c9 	.word	0x080048c9
 80048f4:	0800496f 	.word	0x0800496f
    saiclocksource = __HAL_RCC_GET_SAI4B_SOURCE();
 80048f8:	4a63      	ldr	r2, [pc, #396]	; (8004a88 <HAL_RCCEx_GetPeriphCLKFreq+0x2cc>)
 80048fa:	6d93      	ldr	r3, [r2, #88]	; 0x58
 80048fc:	f003 63e0 	and.w	r3, r3, #117440512	; 0x7000000
    switch (saiclocksource)
 8004900:	f1b3 7f00 	cmp.w	r3, #33554432	; 0x2000000
 8004904:	d04b      	beq.n	800499e <HAL_RCCEx_GetPeriphCLKFreq+0x1e2>
 8004906:	d944      	bls.n	8004992 <HAL_RCCEx_GetPeriphCLKFreq+0x1d6>
 8004908:	f1b3 7f40 	cmp.w	r3, #50331648	; 0x3000000
 800490c:	d0dc      	beq.n	80048c8 <HAL_RCCEx_GetPeriphCLKFreq+0x10c>
 800490e:	f1b3 6f80 	cmp.w	r3, #67108864	; 0x4000000
 8004912:	d1bc      	bne.n	800488e <HAL_RCCEx_GetPeriphCLKFreq+0xd2>
        ckpclocksource = __HAL_RCC_GET_CLKP_SOURCE();
 8004914:	6cd3      	ldr	r3, [r2, #76]	; 0x4c
        if ((HAL_IS_BIT_SET(RCC->CR, RCC_CR_HSIRDY)) && (ckpclocksource == RCC_CLKPSOURCE_HSI))
 8004916:	6812      	ldr	r2, [r2, #0]
        ckpclocksource = __HAL_RCC_GET_CLKP_SOURCE();
 8004918:	f003 5340 	and.w	r3, r3, #805306368	; 0x30000000
        if ((HAL_IS_BIT_SET(RCC->CR, RCC_CR_HSIRDY)) && (ckpclocksource == RCC_CLKPSOURCE_HSI))
 800491c:	0752      	lsls	r2, r2, #29
 800491e:	d5a7      	bpl.n	8004870 <HAL_RCCEx_GetPeriphCLKFreq+0xb4>
 8004920:	2b00      	cmp	r3, #0
 8004922:	d1a5      	bne.n	8004870 <HAL_RCCEx_GetPeriphCLKFreq+0xb4>
          frequency = (HSI_VALUE >> (__HAL_RCC_GET_HSI_DIVIDER() >> 3));
 8004924:	4b58      	ldr	r3, [pc, #352]	; (8004a88 <HAL_RCCEx_GetPeriphCLKFreq+0x2cc>)
 8004926:	485b      	ldr	r0, [pc, #364]	; (8004a94 <HAL_RCCEx_GetPeriphCLKFreq+0x2d8>)
 8004928:	681b      	ldr	r3, [r3, #0]
 800492a:	f3c3 03c1 	ubfx	r3, r3, #3, #2
 800492e:	40d8      	lsrs	r0, r3
 8004930:	e7cb      	b.n	80048ca <HAL_RCCEx_GetPeriphCLKFreq+0x10e>
    switch (srcclk)
 8004932:	2b00      	cmp	r3, #0
 8004934:	d154      	bne.n	80049e0 <HAL_RCCEx_GetPeriphCLKFreq+0x224>
        if (HAL_IS_BIT_SET(RCC->CR, RCC_CR_PLL1RDY))
 8004936:	6810      	ldr	r0, [r2, #0]
 8004938:	f010 7000 	ands.w	r0, r0, #33554432	; 0x2000000
 800493c:	d0c5      	beq.n	80048ca <HAL_RCCEx_GetPeriphCLKFreq+0x10e>
          HAL_RCCEx_GetPLL1ClockFreq(&pll1_clocks);
 800493e:	a801      	add	r0, sp, #4
 8004940:	f7ff fe8c 	bl	800465c <HAL_RCCEx_GetPLL1ClockFreq>
          frequency = pll1_clocks.PLL1_Q_Frequency;
 8004944:	9802      	ldr	r0, [sp, #8]
 8004946:	e7c0      	b.n	80048ca <HAL_RCCEx_GetPeriphCLKFreq+0x10e>
    srcclk = __HAL_RCC_GET_ADC_SOURCE();
 8004948:	4a4f      	ldr	r2, [pc, #316]	; (8004a88 <HAL_RCCEx_GetPeriphCLKFreq+0x2cc>)
 800494a:	6d93      	ldr	r3, [r2, #88]	; 0x58
 800494c:	f403 3340 	and.w	r3, r3, #196608	; 0x30000
    switch (srcclk)
 8004950:	f5b3 3f80 	cmp.w	r3, #65536	; 0x10000
 8004954:	f000 80d0 	beq.w	8004af8 <HAL_RCCEx_GetPeriphCLKFreq+0x33c>
 8004958:	f5b3 3f00 	cmp.w	r3, #131072	; 0x20000
 800495c:	d0da      	beq.n	8004914 <HAL_RCCEx_GetPeriphCLKFreq+0x158>
 800495e:	2b00      	cmp	r3, #0
 8004960:	d195      	bne.n	800488e <HAL_RCCEx_GetPeriphCLKFreq+0xd2>
        if (HAL_IS_BIT_SET(RCC->CR, RCC_CR_PLL2RDY))
 8004962:	4b49      	ldr	r3, [pc, #292]	; (8004a88 <HAL_RCCEx_GetPeriphCLKFreq+0x2cc>)
 8004964:	6818      	ldr	r0, [r3, #0]
 8004966:	f010 6000 	ands.w	r0, r0, #134217728	; 0x8000000
 800496a:	d0ae      	beq.n	80048ca <HAL_RCCEx_GetPeriphCLKFreq+0x10e>
 800496c:	e79b      	b.n	80048a6 <HAL_RCCEx_GetPeriphCLKFreq+0xea>
        ckpclocksource = __HAL_RCC_GET_CLKP_SOURCE();
 800496e:	4a46      	ldr	r2, [pc, #280]	; (8004a88 <HAL_RCCEx_GetPeriphCLKFreq+0x2cc>)
 8004970:	e775      	b.n	800485e <HAL_RCCEx_GetPeriphCLKFreq+0xa2>
        if (HAL_IS_BIT_SET(RCC->CR, RCC_CR_PLL3RDY))
 8004972:	4b45      	ldr	r3, [pc, #276]	; (8004a88 <HAL_RCCEx_GetPeriphCLKFreq+0x2cc>)
 8004974:	6818      	ldr	r0, [r3, #0]
 8004976:	f010 5000 	ands.w	r0, r0, #536870912	; 0x20000000
 800497a:	d0a6      	beq.n	80048ca <HAL_RCCEx_GetPeriphCLKFreq+0x10e>
          HAL_RCCEx_GetPLL3ClockFreq(&pll3_clocks);
 800497c:	a801      	add	r0, sp, #4
 800497e:	f7ff fdbf 	bl	8004500 <HAL_RCCEx_GetPLL3ClockFreq>
          frequency = pll3_clocks.PLL3_P_Frequency;
 8004982:	9801      	ldr	r0, [sp, #4]
 8004984:	e7a1      	b.n	80048ca <HAL_RCCEx_GetPeriphCLKFreq+0x10e>
        if (HAL_IS_BIT_SET(RCC->CR, RCC_CR_PLL1RDY))
 8004986:	4b40      	ldr	r3, [pc, #256]	; (8004a88 <HAL_RCCEx_GetPeriphCLKFreq+0x2cc>)
 8004988:	6818      	ldr	r0, [r3, #0]
 800498a:	f010 7000 	ands.w	r0, r0, #33554432	; 0x2000000
 800498e:	d09c      	beq.n	80048ca <HAL_RCCEx_GetPeriphCLKFreq+0x10e>
 8004990:	e7d5      	b.n	800493e <HAL_RCCEx_GetPeriphCLKFreq+0x182>
    switch (saiclocksource)
 8004992:	2b00      	cmp	r3, #0
 8004994:	d0cf      	beq.n	8004936 <HAL_RCCEx_GetPeriphCLKFreq+0x17a>
 8004996:	f1b3 7f80 	cmp.w	r3, #16777216	; 0x1000000
 800499a:	d080      	beq.n	800489e <HAL_RCCEx_GetPeriphCLKFreq+0xe2>
 800499c:	e777      	b.n	800488e <HAL_RCCEx_GetPeriphCLKFreq+0xd2>
        if (HAL_IS_BIT_SET(RCC->CR, RCC_CR_PLL3RDY))
 800499e:	6810      	ldr	r0, [r2, #0]
 80049a0:	f010 5000 	ands.w	r0, r0, #536870912	; 0x20000000
 80049a4:	d091      	beq.n	80048ca <HAL_RCCEx_GetPeriphCLKFreq+0x10e>
 80049a6:	e7e9      	b.n	800497c <HAL_RCCEx_GetPeriphCLKFreq+0x1c0>
    saiclocksource = __HAL_RCC_GET_SAI4A_SOURCE();
 80049a8:	4a37      	ldr	r2, [pc, #220]	; (8004a88 <HAL_RCCEx_GetPeriphCLKFreq+0x2cc>)
 80049aa:	6d93      	ldr	r3, [r2, #88]	; 0x58
 80049ac:	f403 0360 	and.w	r3, r3, #14680064	; 0xe00000
    switch (saiclocksource)
 80049b0:	f5b3 0f80 	cmp.w	r3, #4194304	; 0x400000
 80049b4:	d0f3      	beq.n	800499e <HAL_RCCEx_GetPeriphCLKFreq+0x1e2>
 80049b6:	d806      	bhi.n	80049c6 <HAL_RCCEx_GetPeriphCLKFreq+0x20a>
 80049b8:	2b00      	cmp	r3, #0
 80049ba:	d0bc      	beq.n	8004936 <HAL_RCCEx_GetPeriphCLKFreq+0x17a>
 80049bc:	f5b3 1f00 	cmp.w	r3, #2097152	; 0x200000
 80049c0:	f43f af6d 	beq.w	800489e <HAL_RCCEx_GetPeriphCLKFreq+0xe2>
 80049c4:	e763      	b.n	800488e <HAL_RCCEx_GetPeriphCLKFreq+0xd2>
 80049c6:	f5b3 0fc0 	cmp.w	r3, #6291456	; 0x600000
 80049ca:	f43f af7d 	beq.w	80048c8 <HAL_RCCEx_GetPeriphCLKFreq+0x10c>
 80049ce:	f5b3 0f00 	cmp.w	r3, #8388608	; 0x800000
 80049d2:	f43f af44 	beq.w	800485e <HAL_RCCEx_GetPeriphCLKFreq+0xa2>
 80049d6:	e75a      	b.n	800488e <HAL_RCCEx_GetPeriphCLKFreq+0xd2>
    switch (srcclk)
 80049d8:	f5b3 4f80 	cmp.w	r3, #16384	; 0x4000
 80049dc:	d09a      	beq.n	8004914 <HAL_RCCEx_GetPeriphCLKFreq+0x158>
 80049de:	e756      	b.n	800488e <HAL_RCCEx_GetPeriphCLKFreq+0xd2>
 80049e0:	f5b3 5f80 	cmp.w	r3, #4096	; 0x1000
 80049e4:	f43f af5b 	beq.w	800489e <HAL_RCCEx_GetPeriphCLKFreq+0xe2>
 80049e8:	e751      	b.n	800488e <HAL_RCCEx_GetPeriphCLKFreq+0xd2>
        if (HAL_IS_BIT_SET(RCC->CR, RCC_CR_HSIRDY))
 80049ea:	6810      	ldr	r0, [r2, #0]
 80049ec:	f010 0004 	ands.w	r0, r0, #4
 80049f0:	f43f af6b 	beq.w	80048ca <HAL_RCCEx_GetPeriphCLKFreq+0x10e>
          frequency = (HSI_VALUE >> (__HAL_RCC_GET_HSI_DIVIDER() >> 3));
 80049f4:	6813      	ldr	r3, [r2, #0]
 80049f6:	4827      	ldr	r0, [pc, #156]	; (8004a94 <HAL_RCCEx_GetPeriphCLKFreq+0x2d8>)
 80049f8:	f3c3 03c1 	ubfx	r3, r3, #3, #2
 80049fc:	40d8      	lsrs	r0, r3
 80049fe:	e764      	b.n	80048ca <HAL_RCCEx_GetPeriphCLKFreq+0x10e>
    srcclk = __HAL_RCC_GET_SDMMC_SOURCE();
 8004a00:	4b21      	ldr	r3, [pc, #132]	; (8004a88 <HAL_RCCEx_GetPeriphCLKFreq+0x2cc>)
 8004a02:	6cda      	ldr	r2, [r3, #76]	; 0x4c
    switch (srcclk)
 8004a04:	03d2      	lsls	r2, r2, #15
 8004a06:	d5bf      	bpl.n	8004988 <HAL_RCCEx_GetPeriphCLKFreq+0x1cc>
        if (HAL_IS_BIT_SET(RCC->CR, RCC_CR_PLL2RDY))
 8004a08:	6818      	ldr	r0, [r3, #0]
 8004a0a:	f010 6000 	ands.w	r0, r0, #134217728	; 0x8000000
 8004a0e:	f43f af5c 	beq.w	80048ca <HAL_RCCEx_GetPeriphCLKFreq+0x10e>
          HAL_RCCEx_GetPLL2ClockFreq(&pll2_clocks);
 8004a12:	a801      	add	r0, sp, #4
 8004a14:	f7ff fcc6 	bl	80043a4 <HAL_RCCEx_GetPLL2ClockFreq>
          frequency = pll2_clocks.PLL2_R_Frequency;
 8004a18:	9803      	ldr	r0, [sp, #12]
 8004a1a:	e756      	b.n	80048ca <HAL_RCCEx_GetPeriphCLKFreq+0x10e>
    srcclk = __HAL_RCC_GET_SPI45_SOURCE();
 8004a1c:	4a1a      	ldr	r2, [pc, #104]	; (8004a88 <HAL_RCCEx_GetPeriphCLKFreq+0x2cc>)
 8004a1e:	6d13      	ldr	r3, [r2, #80]	; 0x50
 8004a20:	f403 23e0 	and.w	r3, r3, #458752	; 0x70000
    switch (srcclk)
 8004a24:	f5b3 3f40 	cmp.w	r3, #196608	; 0x30000
 8004a28:	d0df      	beq.n	80049ea <HAL_RCCEx_GetPeriphCLKFreq+0x22e>
 8004a2a:	d810      	bhi.n	8004a4e <HAL_RCCEx_GetPeriphCLKFreq+0x292>
 8004a2c:	f5b3 3f80 	cmp.w	r3, #65536	; 0x10000
 8004a30:	d058      	beq.n	8004ae4 <HAL_RCCEx_GetPeriphCLKFreq+0x328>
 8004a32:	f5b3 3f00 	cmp.w	r3, #131072	; 0x20000
 8004a36:	d118      	bne.n	8004a6a <HAL_RCCEx_GetPeriphCLKFreq+0x2ae>
        if (HAL_IS_BIT_SET(RCC->CR, RCC_CR_PLL3RDY))
 8004a38:	4b13      	ldr	r3, [pc, #76]	; (8004a88 <HAL_RCCEx_GetPeriphCLKFreq+0x2cc>)
 8004a3a:	6818      	ldr	r0, [r3, #0]
 8004a3c:	f010 5000 	ands.w	r0, r0, #536870912	; 0x20000000
 8004a40:	f43f af43 	beq.w	80048ca <HAL_RCCEx_GetPeriphCLKFreq+0x10e>
          HAL_RCCEx_GetPLL3ClockFreq(&pll3_clocks);
 8004a44:	a801      	add	r0, sp, #4
 8004a46:	f7ff fd5b 	bl	8004500 <HAL_RCCEx_GetPLL3ClockFreq>
          frequency = pll3_clocks.PLL3_Q_Frequency;
 8004a4a:	9802      	ldr	r0, [sp, #8]
 8004a4c:	e73d      	b.n	80048ca <HAL_RCCEx_GetPeriphCLKFreq+0x10e>
    switch (srcclk)
 8004a4e:	f5b3 2f80 	cmp.w	r3, #262144	; 0x40000
 8004a52:	d012      	beq.n	8004a7a <HAL_RCCEx_GetPeriphCLKFreq+0x2be>
 8004a54:	f5b3 2fa0 	cmp.w	r3, #327680	; 0x50000
 8004a58:	f47f af19 	bne.w	800488e <HAL_RCCEx_GetPeriphCLKFreq+0xd2>
        if (HAL_IS_BIT_SET(RCC->CR, RCC_CR_HSERDY))
 8004a5c:	4b0a      	ldr	r3, [pc, #40]	; (8004a88 <HAL_RCCEx_GetPeriphCLKFreq+0x2cc>)
 8004a5e:	6818      	ldr	r0, [r3, #0]
 8004a60:	f410 3000 	ands.w	r0, r0, #131072	; 0x20000
 8004a64:	f43f af31 	beq.w	80048ca <HAL_RCCEx_GetPeriphCLKFreq+0x10e>
 8004a68:	e6ea      	b.n	8004840 <HAL_RCCEx_GetPeriphCLKFreq+0x84>
    switch (srcclk)
 8004a6a:	2b00      	cmp	r3, #0
 8004a6c:	f47f af0f 	bne.w	800488e <HAL_RCCEx_GetPeriphCLKFreq+0xd2>
}
 8004a70:	b005      	add	sp, #20
 8004a72:	f85d eb04 	ldr.w	lr, [sp], #4
        frequency = HAL_RCC_GetPCLK1Freq();
 8004a76:	f7fe bd35 	b.w	80034e4 <HAL_RCC_GetPCLK1Freq>
        if (HAL_IS_BIT_SET(RCC->CR, RCC_CR_CSIRDY))
 8004a7a:	6810      	ldr	r0, [r2, #0]
 8004a7c:	f410 7080 	ands.w	r0, r0, #256	; 0x100
 8004a80:	f43f af23 	beq.w	80048ca <HAL_RCCEx_GetPeriphCLKFreq+0x10e>
          frequency = CSI_VALUE;
 8004a84:	4804      	ldr	r0, [pc, #16]	; (8004a98 <HAL_RCCEx_GetPeriphCLKFreq+0x2dc>)
 8004a86:	e720      	b.n	80048ca <HAL_RCCEx_GetPeriphCLKFreq+0x10e>
 8004a88:	58024400 	.word	0x58024400
 8004a8c:	017d7840 	.word	0x017d7840
 8004a90:	00bb8000 	.word	0x00bb8000
 8004a94:	03d09000 	.word	0x03d09000
 8004a98:	003d0900 	.word	0x003d0900
    srcclk = __HAL_RCC_GET_SPI6_SOURCE();
 8004a9c:	4b28      	ldr	r3, [pc, #160]	; (8004b40 <HAL_RCCEx_GetPeriphCLKFreq+0x384>)
 8004a9e:	6d9b      	ldr	r3, [r3, #88]	; 0x58
 8004aa0:	f003 43e0 	and.w	r3, r3, #1879048192	; 0x70000000
    switch (srcclk)
 8004aa4:	f1b3 5f40 	cmp.w	r3, #805306368	; 0x30000000
 8004aa8:	d037      	beq.n	8004b1a <HAL_RCCEx_GetPeriphCLKFreq+0x35e>
 8004aaa:	d814      	bhi.n	8004ad6 <HAL_RCCEx_GetPeriphCLKFreq+0x31a>
 8004aac:	f1b3 5f80 	cmp.w	r3, #268435456	; 0x10000000
 8004ab0:	d03f      	beq.n	8004b32 <HAL_RCCEx_GetPeriphCLKFreq+0x376>
 8004ab2:	f1b3 5f00 	cmp.w	r3, #536870912	; 0x20000000
 8004ab6:	d0bf      	beq.n	8004a38 <HAL_RCCEx_GetPeriphCLKFreq+0x27c>
 8004ab8:	2b00      	cmp	r3, #0
 8004aba:	f47f aee8 	bne.w	800488e <HAL_RCCEx_GetPeriphCLKFreq+0xd2>
  return (HAL_RCC_GetHCLKFreq() >> (D1CorePrescTable[(RCC->D3CFGR & RCC_D3CFGR_D3PPRE) >> RCC_D3CFGR_D3PPRE_Pos] & 0x1FU));
 8004abe:	f7fe fcd1 	bl	8003464 <HAL_RCC_GetHCLKFreq>
 8004ac2:	4b1f      	ldr	r3, [pc, #124]	; (8004b40 <HAL_RCCEx_GetPeriphCLKFreq+0x384>)
 8004ac4:	4a1f      	ldr	r2, [pc, #124]	; (8004b44 <HAL_RCCEx_GetPeriphCLKFreq+0x388>)
 8004ac6:	6a1b      	ldr	r3, [r3, #32]
 8004ac8:	f3c3 1302 	ubfx	r3, r3, #4, #3
 8004acc:	5cd3      	ldrb	r3, [r2, r3]
 8004ace:	f003 031f 	and.w	r3, r3, #31
 8004ad2:	40d8      	lsrs	r0, r3
        break;
 8004ad4:	e6f9      	b.n	80048ca <HAL_RCCEx_GetPeriphCLKFreq+0x10e>
    switch (srcclk)
 8004ad6:	f1b3 4f80 	cmp.w	r3, #1073741824	; 0x40000000
 8004ada:	d017      	beq.n	8004b0c <HAL_RCCEx_GetPeriphCLKFreq+0x350>
 8004adc:	f1b3 4fa0 	cmp.w	r3, #1342177280	; 0x50000000
 8004ae0:	d0bc      	beq.n	8004a5c <HAL_RCCEx_GetPeriphCLKFreq+0x2a0>
 8004ae2:	e6d4      	b.n	800488e <HAL_RCCEx_GetPeriphCLKFreq+0xd2>
        if (HAL_IS_BIT_SET(RCC->CR, RCC_CR_PLL2RDY))
 8004ae4:	6810      	ldr	r0, [r2, #0]
 8004ae6:	f010 6000 	ands.w	r0, r0, #134217728	; 0x8000000
 8004aea:	f43f aeee 	beq.w	80048ca <HAL_RCCEx_GetPeriphCLKFreq+0x10e>
          HAL_RCCEx_GetPLL2ClockFreq(&pll2_clocks);
 8004aee:	a801      	add	r0, sp, #4
 8004af0:	f7ff fc58 	bl	80043a4 <HAL_RCCEx_GetPLL2ClockFreq>
          frequency = pll2_clocks.PLL2_Q_Frequency;
 8004af4:	9802      	ldr	r0, [sp, #8]
 8004af6:	e6e8      	b.n	80048ca <HAL_RCCEx_GetPeriphCLKFreq+0x10e>
        if (HAL_IS_BIT_SET(RCC->CR, RCC_CR_PLL3RDY))
 8004af8:	6810      	ldr	r0, [r2, #0]
 8004afa:	f010 5000 	ands.w	r0, r0, #536870912	; 0x20000000
 8004afe:	f43f aee4 	beq.w	80048ca <HAL_RCCEx_GetPeriphCLKFreq+0x10e>
          HAL_RCCEx_GetPLL3ClockFreq(&pll3_clocks);
 8004b02:	a801      	add	r0, sp, #4
 8004b04:	f7ff fcfc 	bl	8004500 <HAL_RCCEx_GetPLL3ClockFreq>
          frequency = pll3_clocks.PLL3_R_Frequency;
 8004b08:	9803      	ldr	r0, [sp, #12]
 8004b0a:	e6de      	b.n	80048ca <HAL_RCCEx_GetPeriphCLKFreq+0x10e>
        if (HAL_IS_BIT_SET(RCC->CR, RCC_CR_CSIRDY))
 8004b0c:	4b0c      	ldr	r3, [pc, #48]	; (8004b40 <HAL_RCCEx_GetPeriphCLKFreq+0x384>)
 8004b0e:	6818      	ldr	r0, [r3, #0]
 8004b10:	f410 7080 	ands.w	r0, r0, #256	; 0x100
 8004b14:	f43f aed9 	beq.w	80048ca <HAL_RCCEx_GetPeriphCLKFreq+0x10e>
 8004b18:	e7b4      	b.n	8004a84 <HAL_RCCEx_GetPeriphCLKFreq+0x2c8>
        if (HAL_IS_BIT_SET(RCC->CR, RCC_CR_HSIRDY))
 8004b1a:	4b09      	ldr	r3, [pc, #36]	; (8004b40 <HAL_RCCEx_GetPeriphCLKFreq+0x384>)
 8004b1c:	6818      	ldr	r0, [r3, #0]
 8004b1e:	f010 0004 	ands.w	r0, r0, #4
 8004b22:	f43f aed2 	beq.w	80048ca <HAL_RCCEx_GetPeriphCLKFreq+0x10e>
          frequency = (HSI_VALUE >> (__HAL_RCC_GET_HSI_DIVIDER() >> 3));
 8004b26:	681b      	ldr	r3, [r3, #0]
 8004b28:	4807      	ldr	r0, [pc, #28]	; (8004b48 <HAL_RCCEx_GetPeriphCLKFreq+0x38c>)
 8004b2a:	f3c3 03c1 	ubfx	r3, r3, #3, #2
 8004b2e:	40d8      	lsrs	r0, r3
 8004b30:	e6cb      	b.n	80048ca <HAL_RCCEx_GetPeriphCLKFreq+0x10e>
        if (HAL_IS_BIT_SET(RCC->CR, RCC_CR_PLL2RDY))
 8004b32:	4b03      	ldr	r3, [pc, #12]	; (8004b40 <HAL_RCCEx_GetPeriphCLKFreq+0x384>)
 8004b34:	6818      	ldr	r0, [r3, #0]
 8004b36:	f010 6000 	ands.w	r0, r0, #134217728	; 0x8000000
 8004b3a:	f43f aec6 	beq.w	80048ca <HAL_RCCEx_GetPeriphCLKFreq+0x10e>
 8004b3e:	e7d6      	b.n	8004aee <HAL_RCCEx_GetPeriphCLKFreq+0x332>
 8004b40:	58024400 	.word	0x58024400
 8004b44:	080057b0 	.word	0x080057b0
 8004b48:	03d09000 	.word	0x03d09000

08004b4c <SPI_CloseTransfer>:
  * @retval HAL_ERROR: if any error detected
  *         HAL_OK: if nothing detected
  */
static void SPI_CloseTransfer(SPI_HandleTypeDef *hspi)
{
  uint32_t itflag = hspi->Instance->SR;
 8004b4c:	6803      	ldr	r3, [r0, #0]

  /* Disable SPI peripheral */
  __HAL_SPI_DISABLE(hspi);

  /* Disable ITs */
  __HAL_SPI_DISABLE_IT(hspi, (SPI_IT_EOT | SPI_IT_TXP | SPI_IT_RXP | SPI_IT_DXP | SPI_IT_UDR | SPI_IT_OVR | \
 8004b4e:	492c      	ldr	r1, [pc, #176]	; (8004c00 <SPI_CloseTransfer+0xb4>)
  uint32_t itflag = hspi->Instance->SR;
 8004b50:	695a      	ldr	r2, [r3, #20]
{
 8004b52:	b410      	push	{r4}
  __HAL_SPI_CLEAR_EOTFLAG(hspi);
 8004b54:	699c      	ldr	r4, [r3, #24]
 8004b56:	f044 0408 	orr.w	r4, r4, #8
 8004b5a:	619c      	str	r4, [r3, #24]
  __HAL_SPI_CLEAR_TXTFFLAG(hspi);
 8004b5c:	699c      	ldr	r4, [r3, #24]
 8004b5e:	f044 0410 	orr.w	r4, r4, #16
 8004b62:	619c      	str	r4, [r3, #24]
  __HAL_SPI_DISABLE(hspi);
 8004b64:	681c      	ldr	r4, [r3, #0]
 8004b66:	f024 0401 	bic.w	r4, r4, #1
 8004b6a:	601c      	str	r4, [r3, #0]
  __HAL_SPI_DISABLE_IT(hspi, (SPI_IT_EOT | SPI_IT_TXP | SPI_IT_RXP | SPI_IT_DXP | SPI_IT_UDR | SPI_IT_OVR | \
 8004b6c:	691c      	ldr	r4, [r3, #16]
 8004b6e:	4021      	ands	r1, r4
 8004b70:	6119      	str	r1, [r3, #16]
                              SPI_IT_FRE | SPI_IT_MODF));

  /* Disable Tx DMA Request */
  CLEAR_BIT(hspi->Instance->CFG1, SPI_CFG1_TXDMAEN | SPI_CFG1_RXDMAEN);
 8004b72:	6899      	ldr	r1, [r3, #8]
 8004b74:	f421 4140 	bic.w	r1, r1, #49152	; 0xc000
 8004b78:	6099      	str	r1, [r3, #8]

  /* Report UnderRun error for non RX Only communication */
  if (hspi->State != HAL_SPI_STATE_BUSY_RX)
 8004b7a:	f890 1081 	ldrb.w	r1, [r0, #129]	; 0x81
 8004b7e:	2904      	cmp	r1, #4
 8004b80:	d001      	beq.n	8004b86 <SPI_CloseTransfer+0x3a>
  {
    if ((itflag & SPI_FLAG_UDR) != 0UL)
 8004b82:	0691      	lsls	r1, r2, #26
 8004b84:	d430      	bmi.n	8004be8 <SPI_CloseTransfer+0x9c>
      __HAL_SPI_CLEAR_UDRFLAG(hspi);
    }
  }

  /* Report OverRun error for non TX Only communication */
  if (hspi->State != HAL_SPI_STATE_BUSY_TX)
 8004b86:	f890 1081 	ldrb.w	r1, [r0, #129]	; 0x81
 8004b8a:	2903      	cmp	r1, #3
 8004b8c:	d001      	beq.n	8004b92 <SPI_CloseTransfer+0x46>
  {
    if ((itflag & SPI_FLAG_OVR) != 0UL)
 8004b8e:	0654      	lsls	r4, r2, #25
 8004b90:	d41f      	bmi.n	8004bd2 <SPI_CloseTransfer+0x86>
    }
#endif /* USE_SPI_CRC */
  }

  /* SPI Mode Fault error interrupt occurred -------------------------------*/
  if ((itflag & SPI_FLAG_MODF) != 0UL)
 8004b92:	0591      	lsls	r1, r2, #22
 8004b94:	d509      	bpl.n	8004baa <SPI_CloseTransfer+0x5e>
  {
    SET_BIT(hspi->ErrorCode, HAL_SPI_ERROR_MODF);
 8004b96:	f8d0 1084 	ldr.w	r1, [r0, #132]	; 0x84
 8004b9a:	f041 0101 	orr.w	r1, r1, #1
 8004b9e:	f8c0 1084 	str.w	r1, [r0, #132]	; 0x84
    __HAL_SPI_CLEAR_MODFFLAG(hspi);
 8004ba2:	6999      	ldr	r1, [r3, #24]
 8004ba4:	f441 7100 	orr.w	r1, r1, #512	; 0x200
 8004ba8:	6199      	str	r1, [r3, #24]
  }

  /* SPI Frame error interrupt occurred ------------------------------------*/
  if ((itflag & SPI_FLAG_FRE) != 0UL)
 8004baa:	05d2      	lsls	r2, r2, #23
 8004bac:	d509      	bpl.n	8004bc2 <SPI_CloseTransfer+0x76>
  {
    SET_BIT(hspi->ErrorCode, HAL_SPI_ERROR_FRE);
 8004bae:	f8d0 2084 	ldr.w	r2, [r0, #132]	; 0x84
 8004bb2:	f042 0208 	orr.w	r2, r2, #8
 8004bb6:	f8c0 2084 	str.w	r2, [r0, #132]	; 0x84
    __HAL_SPI_CLEAR_FREFLAG(hspi);
 8004bba:	699a      	ldr	r2, [r3, #24]
 8004bbc:	f442 7280 	orr.w	r2, r2, #256	; 0x100
 8004bc0:	619a      	str	r2, [r3, #24]
  }

  hspi->TxXferCount = (uint16_t)0UL;
 8004bc2:	2300      	movs	r3, #0
  hspi->RxXferCount = (uint16_t)0UL;
}
 8004bc4:	f85d 4b04 	ldr.w	r4, [sp], #4
  hspi->TxXferCount = (uint16_t)0UL;
 8004bc8:	f8a0 3062 	strh.w	r3, [r0, #98]	; 0x62
  hspi->RxXferCount = (uint16_t)0UL;
 8004bcc:	f8a0 306a 	strh.w	r3, [r0, #106]	; 0x6a
}
 8004bd0:	4770      	bx	lr
      SET_BIT(hspi->ErrorCode, HAL_SPI_ERROR_OVR);
 8004bd2:	f8d0 1084 	ldr.w	r1, [r0, #132]	; 0x84
 8004bd6:	f041 0104 	orr.w	r1, r1, #4
 8004bda:	f8c0 1084 	str.w	r1, [r0, #132]	; 0x84
      __HAL_SPI_CLEAR_OVRFLAG(hspi);
 8004bde:	6999      	ldr	r1, [r3, #24]
 8004be0:	f041 0140 	orr.w	r1, r1, #64	; 0x40
 8004be4:	6199      	str	r1, [r3, #24]
 8004be6:	e7d4      	b.n	8004b92 <SPI_CloseTransfer+0x46>
      SET_BIT(hspi->ErrorCode, HAL_SPI_ERROR_UDR);
 8004be8:	f8d0 1084 	ldr.w	r1, [r0, #132]	; 0x84
 8004bec:	f041 0180 	orr.w	r1, r1, #128	; 0x80
 8004bf0:	f8c0 1084 	str.w	r1, [r0, #132]	; 0x84
      __HAL_SPI_CLEAR_UDRFLAG(hspi);
 8004bf4:	6999      	ldr	r1, [r3, #24]
 8004bf6:	f041 0120 	orr.w	r1, r1, #32
 8004bfa:	6199      	str	r1, [r3, #24]
 8004bfc:	e7c3      	b.n	8004b86 <SPI_CloseTransfer+0x3a>
 8004bfe:	bf00      	nop
 8004c00:	fffffc90 	.word	0xfffffc90

08004c04 <HAL_SPI_Init>:
  if (hspi == NULL)
 8004c04:	2800      	cmp	r0, #0
 8004c06:	f000 80c9 	beq.w	8004d9c <HAL_SPI_Init+0x198>
  if ((!IS_SPI_HIGHEND_INSTANCE(hspi->Instance)) && (hspi->Init.DataSize > SPI_DATASIZE_16BIT))
 8004c0a:	4a66      	ldr	r2, [pc, #408]	; (8004da4 <HAL_SPI_Init+0x1a0>)
  hspi->Init.CRCCalculation = SPI_CRCCALCULATION_DISABLE;
 8004c0c:	2100      	movs	r1, #0
{
 8004c0e:	e92d 43f8 	stmdb	sp!, {r3, r4, r5, r6, r7, r8, r9, lr}
  if ((!IS_SPI_HIGHEND_INSTANCE(hspi->Instance)) && (hspi->Init.DataSize > SPI_DATASIZE_16BIT))
 8004c12:	6803      	ldr	r3, [r0, #0]
 8004c14:	4604      	mov	r4, r0
  hspi->Init.CRCCalculation = SPI_CRCCALCULATION_DISABLE;
 8004c16:	6281      	str	r1, [r0, #40]	; 0x28
  if ((!IS_SPI_HIGHEND_INSTANCE(hspi->Instance)) && (hspi->Init.DataSize > SPI_DATASIZE_16BIT))
 8004c18:	4293      	cmp	r3, r2
 8004c1a:	d017      	beq.n	8004c4c <HAL_SPI_Init+0x48>
 8004c1c:	f5a2 4278 	sub.w	r2, r2, #63488	; 0xf800
 8004c20:	4293      	cmp	r3, r2
 8004c22:	d013      	beq.n	8004c4c <HAL_SPI_Init+0x48>
 8004c24:	f502 6280 	add.w	r2, r2, #1024	; 0x400
 8004c28:	4293      	cmp	r3, r2
 8004c2a:	68c2      	ldr	r2, [r0, #12]
 8004c2c:	f000 80ae 	beq.w	8004d8c <HAL_SPI_Init+0x188>
 8004c30:	2a0f      	cmp	r2, #15
 8004c32:	d808      	bhi.n	8004c46 <HAL_SPI_Init+0x42>
  *               the configuration information for SPI module.
  * @retval Packet size occupied in the fifo
  */
static uint32_t SPI_GetPacketSize(SPI_HandleTypeDef *hspi)
{
  uint32_t fifo_threashold = (hspi->Init.FifoThreshold >> SPI_CFG1_FTHLV_Pos) + 1UL;
 8004c34:	6bc0      	ldr	r0, [r0, #60]	; 0x3c
  uint32_t data_size       = (hspi->Init.DataSize      >> SPI_CFG1_DSIZE_Pos) + 1UL;

  /* Convert data size to Byte */
  data_size = (data_size + 7UL) / 8UL;
 8004c36:	f102 0108 	add.w	r1, r2, #8
  uint32_t fifo_threashold = (hspi->Init.FifoThreshold >> SPI_CFG1_FTHLV_Pos) + 1UL;
 8004c3a:	0945      	lsrs	r5, r0, #5
  data_size = (data_size + 7UL) / 8UL;
 8004c3c:	08c9      	lsrs	r1, r1, #3

  return data_size * fifo_threashold;
 8004c3e:	fb05 1101 	mla	r1, r5, r1, r1
  if (((!IS_SPI_HIGHEND_INSTANCE(hspi->Instance)) && (packet_length > SPI_LOWEND_FIFO_SIZE)) ||
 8004c42:	2908      	cmp	r1, #8
 8004c44:	d916      	bls.n	8004c74 <HAL_SPI_Init+0x70>
    return HAL_ERROR;
 8004c46:	2001      	movs	r0, #1
}
 8004c48:	e8bd 83f8 	ldmia.w	sp!, {r3, r4, r5, r6, r7, r8, r9, pc}
  uint32_t data_size       = (hspi->Init.DataSize      >> SPI_CFG1_DSIZE_Pos) + 1UL;
 8004c4c:	68e2      	ldr	r2, [r4, #12]
  uint32_t fifo_threashold = (hspi->Init.FifoThreshold >> SPI_CFG1_FTHLV_Pos) + 1UL;
 8004c4e:	6be0      	ldr	r0, [r4, #60]	; 0x3c
  data_size = (data_size + 7UL) / 8UL;
 8004c50:	f102 0108 	add.w	r1, r2, #8
      ((IS_SPI_HIGHEND_INSTANCE(hspi->Instance)) && (packet_length > SPI_HIGHEND_FIFO_SIZE)))
 8004c54:	4e53      	ldr	r6, [pc, #332]	; (8004da4 <HAL_SPI_Init+0x1a0>)
  uint32_t fifo_threashold = (hspi->Init.FifoThreshold >> SPI_CFG1_FTHLV_Pos) + 1UL;
 8004c56:	0945      	lsrs	r5, r0, #5
  data_size = (data_size + 7UL) / 8UL;
 8004c58:	08c9      	lsrs	r1, r1, #3
  return data_size * fifo_threashold;
 8004c5a:	fb05 1101 	mla	r1, r5, r1, r1
      ((IS_SPI_HIGHEND_INSTANCE(hspi->Instance)) && (packet_length > SPI_HIGHEND_FIFO_SIZE)))
 8004c5e:	4d52      	ldr	r5, [pc, #328]	; (8004da8 <HAL_SPI_Init+0x1a4>)
 8004c60:	42ab      	cmp	r3, r5
 8004c62:	bf18      	it	ne
 8004c64:	42b3      	cmpne	r3, r6
 8004c66:	d003      	beq.n	8004c70 <HAL_SPI_Init+0x6c>
 8004c68:	f505 6580 	add.w	r5, r5, #1024	; 0x400
 8004c6c:	42ab      	cmp	r3, r5
 8004c6e:	d101      	bne.n	8004c74 <HAL_SPI_Init+0x70>
 8004c70:	2910      	cmp	r1, #16
 8004c72:	d8e8      	bhi.n	8004c46 <HAL_SPI_Init+0x42>
  if (hspi->State == HAL_SPI_STATE_RESET)
 8004c74:	f894 1081 	ldrb.w	r1, [r4, #129]	; 0x81
 8004c78:	f001 05ff 	and.w	r5, r1, #255	; 0xff
 8004c7c:	2900      	cmp	r1, #0
 8004c7e:	d07a      	beq.n	8004d76 <HAL_SPI_Init+0x172>
 8004c80:	f04f 0800 	mov.w	r8, #0
  hspi->State = HAL_SPI_STATE_BUSY;
 8004c84:	2102      	movs	r1, #2
  if ((hspi->Init.NSS == SPI_NSS_SOFT) && (((hspi->Init.Mode == SPI_MODE_MASTER) &&  \
 8004c86:	69a7      	ldr	r7, [r4, #24]
                                            (hspi->Init.NSSPolarity == SPI_NSS_POLARITY_LOW)) || \
 8004c88:	6ba5      	ldr	r5, [r4, #56]	; 0x38
  hspi->State = HAL_SPI_STATE_BUSY;
 8004c8a:	f884 1081 	strb.w	r1, [r4, #129]	; 0x81
  if ((hspi->Init.NSS == SPI_NSS_SOFT) && (((hspi->Init.Mode == SPI_MODE_MASTER) &&  \
 8004c8e:	f1b7 6f80 	cmp.w	r7, #67108864	; 0x4000000
  __HAL_SPI_DISABLE(hspi);
 8004c92:	6819      	ldr	r1, [r3, #0]
 8004c94:	f021 0101 	bic.w	r1, r1, #1
 8004c98:	6019      	str	r1, [r3, #0]
  crc_length = hspi->Instance->CFG1 & SPI_CFG1_CRCSIZE;
 8004c9a:	6899      	ldr	r1, [r3, #8]
 8004c9c:	f401 1cf8 	and.w	ip, r1, #2031616	; 0x1f0000
  if ((hspi->Init.NSS == SPI_NSS_SOFT) && (((hspi->Init.Mode == SPI_MODE_MASTER) &&  \
 8004ca0:	6861      	ldr	r1, [r4, #4]
 8004ca2:	d058      	beq.n	8004d56 <HAL_SPI_Init+0x152>
  if (((hspi->Init.Mode & SPI_MODE_MASTER) == SPI_MODE_MASTER) && (hspi->Init.DataSize >= SPI_DATASIZE_8BIT))
 8004ca4:	f411 0980 	ands.w	r9, r1, #4194304	; 0x400000
 8004ca8:	d001      	beq.n	8004cae <HAL_SPI_Init+0xaa>
 8004caa:	2a06      	cmp	r2, #6
 8004cac:	d849      	bhi.n	8004d42 <HAL_SPI_Init+0x13e>
    CLEAR_BIT(hspi->Instance->CR1, SPI_CR1_MASRX);
 8004cae:	f8d3 e000 	ldr.w	lr, [r3]
 8004cb2:	f42e 7e80 	bic.w	lr, lr, #256	; 0x100
 8004cb6:	f8c3 e000 	str.w	lr, [r3]
  WRITE_REG(hspi->Instance->CFG2, (hspi->Init.NSSPMode                | hspi->Init.TIMode    |
 8004cba:	6b66      	ldr	r6, [r4, #52]	; 0x34
  WRITE_REG(hspi->Instance->CFG1, (hspi->Init.BaudRatePrescaler | hspi->Init.CRCCalculation | crc_length |
 8004cbc:	ea42 0208 	orr.w	r2, r2, r8
  WRITE_REG(hspi->Instance->CFG2, (hspi->Init.NSSPMode                | hspi->Init.TIMode    |
 8004cc0:	4337      	orrs	r7, r6
 8004cc2:	6a66      	ldr	r6, [r4, #36]	; 0x24
 8004cc4:	4337      	orrs	r7, r6
 8004cc6:	6926      	ldr	r6, [r4, #16]
 8004cc8:	4337      	orrs	r7, r6
 8004cca:	6966      	ldr	r6, [r4, #20]
 8004ccc:	4337      	orrs	r7, r6
 8004cce:	6a26      	ldr	r6, [r4, #32]
 8004cd0:	4337      	orrs	r7, r6
 8004cd2:	6ce6      	ldr	r6, [r4, #76]	; 0x4c
 8004cd4:	4337      	orrs	r7, r6
 8004cd6:	68a6      	ldr	r6, [r4, #8]
 8004cd8:	4337      	orrs	r7, r6
 8004cda:	6ca6      	ldr	r6, [r4, #72]	; 0x48
 8004cdc:	4337      	orrs	r7, r6
  WRITE_REG(hspi->Instance->CFG1, (hspi->Init.BaudRatePrescaler | hspi->Init.CRCCalculation | crc_length |
 8004cde:	69e6      	ldr	r6, [r4, #28]
 8004ce0:	4332      	orrs	r2, r6
 8004ce2:	4302      	orrs	r2, r0
 8004ce4:	ea42 020c 	orr.w	r2, r2, ip
 8004ce8:	609a      	str	r2, [r3, #8]
  WRITE_REG(hspi->Instance->CFG2, (hspi->Init.NSSPMode                | hspi->Init.TIMode    |
 8004cea:	6da2      	ldr	r2, [r4, #88]	; 0x58
 8004cec:	433a      	orrs	r2, r7
 8004cee:	430a      	orrs	r2, r1
 8004cf0:	432a      	orrs	r2, r5
 8004cf2:	60da      	str	r2, [r3, #12]
  if (hspi->Init.Mode == SPI_MODE_SLAVE)
 8004cf4:	b9b9      	cbnz	r1, 8004d26 <HAL_SPI_Init+0x122>
      MODIFY_REG(hspi->Instance->CFG1, SPI_CFG1_UDRDET, SPI_CFG1_UDRDET_0);
 8004cf6:	689a      	ldr	r2, [r3, #8]
 8004cf8:	f422 52c0 	bic.w	r2, r2, #6144	; 0x1800
 8004cfc:	f442 6200 	orr.w	r2, r2, #2048	; 0x800
 8004d00:	609a      	str	r2, [r3, #8]
    MODIFY_REG(hspi->Instance->CFG1, SPI_CFG1_UDRCFG, SPI_CFG1_UDRCFG_1);
 8004d02:	689a      	ldr	r2, [r3, #8]
 8004d04:	f422 62c0 	bic.w	r2, r2, #1536	; 0x600
 8004d08:	f442 6280 	orr.w	r2, r2, #1024	; 0x400
 8004d0c:	609a      	str	r2, [r3, #8]
  CLEAR_BIT(hspi->Instance->I2SCFGR, SPI_I2SCFGR_I2SMOD);
 8004d0e:	6d1a      	ldr	r2, [r3, #80]	; 0x50
 8004d10:	f022 0201 	bic.w	r2, r2, #1
 8004d14:	651a      	str	r2, [r3, #80]	; 0x50
  hspi->ErrorCode = HAL_SPI_ERROR_NONE;
 8004d16:	2000      	movs	r0, #0
  hspi->State     = HAL_SPI_STATE_READY;
 8004d18:	2301      	movs	r3, #1
  hspi->ErrorCode = HAL_SPI_ERROR_NONE;
 8004d1a:	f8c4 0084 	str.w	r0, [r4, #132]	; 0x84
  hspi->State     = HAL_SPI_STATE_READY;
 8004d1e:	f884 3081 	strb.w	r3, [r4, #129]	; 0x81
}
 8004d22:	e8bd 83f8 	ldmia.w	sp!, {r3, r4, r5, r6, r7, r8, r9, pc}
  CLEAR_BIT(hspi->Instance->I2SCFGR, SPI_I2SCFGR_I2SMOD);
 8004d26:	6d1a      	ldr	r2, [r3, #80]	; 0x50
 8004d28:	f022 0201 	bic.w	r2, r2, #1
 8004d2c:	651a      	str	r2, [r3, #80]	; 0x50
  if ((hspi->Init.Mode & SPI_MODE_MASTER) == SPI_MODE_MASTER)
 8004d2e:	f1b9 0f00 	cmp.w	r9, #0
 8004d32:	d0f0      	beq.n	8004d16 <HAL_SPI_Init+0x112>
    MODIFY_REG(hspi->Instance->CFG2, SPI_CFG2_AFCNTR, (hspi->Init.MasterKeepIOState));
 8004d34:	68da      	ldr	r2, [r3, #12]
 8004d36:	6d61      	ldr	r1, [r4, #84]	; 0x54
 8004d38:	f022 4200 	bic.w	r2, r2, #2147483648	; 0x80000000
 8004d3c:	430a      	orrs	r2, r1
 8004d3e:	60da      	str	r2, [r3, #12]
 8004d40:	e7e9      	b.n	8004d16 <HAL_SPI_Init+0x112>
    MODIFY_REG(hspi->Instance->CR1, SPI_CR1_MASRX, hspi->Init.MasterReceiverAutoSusp);
 8004d42:	f8d3 e000 	ldr.w	lr, [r3]
 8004d46:	6d26      	ldr	r6, [r4, #80]	; 0x50
 8004d48:	f42e 7e80 	bic.w	lr, lr, #256	; 0x100
 8004d4c:	ea4e 0e06 	orr.w	lr, lr, r6
 8004d50:	f8c3 e000 	str.w	lr, [r3]
 8004d54:	e7b1      	b.n	8004cba <HAL_SPI_Init+0xb6>
  if ((hspi->Init.NSS == SPI_NSS_SOFT) && (((hspi->Init.Mode == SPI_MODE_MASTER) &&  \
 8004d56:	f5b1 0f80 	cmp.w	r1, #4194304	; 0x400000
 8004d5a:	d006      	beq.n	8004d6a <HAL_SPI_Init+0x166>
                                            (hspi->Init.NSSPolarity == SPI_NSS_POLARITY_LOW)) || \
 8004d5c:	2900      	cmp	r1, #0
 8004d5e:	d1a1      	bne.n	8004ca4 <HAL_SPI_Init+0xa0>
                                           ((hspi->Init.Mode == SPI_MODE_SLAVE) && \
 8004d60:	f1b5 5f80 	cmp.w	r5, #268435456	; 0x10000000
 8004d64:	d002      	beq.n	8004d6c <HAL_SPI_Init+0x168>
  if (((hspi->Init.Mode & SPI_MODE_MASTER) == SPI_MODE_MASTER) && (hspi->Init.DataSize >= SPI_DATASIZE_8BIT))
 8004d66:	4689      	mov	r9, r1
 8004d68:	e7a1      	b.n	8004cae <HAL_SPI_Init+0xaa>
  if ((hspi->Init.NSS == SPI_NSS_SOFT) && (((hspi->Init.Mode == SPI_MODE_MASTER) &&  \
 8004d6a:	b9cd      	cbnz	r5, 8004da0 <HAL_SPI_Init+0x19c>
    SET_BIT(hspi->Instance->CR1, SPI_CR1_SSI);
 8004d6c:	681e      	ldr	r6, [r3, #0]
 8004d6e:	f446 5680 	orr.w	r6, r6, #4096	; 0x1000
 8004d72:	601e      	str	r6, [r3, #0]
 8004d74:	e796      	b.n	8004ca4 <HAL_SPI_Init+0xa0>
    HAL_SPI_MspInit(hspi);
 8004d76:	4620      	mov	r0, r4
    hspi->Lock = HAL_UNLOCKED;
 8004d78:	f884 5080 	strb.w	r5, [r4, #128]	; 0x80
    HAL_SPI_MspInit(hspi);
 8004d7c:	f7fc f8c2 	bl	8000f04 <HAL_SPI_MspInit>
  __HAL_SPI_DISABLE(hspi);
 8004d80:	6823      	ldr	r3, [r4, #0]
  if (((hspi->Init.Mode & SPI_MODE_MASTER) == SPI_MODE_MASTER) && (hspi->Init.DataSize >= SPI_DATASIZE_8BIT))
 8004d82:	68e2      	ldr	r2, [r4, #12]
  WRITE_REG(hspi->Instance->CFG1, (hspi->Init.BaudRatePrescaler | hspi->Init.CRCCalculation | crc_length |
 8004d84:	f8d4 8028 	ldr.w	r8, [r4, #40]	; 0x28
 8004d88:	6be0      	ldr	r0, [r4, #60]	; 0x3c
 8004d8a:	e77b      	b.n	8004c84 <HAL_SPI_Init+0x80>
  uint32_t fifo_threashold = (hspi->Init.FifoThreshold >> SPI_CFG1_FTHLV_Pos) + 1UL;
 8004d8c:	6bc0      	ldr	r0, [r0, #60]	; 0x3c
  data_size = (data_size + 7UL) / 8UL;
 8004d8e:	f102 0108 	add.w	r1, r2, #8
  uint32_t fifo_threashold = (hspi->Init.FifoThreshold >> SPI_CFG1_FTHLV_Pos) + 1UL;
 8004d92:	0945      	lsrs	r5, r0, #5
  data_size = (data_size + 7UL) / 8UL;
 8004d94:	08c9      	lsrs	r1, r1, #3
  return data_size * fifo_threashold;
 8004d96:	fb05 1101 	mla	r1, r5, r1, r1
  if (((!IS_SPI_HIGHEND_INSTANCE(hspi->Instance)) && (packet_length > SPI_LOWEND_FIFO_SIZE)) ||
 8004d9a:	e769      	b.n	8004c70 <HAL_SPI_Init+0x6c>
    return HAL_ERROR;
 8004d9c:	2001      	movs	r0, #1
}
 8004d9e:	4770      	bx	lr
  if (((hspi->Init.Mode & SPI_MODE_MASTER) == SPI_MODE_MASTER) && (hspi->Init.DataSize >= SPI_DATASIZE_8BIT))
 8004da0:	4689      	mov	r9, r1
 8004da2:	e782      	b.n	8004caa <HAL_SPI_Init+0xa6>
 8004da4:	40013000 	.word	0x40013000
 8004da8:	40003800 	.word	0x40003800

08004dac <HAL_SPI_TransmitReceive>:
{
 8004dac:	e92d 47f0 	stmdb	sp!, {r4, r5, r6, r7, r8, r9, sl, lr}
 8004db0:	461d      	mov	r5, r3
  __HAL_LOCK(hspi);
 8004db2:	f890 3080 	ldrb.w	r3, [r0, #128]	; 0x80
{
 8004db6:	9f08      	ldr	r7, [sp, #32]
  __HAL_LOCK(hspi);
 8004db8:	2b01      	cmp	r3, #1
 8004dba:	f000 80b9 	beq.w	8004f30 <HAL_SPI_TransmitReceive+0x184>
 8004dbe:	2301      	movs	r3, #1
 8004dc0:	4604      	mov	r4, r0
 8004dc2:	4688      	mov	r8, r1
 8004dc4:	4691      	mov	r9, r2
 8004dc6:	f880 3080 	strb.w	r3, [r0, #128]	; 0x80
  __IO uint16_t *ptxdr_16bits = (__IO uint16_t *)(&(hspi->Instance->TXDR));
 8004dca:	f8d0 a000 	ldr.w	sl, [r0]
  tickstart = HAL_GetTick();
 8004dce:	f7fc f9bb 	bl	8001148 <HAL_GetTick>
  if (hspi->State != HAL_SPI_STATE_READY)
 8004dd2:	f894 1081 	ldrb.w	r1, [r4, #129]	; 0x81
  tickstart = HAL_GetTick();
 8004dd6:	4606      	mov	r6, r0
  if (hspi->State != HAL_SPI_STATE_READY)
 8004dd8:	2901      	cmp	r1, #1
 8004dda:	b2cb      	uxtb	r3, r1
 8004ddc:	f040 80a1 	bne.w	8004f22 <HAL_SPI_TransmitReceive+0x176>
  if ((pTxData == NULL) || (pRxData == NULL) || (Size == 0UL))
 8004de0:	f1b9 0f00 	cmp.w	r9, #0
 8004de4:	bf18      	it	ne
 8004de6:	f1b8 0f00 	cmpne.w	r8, #0
 8004dea:	f000 8094 	beq.w	8004f16 <HAL_SPI_TransmitReceive+0x16a>
 8004dee:	fab5 f285 	clz	r2, r5
 8004df2:	0952      	lsrs	r2, r2, #5
 8004df4:	2d00      	cmp	r5, #0
 8004df6:	f000 808e 	beq.w	8004f16 <HAL_SPI_TransmitReceive+0x16a>
  SPI_2LINES(hspi);
 8004dfa:	6823      	ldr	r3, [r4, #0]
  hspi->State       = HAL_SPI_STATE_BUSY_TX_RX;
 8004dfc:	2105      	movs	r1, #5
  hspi->pRxBuffPtr  = (uint8_t *)pRxData;
 8004dfe:	f8c4 9064 	str.w	r9, [r4, #100]	; 0x64
  hspi->State       = HAL_SPI_STATE_BUSY_TX_RX;
 8004e02:	f884 1081 	strb.w	r1, [r4, #129]	; 0x81
  hspi->ErrorCode   = HAL_SPI_ERROR_NONE;
 8004e06:	f8c4 2084 	str.w	r2, [r4, #132]	; 0x84
  hspi->RxXferCount = Size;
 8004e0a:	f8a4 506a 	strh.w	r5, [r4, #106]	; 0x6a
  hspi->TxXferCount = Size;
 8004e0e:	f8a4 5062 	strh.w	r5, [r4, #98]	; 0x62
  hspi->pTxBuffPtr  = (const uint8_t *)pTxData;
 8004e12:	f8c4 805c 	str.w	r8, [r4, #92]	; 0x5c
  hspi->RxXferSize  = Size;
 8004e16:	f8a4 5068 	strh.w	r5, [r4, #104]	; 0x68
  hspi->TxXferSize  = Size;
 8004e1a:	f8a4 5060 	strh.w	r5, [r4, #96]	; 0x60
  hspi->TxISR       = NULL;
 8004e1e:	e9c4 221c 	strd	r2, r2, [r4, #112]	; 0x70
  SPI_2LINES(hspi);
 8004e22:	68da      	ldr	r2, [r3, #12]
 8004e24:	f422 22c0 	bic.w	r2, r2, #393216	; 0x60000
 8004e28:	60da      	str	r2, [r3, #12]
  MODIFY_REG(hspi->Instance->CR2, SPI_CR2_TSIZE, Size);
 8004e2a:	4a89      	ldr	r2, [pc, #548]	; (8005050 <HAL_SPI_TransmitReceive+0x2a4>)
 8004e2c:	6859      	ldr	r1, [r3, #4]
 8004e2e:	400a      	ands	r2, r1
 8004e30:	432a      	orrs	r2, r5
 8004e32:	605a      	str	r2, [r3, #4]
  __HAL_SPI_ENABLE(hspi);
 8004e34:	681a      	ldr	r2, [r3, #0]
 8004e36:	f042 0201 	orr.w	r2, r2, #1
 8004e3a:	601a      	str	r2, [r3, #0]
  if (hspi->Init.Mode == SPI_MODE_MASTER)
 8004e3c:	6862      	ldr	r2, [r4, #4]
 8004e3e:	f5b2 0f80 	cmp.w	r2, #4194304	; 0x400000
 8004e42:	f000 80ee 	beq.w	8005022 <HAL_SPI_TransmitReceive+0x276>
      if ((((HAL_GetTick() - tickstart) >=  Timeout) && (Timeout != HAL_MAX_DELAY)) || (Timeout == 0U))
 8004e46:	f117 0901 	adds.w	r9, r7, #1
  if (hspi->Init.DataSize > SPI_DATASIZE_16BIT)
 8004e4a:	68e2      	ldr	r2, [r4, #12]
      if ((((HAL_GetTick() - tickstart) >=  Timeout) && (Timeout != HAL_MAX_DELAY)) || (Timeout == 0U))
 8004e4c:	46a8      	mov	r8, r5
 8004e4e:	bf18      	it	ne
 8004e50:	f04f 0901 	movne.w	r9, #1
  if (hspi->Init.DataSize > SPI_DATASIZE_16BIT)
 8004e54:	2a0f      	cmp	r2, #15
 8004e56:	f200 80aa 	bhi.w	8004fae <HAL_SPI_TransmitReceive+0x202>
  else if (hspi->Init.DataSize > SPI_DATASIZE_8BIT)
 8004e5a:	2a07      	cmp	r2, #7
 8004e5c:	d96d      	bls.n	8004f3a <HAL_SPI_TransmitReceive+0x18e>
 8004e5e:	e000      	b.n	8004e62 <HAL_SPI_TransmitReceive+0xb6>
  while ((__HAL_SPI_GET_FLAG(hspi, Flag) ? SET : RESET) == Status)
 8004e60:	6823      	ldr	r3, [r4, #0]
      if (__HAL_SPI_GET_FLAG(hspi, SPI_FLAG_TXP) && (initial_TxXferCount > 0UL))
 8004e62:	695a      	ldr	r2, [r3, #20]
 8004e64:	0792      	lsls	r2, r2, #30
 8004e66:	d50f      	bpl.n	8004e88 <HAL_SPI_TransmitReceive+0xdc>
 8004e68:	b175      	cbz	r5, 8004e88 <HAL_SPI_TransmitReceive+0xdc>
        *ptxdr_16bits = *((const uint16_t *)hspi->pTxBuffPtr);
 8004e6a:	6de2      	ldr	r2, [r4, #92]	; 0x5c
 8004e6c:	f832 1b02 	ldrh.w	r1, [r2], #2
 8004e70:	f8aa 1020 	strh.w	r1, [sl, #32]
        hspi->pTxBuffPtr += sizeof(uint16_t);
 8004e74:	65e2      	str	r2, [r4, #92]	; 0x5c
        hspi->TxXferCount--;
 8004e76:	f8b4 2062 	ldrh.w	r2, [r4, #98]	; 0x62
 8004e7a:	3a01      	subs	r2, #1
 8004e7c:	b292      	uxth	r2, r2
 8004e7e:	f8a4 2062 	strh.w	r2, [r4, #98]	; 0x62
        initial_TxXferCount = hspi->TxXferCount;
 8004e82:	f8b4 5062 	ldrh.w	r5, [r4, #98]	; 0x62
 8004e86:	b2ad      	uxth	r5, r5
      if ((__HAL_SPI_GET_FLAG(hspi, SPI_FLAG_RXP)) && (initial_RxXferCount > 0UL))
 8004e88:	695b      	ldr	r3, [r3, #20]
 8004e8a:	07d8      	lsls	r0, r3, #31
 8004e8c:	d512      	bpl.n	8004eb4 <HAL_SPI_TransmitReceive+0x108>
 8004e8e:	f1b8 0f00 	cmp.w	r8, #0
 8004e92:	d00f      	beq.n	8004eb4 <HAL_SPI_TransmitReceive+0x108>
        *((uint16_t *)hspi->pRxBuffPtr) = *prxdr_16bits;
 8004e94:	f8ba 2030 	ldrh.w	r2, [sl, #48]	; 0x30
 8004e98:	6e63      	ldr	r3, [r4, #100]	; 0x64
 8004e9a:	f823 2b02 	strh.w	r2, [r3], #2
        hspi->pRxBuffPtr += sizeof(uint16_t);
 8004e9e:	6663      	str	r3, [r4, #100]	; 0x64
        hspi->RxXferCount--;
 8004ea0:	f8b4 306a 	ldrh.w	r3, [r4, #106]	; 0x6a
 8004ea4:	3b01      	subs	r3, #1
 8004ea6:	b29b      	uxth	r3, r3
 8004ea8:	f8a4 306a 	strh.w	r3, [r4, #106]	; 0x6a
        initial_RxXferCount = hspi->RxXferCount;
 8004eac:	f8b4 806a 	ldrh.w	r8, [r4, #106]	; 0x6a
 8004eb0:	fa1f f888 	uxth.w	r8, r8
      if ((((HAL_GetTick() - tickstart) >=  Timeout) && (Timeout != HAL_MAX_DELAY)) || (Timeout == 0U))
 8004eb4:	f7fc f948 	bl	8001148 <HAL_GetTick>
 8004eb8:	1b80      	subs	r0, r0, r6
 8004eba:	42b8      	cmp	r0, r7
 8004ebc:	d303      	bcc.n	8004ec6 <HAL_SPI_TransmitReceive+0x11a>
 8004ebe:	f1b9 0f00 	cmp.w	r9, #0
 8004ec2:	f040 80b3 	bne.w	800502c <HAL_SPI_TransmitReceive+0x280>
    while ((initial_TxXferCount > 0UL) || (initial_RxXferCount > 0UL))
 8004ec6:	ea45 0308 	orr.w	r3, r5, r8
 8004eca:	b29b      	uxth	r3, r3
 8004ecc:	2b00      	cmp	r3, #0
 8004ece:	d1c7      	bne.n	8004e60 <HAL_SPI_TransmitReceive+0xb4>
  while ((__HAL_SPI_GET_FLAG(hspi, Flag) ? SET : RESET) == Status)
 8004ed0:	6823      	ldr	r3, [r4, #0]
 8004ed2:	695b      	ldr	r3, [r3, #20]
 8004ed4:	071b      	lsls	r3, r3, #28
 8004ed6:	d40d      	bmi.n	8004ef4 <HAL_SPI_TransmitReceive+0x148>
    if ((((HAL_GetTick() - Tickstart) >=  Timeout) && (Timeout != HAL_MAX_DELAY)) || (Timeout == 0U))
 8004ed8:	f7fc f936 	bl	8001148 <HAL_GetTick>
 8004edc:	1b80      	subs	r0, r0, r6
 8004ede:	4287      	cmp	r7, r0
 8004ee0:	d8f6      	bhi.n	8004ed0 <HAL_SPI_TransmitReceive+0x124>
 8004ee2:	f1b9 0f00 	cmp.w	r9, #0
 8004ee6:	d0f3      	beq.n	8004ed0 <HAL_SPI_TransmitReceive+0x124>
    SET_BIT(hspi->ErrorCode, HAL_SPI_ERROR_FLAG);
 8004ee8:	f8d4 3084 	ldr.w	r3, [r4, #132]	; 0x84
 8004eec:	f043 0320 	orr.w	r3, r3, #32
 8004ef0:	f8c4 3084 	str.w	r3, [r4, #132]	; 0x84
  SPI_CloseTransfer(hspi);
 8004ef4:	4620      	mov	r0, r4
 8004ef6:	f7ff fe29 	bl	8004b4c <SPI_CloseTransfer>
  hspi->State = HAL_SPI_STATE_READY;
 8004efa:	2301      	movs	r3, #1
  __HAL_UNLOCK(hspi);
 8004efc:	2200      	movs	r2, #0
  hspi->State = HAL_SPI_STATE_READY;
 8004efe:	f884 3081 	strb.w	r3, [r4, #129]	; 0x81
  if (hspi->ErrorCode != HAL_SPI_ERROR_NONE)
 8004f02:	f8d4 3084 	ldr.w	r3, [r4, #132]	; 0x84
  __HAL_UNLOCK(hspi);
 8004f06:	f884 2080 	strb.w	r2, [r4, #128]	; 0x80
  __HAL_LOCK(hspi);
 8004f0a:	1a9b      	subs	r3, r3, r2
 8004f0c:	bf18      	it	ne
 8004f0e:	2301      	movne	r3, #1
}
 8004f10:	4618      	mov	r0, r3
 8004f12:	e8bd 87f0 	ldmia.w	sp!, {r4, r5, r6, r7, r8, r9, sl, pc}
    __HAL_UNLOCK(hspi);
 8004f16:	2200      	movs	r2, #0
 8004f18:	f884 2080 	strb.w	r2, [r4, #128]	; 0x80
}
 8004f1c:	4618      	mov	r0, r3
 8004f1e:	e8bd 87f0 	ldmia.w	sp!, {r4, r5, r6, r7, r8, r9, sl, pc}
    __HAL_UNLOCK(hspi);
 8004f22:	2200      	movs	r2, #0
    return errorcode;
 8004f24:	2302      	movs	r3, #2
    __HAL_UNLOCK(hspi);
 8004f26:	f884 2080 	strb.w	r2, [r4, #128]	; 0x80
}
 8004f2a:	4618      	mov	r0, r3
 8004f2c:	e8bd 87f0 	ldmia.w	sp!, {r4, r5, r6, r7, r8, r9, sl, pc}
  __HAL_LOCK(hspi);
 8004f30:	2302      	movs	r3, #2
}
 8004f32:	4618      	mov	r0, r3
 8004f34:	e8bd 87f0 	ldmia.w	sp!, {r4, r5, r6, r7, r8, r9, sl, pc}
  while ((__HAL_SPI_GET_FLAG(hspi, Flag) ? SET : RESET) == Status)
 8004f38:	6823      	ldr	r3, [r4, #0]
      if ((__HAL_SPI_GET_FLAG(hspi, SPI_FLAG_TXP)) && (initial_TxXferCount > 0UL))
 8004f3a:	695a      	ldr	r2, [r3, #20]
 8004f3c:	0791      	lsls	r1, r2, #30
 8004f3e:	d511      	bpl.n	8004f64 <HAL_SPI_TransmitReceive+0x1b8>
 8004f40:	b185      	cbz	r5, 8004f64 <HAL_SPI_TransmitReceive+0x1b8>
        *((__IO uint8_t *)&hspi->Instance->TXDR) = *((const uint8_t *)hspi->pTxBuffPtr);
 8004f42:	6de2      	ldr	r2, [r4, #92]	; 0x5c
 8004f44:	7812      	ldrb	r2, [r2, #0]
 8004f46:	f883 2020 	strb.w	r2, [r3, #32]
        hspi->TxXferCount--;
 8004f4a:	f8b4 3062 	ldrh.w	r3, [r4, #98]	; 0x62
 8004f4e:	3b01      	subs	r3, #1
 8004f50:	b29b      	uxth	r3, r3
 8004f52:	f8a4 3062 	strh.w	r3, [r4, #98]	; 0x62
        hspi->pTxBuffPtr += sizeof(uint8_t);
 8004f56:	6de3      	ldr	r3, [r4, #92]	; 0x5c
        initial_TxXferCount = hspi->TxXferCount;
 8004f58:	f8b4 5062 	ldrh.w	r5, [r4, #98]	; 0x62
        hspi->pTxBuffPtr += sizeof(uint8_t);
 8004f5c:	3301      	adds	r3, #1
        initial_TxXferCount = hspi->TxXferCount;
 8004f5e:	b2ad      	uxth	r5, r5
        hspi->pTxBuffPtr += sizeof(uint8_t);
 8004f60:	65e3      	str	r3, [r4, #92]	; 0x5c
      if ((__HAL_SPI_GET_FLAG(hspi, SPI_FLAG_RXP)) && (initial_RxXferCount > 0UL))
 8004f62:	6823      	ldr	r3, [r4, #0]
 8004f64:	695a      	ldr	r2, [r3, #20]
 8004f66:	07d2      	lsls	r2, r2, #31
 8004f68:	d513      	bpl.n	8004f92 <HAL_SPI_TransmitReceive+0x1e6>
 8004f6a:	f1b8 0f00 	cmp.w	r8, #0
 8004f6e:	d010      	beq.n	8004f92 <HAL_SPI_TransmitReceive+0x1e6>
        *((uint8_t *)hspi->pRxBuffPtr) = *((__IO uint8_t *)&hspi->Instance->RXDR);
 8004f70:	f893 3030 	ldrb.w	r3, [r3, #48]	; 0x30
 8004f74:	6e62      	ldr	r2, [r4, #100]	; 0x64
 8004f76:	7013      	strb	r3, [r2, #0]
        hspi->RxXferCount--;
 8004f78:	f8b4 306a 	ldrh.w	r3, [r4, #106]	; 0x6a
 8004f7c:	3b01      	subs	r3, #1
 8004f7e:	b29b      	uxth	r3, r3
 8004f80:	f8a4 306a 	strh.w	r3, [r4, #106]	; 0x6a
        hspi->pRxBuffPtr += sizeof(uint8_t);
 8004f84:	6e63      	ldr	r3, [r4, #100]	; 0x64
        initial_RxXferCount = hspi->RxXferCount;
 8004f86:	f8b4 806a 	ldrh.w	r8, [r4, #106]	; 0x6a
        hspi->pRxBuffPtr += sizeof(uint8_t);
 8004f8a:	3301      	adds	r3, #1
        initial_RxXferCount = hspi->RxXferCount;
 8004f8c:	fa1f f888 	uxth.w	r8, r8
        hspi->pRxBuffPtr += sizeof(uint8_t);
 8004f90:	6663      	str	r3, [r4, #100]	; 0x64
      if ((((HAL_GetTick() - tickstart) >=  Timeout) && (Timeout != HAL_MAX_DELAY)) || (Timeout == 0U))
 8004f92:	f7fc f8d9 	bl	8001148 <HAL_GetTick>
 8004f96:	1b80      	subs	r0, r0, r6
 8004f98:	42b8      	cmp	r0, r7
 8004f9a:	d302      	bcc.n	8004fa2 <HAL_SPI_TransmitReceive+0x1f6>
 8004f9c:	f1b9 0f00 	cmp.w	r9, #0
 8004fa0:	d144      	bne.n	800502c <HAL_SPI_TransmitReceive+0x280>
    while ((initial_TxXferCount > 0UL) || (initial_RxXferCount > 0UL))
 8004fa2:	ea45 0308 	orr.w	r3, r5, r8
 8004fa6:	b29b      	uxth	r3, r3
 8004fa8:	2b00      	cmp	r3, #0
 8004faa:	d1c5      	bne.n	8004f38 <HAL_SPI_TransmitReceive+0x18c>
 8004fac:	e790      	b.n	8004ed0 <HAL_SPI_TransmitReceive+0x124>
      if (((hspi->Instance->SR & (SPI_FLAG_RXWNE | SPI_FLAG_EOT)) != 0UL) && (initial_RxXferCount > 0UL))
 8004fae:	f248 0a08 	movw	sl, #32776	; 0x8008
      if ((__HAL_SPI_GET_FLAG(hspi, SPI_FLAG_TXP)) && (initial_TxXferCount > 0UL))
 8004fb2:	695a      	ldr	r2, [r3, #20]
 8004fb4:	0791      	lsls	r1, r2, #30
 8004fb6:	d50e      	bpl.n	8004fd6 <HAL_SPI_TransmitReceive+0x22a>
 8004fb8:	b16d      	cbz	r5, 8004fd6 <HAL_SPI_TransmitReceive+0x22a>
        *((__IO uint32_t *)&hspi->Instance->TXDR) = *((const uint32_t *)hspi->pTxBuffPtr);
 8004fba:	6de2      	ldr	r2, [r4, #92]	; 0x5c
 8004fbc:	f852 1b04 	ldr.w	r1, [r2], #4
 8004fc0:	6219      	str	r1, [r3, #32]
        hspi->pTxBuffPtr += sizeof(uint32_t);
 8004fc2:	65e2      	str	r2, [r4, #92]	; 0x5c
        hspi->TxXferCount --;
 8004fc4:	f8b4 2062 	ldrh.w	r2, [r4, #98]	; 0x62
 8004fc8:	3a01      	subs	r2, #1
 8004fca:	b292      	uxth	r2, r2
 8004fcc:	f8a4 2062 	strh.w	r2, [r4, #98]	; 0x62
        initial_TxXferCount = hspi->TxXferCount;
 8004fd0:	f8b4 5062 	ldrh.w	r5, [r4, #98]	; 0x62
 8004fd4:	b2ad      	uxth	r5, r5
      if (((hspi->Instance->SR & (SPI_FLAG_RXWNE | SPI_FLAG_EOT)) != 0UL) && (initial_RxXferCount > 0UL))
 8004fd6:	695a      	ldr	r2, [r3, #20]
 8004fd8:	ea12 0f0a 	tst.w	r2, sl
 8004fdc:	d011      	beq.n	8005002 <HAL_SPI_TransmitReceive+0x256>
 8004fde:	f1b8 0f00 	cmp.w	r8, #0
 8004fe2:	d00e      	beq.n	8005002 <HAL_SPI_TransmitReceive+0x256>
        *((uint32_t *)hspi->pRxBuffPtr) = *((__IO uint32_t *)&hspi->Instance->RXDR);
 8004fe4:	6b19      	ldr	r1, [r3, #48]	; 0x30
        hspi->RxXferCount --;
 8004fe6:	f8b4 306a 	ldrh.w	r3, [r4, #106]	; 0x6a
        *((uint32_t *)hspi->pRxBuffPtr) = *((__IO uint32_t *)&hspi->Instance->RXDR);
 8004fea:	6e62      	ldr	r2, [r4, #100]	; 0x64
        hspi->RxXferCount --;
 8004fec:	3b01      	subs	r3, #1
        *((uint32_t *)hspi->pRxBuffPtr) = *((__IO uint32_t *)&hspi->Instance->RXDR);
 8004fee:	f842 1b04 	str.w	r1, [r2], #4
        hspi->RxXferCount --;
 8004ff2:	b29b      	uxth	r3, r3
        hspi->pRxBuffPtr += sizeof(uint32_t);
 8004ff4:	6662      	str	r2, [r4, #100]	; 0x64
        hspi->RxXferCount --;
 8004ff6:	f8a4 306a 	strh.w	r3, [r4, #106]	; 0x6a
        initial_RxXferCount = hspi->RxXferCount;
 8004ffa:	f8b4 806a 	ldrh.w	r8, [r4, #106]	; 0x6a
 8004ffe:	fa1f f888 	uxth.w	r8, r8
      if ((((HAL_GetTick() - tickstart) >=  Timeout) && (Timeout != HAL_MAX_DELAY)) || (Timeout == 0U))
 8005002:	f7fc f8a1 	bl	8001148 <HAL_GetTick>
 8005006:	1b80      	subs	r0, r0, r6
    while ((initial_TxXferCount > 0UL) || (initial_RxXferCount > 0UL))
 8005008:	ea45 0308 	orr.w	r3, r5, r8
      if ((((HAL_GetTick() - tickstart) >=  Timeout) && (Timeout != HAL_MAX_DELAY)) || (Timeout == 0U))
 800500c:	42b8      	cmp	r0, r7
    while ((initial_TxXferCount > 0UL) || (initial_RxXferCount > 0UL))
 800500e:	b29b      	uxth	r3, r3
      if ((((HAL_GetTick() - tickstart) >=  Timeout) && (Timeout != HAL_MAX_DELAY)) || (Timeout == 0U))
 8005010:	d302      	bcc.n	8005018 <HAL_SPI_TransmitReceive+0x26c>
 8005012:	f1b9 0f00 	cmp.w	r9, #0
 8005016:	d109      	bne.n	800502c <HAL_SPI_TransmitReceive+0x280>
    while ((initial_TxXferCount > 0UL) || (initial_RxXferCount > 0UL))
 8005018:	2b00      	cmp	r3, #0
 800501a:	f43f af59 	beq.w	8004ed0 <HAL_SPI_TransmitReceive+0x124>
  while ((__HAL_SPI_GET_FLAG(hspi, Flag) ? SET : RESET) == Status)
 800501e:	6823      	ldr	r3, [r4, #0]
 8005020:	e7c7      	b.n	8004fb2 <HAL_SPI_TransmitReceive+0x206>
    SET_BIT(hspi->Instance->CR1, SPI_CR1_CSTART);
 8005022:	681a      	ldr	r2, [r3, #0]
 8005024:	f442 7200 	orr.w	r2, r2, #512	; 0x200
 8005028:	601a      	str	r2, [r3, #0]
 800502a:	e70c      	b.n	8004e46 <HAL_SPI_TransmitReceive+0x9a>
        SPI_CloseTransfer(hspi);
 800502c:	4620      	mov	r0, r4
 800502e:	f7ff fd8d 	bl	8004b4c <SPI_CloseTransfer>
        SET_BIT(hspi->ErrorCode, HAL_SPI_ERROR_TIMEOUT);
 8005032:	f8d4 2084 	ldr.w	r2, [r4, #132]	; 0x84
        hspi->State = HAL_SPI_STATE_READY;
 8005036:	2101      	movs	r1, #1
        __HAL_UNLOCK(hspi);
 8005038:	2400      	movs	r4, #0
        SET_BIT(hspi->ErrorCode, HAL_SPI_ERROR_TIMEOUT);
 800503a:	f442 7280 	orr.w	r2, r2, #256	; 0x100
        return HAL_TIMEOUT;
 800503e:	2303      	movs	r3, #3
        __HAL_UNLOCK(hspi);
 8005040:	f880 4080 	strb.w	r4, [r0, #128]	; 0x80
        SET_BIT(hspi->ErrorCode, HAL_SPI_ERROR_TIMEOUT);
 8005044:	f8c0 2084 	str.w	r2, [r0, #132]	; 0x84
        hspi->State = HAL_SPI_STATE_READY;
 8005048:	f880 1081 	strb.w	r1, [r0, #129]	; 0x81
        return HAL_TIMEOUT;
 800504c:	e766      	b.n	8004f1c <HAL_SPI_TransmitReceive+0x170>
 800504e:	bf00      	nop
 8005050:	ffff0000 	.word	0xffff0000

08005054 <arm_biquad_cascade_df2T_f32>:
 8005054:	e92d 4ff0 	stmdb	sp!, {r4, r5, r6, r7, r8, r9, sl, fp, lr}
 8005058:	7807      	ldrb	r7, [r0, #0]
 800505a:	ea4f 1e13 	mov.w	lr, r3, lsr #4
 800505e:	6885      	ldr	r5, [r0, #8]
 8005060:	3514      	adds	r5, #20
 8005062:	6846      	ldr	r6, [r0, #4]
 8005064:	3608      	adds	r6, #8
 8005066:	ea4f 198e 	mov.w	r9, lr, lsl #6
 800506a:	eb02 0b09 	add.w	fp, r2, r9
 800506e:	f003 080f 	and.w	r8, r3, #15
 8005072:	ea4f 0a88 	mov.w	sl, r8, lsl #2
 8005076:	ed55 7a05 	vldr	s15, [r5, #-20]	; 0xffffffec
 800507a:	ed15 7a04 	vldr	s14, [r5, #-16]
 800507e:	ed55 6a03 	vldr	s13, [r5, #-12]
 8005082:	ed15 6a02 	vldr	s12, [r5, #-8]
 8005086:	ed55 5a01 	vldr	s11, [r5, #-4]
 800508a:	46b4      	mov	ip, r6
 800508c:	ed56 3a02 	vldr	s7, [r6, #-8]
 8005090:	ed16 4a01 	vldr	s8, [r6, #-4]
 8005094:	f1be 0f00 	cmp.w	lr, #0
 8005098:	f000 8195 	beq.w	80053c6 <arm_biquad_cascade_df2T_f32+0x372>
 800509c:	f101 0040 	add.w	r0, r1, #64	; 0x40
 80050a0:	f102 0340 	add.w	r3, r2, #64	; 0x40
 80050a4:	4674      	mov	r4, lr
 80050a6:	ed10 3a10 	vldr	s6, [r0, #-64]	; 0xffffffc0
 80050aa:	ee27 5a83 	vmul.f32	s10, s15, s6
 80050ae:	ee35 5a23 	vadd.f32	s10, s10, s7
 80050b2:	ee67 4a03 	vmul.f32	s9, s14, s6
 80050b6:	ee34 4a84 	vadd.f32	s8, s9, s8
 80050ba:	ee66 4a05 	vmul.f32	s9, s12, s10
 80050be:	ee34 4a84 	vadd.f32	s8, s9, s8
 80050c2:	ee26 3a83 	vmul.f32	s6, s13, s6
 80050c6:	ed03 5a10 	vstr	s10, [r3, #-64]	; 0xffffffc0
 80050ca:	ed50 3a0f 	vldr	s7, [r0, #-60]	; 0xffffffc4
 80050ce:	ee67 4aa3 	vmul.f32	s9, s15, s7
 80050d2:	ee74 4a84 	vadd.f32	s9, s9, s8
 80050d6:	ee25 5a85 	vmul.f32	s10, s11, s10
 80050da:	ee35 5a03 	vadd.f32	s10, s10, s6
 80050de:	ee27 4a23 	vmul.f32	s8, s14, s7
 80050e2:	ee35 5a04 	vadd.f32	s10, s10, s8
 80050e6:	ee26 3a24 	vmul.f32	s6, s12, s9
 80050ea:	ee33 3a05 	vadd.f32	s6, s6, s10
 80050ee:	ee66 3aa3 	vmul.f32	s7, s13, s7
 80050f2:	ed43 4a0f 	vstr	s9, [r3, #-60]	; 0xffffffc4
 80050f6:	ed10 4a0e 	vldr	s8, [r0, #-56]	; 0xffffffc8
 80050fa:	ee27 5a84 	vmul.f32	s10, s15, s8
 80050fe:	ee35 5a03 	vadd.f32	s10, s10, s6
 8005102:	ee65 4aa4 	vmul.f32	s9, s11, s9
 8005106:	ee74 4aa3 	vadd.f32	s9, s9, s7
 800510a:	ee67 3a04 	vmul.f32	s7, s14, s8
 800510e:	ee74 4aa3 	vadd.f32	s9, s9, s7
 8005112:	ee26 3a05 	vmul.f32	s6, s12, s10
 8005116:	ee33 3a24 	vadd.f32	s6, s6, s9
 800511a:	ee66 3a84 	vmul.f32	s7, s13, s8
 800511e:	ed03 5a0e 	vstr	s10, [r3, #-56]	; 0xffffffc8
 8005122:	ed10 4a0d 	vldr	s8, [r0, #-52]	; 0xffffffcc
 8005126:	ee67 4a84 	vmul.f32	s9, s15, s8
 800512a:	ee74 4a83 	vadd.f32	s9, s9, s6
 800512e:	ee25 5a85 	vmul.f32	s10, s11, s10
 8005132:	ee35 5a23 	vadd.f32	s10, s10, s7
 8005136:	ee67 3a04 	vmul.f32	s7, s14, s8
 800513a:	ee35 5a23 	vadd.f32	s10, s10, s7
 800513e:	ee26 3a24 	vmul.f32	s6, s12, s9
 8005142:	ee33 3a05 	vadd.f32	s6, s6, s10
 8005146:	ee66 3a84 	vmul.f32	s7, s13, s8
 800514a:	ed43 4a0d 	vstr	s9, [r3, #-52]	; 0xffffffcc
 800514e:	ed10 4a0c 	vldr	s8, [r0, #-48]	; 0xffffffd0
 8005152:	ee27 5a84 	vmul.f32	s10, s15, s8
 8005156:	ee35 5a03 	vadd.f32	s10, s10, s6
 800515a:	ee65 4aa4 	vmul.f32	s9, s11, s9
 800515e:	ee74 4aa3 	vadd.f32	s9, s9, s7
 8005162:	ee67 3a04 	vmul.f32	s7, s14, s8
 8005166:	ee74 4aa3 	vadd.f32	s9, s9, s7
 800516a:	ee26 3a05 	vmul.f32	s6, s12, s10
 800516e:	ee33 3a24 	vadd.f32	s6, s6, s9
 8005172:	ee66 3a84 	vmul.f32	s7, s13, s8
 8005176:	ed03 5a0c 	vstr	s10, [r3, #-48]	; 0xffffffd0
 800517a:	ed10 4a0b 	vldr	s8, [r0, #-44]	; 0xffffffd4
 800517e:	ee67 4a84 	vmul.f32	s9, s15, s8
 8005182:	ee74 4a83 	vadd.f32	s9, s9, s6
 8005186:	ee25 5a85 	vmul.f32	s10, s11, s10
 800518a:	ee35 5a23 	vadd.f32	s10, s10, s7
 800518e:	ee67 3a04 	vmul.f32	s7, s14, s8
 8005192:	ee35 5a23 	vadd.f32	s10, s10, s7
 8005196:	ee26 3a24 	vmul.f32	s6, s12, s9
 800519a:	ee33 3a05 	vadd.f32	s6, s6, s10
 800519e:	ee66 3a84 	vmul.f32	s7, s13, s8
 80051a2:	ed43 4a0b 	vstr	s9, [r3, #-44]	; 0xffffffd4
 80051a6:	ed10 4a0a 	vldr	s8, [r0, #-40]	; 0xffffffd8
 80051aa:	ee27 5a84 	vmul.f32	s10, s15, s8
 80051ae:	ee35 5a03 	vadd.f32	s10, s10, s6
 80051b2:	ee65 4aa4 	vmul.f32	s9, s11, s9
 80051b6:	ee74 4aa3 	vadd.f32	s9, s9, s7
 80051ba:	ee67 3a04 	vmul.f32	s7, s14, s8
 80051be:	ee74 4aa3 	vadd.f32	s9, s9, s7
 80051c2:	ee26 3a05 	vmul.f32	s6, s12, s10
 80051c6:	ee33 3a24 	vadd.f32	s6, s6, s9
 80051ca:	ee66 3a84 	vmul.f32	s7, s13, s8
 80051ce:	ed03 5a0a 	vstr	s10, [r3, #-40]	; 0xffffffd8
 80051d2:	ed10 4a09 	vldr	s8, [r0, #-36]	; 0xffffffdc
 80051d6:	ee67 4a84 	vmul.f32	s9, s15, s8
 80051da:	ee74 4a83 	vadd.f32	s9, s9, s6
 80051de:	ee25 5a85 	vmul.f32	s10, s11, s10
 80051e2:	ee35 5a23 	vadd.f32	s10, s10, s7
 80051e6:	ee67 3a04 	vmul.f32	s7, s14, s8
 80051ea:	ee35 5a23 	vadd.f32	s10, s10, s7
 80051ee:	ee26 3a24 	vmul.f32	s6, s12, s9
 80051f2:	ee33 3a05 	vadd.f32	s6, s6, s10
 80051f6:	ee66 3a84 	vmul.f32	s7, s13, s8
 80051fa:	ed43 4a09 	vstr	s9, [r3, #-36]	; 0xffffffdc
 80051fe:	ed10 4a08 	vldr	s8, [r0, #-32]	; 0xffffffe0
 8005202:	ee27 5a84 	vmul.f32	s10, s15, s8
 8005206:	ee35 5a03 	vadd.f32	s10, s10, s6
 800520a:	ee65 4aa4 	vmul.f32	s9, s11, s9
 800520e:	ee74 4aa3 	vadd.f32	s9, s9, s7
 8005212:	ee67 3a04 	vmul.f32	s7, s14, s8
 8005216:	ee74 4aa3 	vadd.f32	s9, s9, s7
 800521a:	ee26 3a05 	vmul.f32	s6, s12, s10
 800521e:	ee33 3a24 	vadd.f32	s6, s6, s9
 8005222:	ee66 3a84 	vmul.f32	s7, s13, s8
 8005226:	ed03 5a08 	vstr	s10, [r3, #-32]	; 0xffffffe0
 800522a:	ed10 4a07 	vldr	s8, [r0, #-28]	; 0xffffffe4
 800522e:	ee67 4a84 	vmul.f32	s9, s15, s8
 8005232:	ee74 4a83 	vadd.f32	s9, s9, s6
 8005236:	ee25 5a85 	vmul.f32	s10, s11, s10
 800523a:	ee35 5a23 	vadd.f32	s10, s10, s7
 800523e:	ee67 3a04 	vmul.f32	s7, s14, s8
 8005242:	ee35 5a23 	vadd.f32	s10, s10, s7
 8005246:	ee26 3a24 	vmul.f32	s6, s12, s9
 800524a:	ee33 3a05 	vadd.f32	s6, s6, s10
 800524e:	ee66 3a84 	vmul.f32	s7, s13, s8
 8005252:	ed43 4a07 	vstr	s9, [r3, #-28]	; 0xffffffe4
 8005256:	ed10 4a06 	vldr	s8, [r0, #-24]	; 0xffffffe8
 800525a:	ee27 5a84 	vmul.f32	s10, s15, s8
 800525e:	ee35 5a03 	vadd.f32	s10, s10, s6
 8005262:	ee65 4aa4 	vmul.f32	s9, s11, s9
 8005266:	ee74 4aa3 	vadd.f32	s9, s9, s7
 800526a:	ee67 3a04 	vmul.f32	s7, s14, s8
 800526e:	ee74 4aa3 	vadd.f32	s9, s9, s7
 8005272:	ee26 3a05 	vmul.f32	s6, s12, s10
 8005276:	ee33 3a24 	vadd.f32	s6, s6, s9
 800527a:	ee66 3a84 	vmul.f32	s7, s13, s8
 800527e:	ed03 5a06 	vstr	s10, [r3, #-24]	; 0xffffffe8
 8005282:	ed10 4a05 	vldr	s8, [r0, #-20]	; 0xffffffec
 8005286:	ee67 4a84 	vmul.f32	s9, s15, s8
 800528a:	ee74 4a83 	vadd.f32	s9, s9, s6
 800528e:	ee25 5a85 	vmul.f32	s10, s11, s10
 8005292:	ee35 5a23 	vadd.f32	s10, s10, s7
 8005296:	ee67 3a04 	vmul.f32	s7, s14, s8
 800529a:	ee35 5a23 	vadd.f32	s10, s10, s7
 800529e:	ee26 3a24 	vmul.f32	s6, s12, s9
 80052a2:	ee33 3a05 	vadd.f32	s6, s6, s10
 80052a6:	ee66 3a84 	vmul.f32	s7, s13, s8
 80052aa:	ed43 4a05 	vstr	s9, [r3, #-20]	; 0xffffffec
 80052ae:	ed10 4a04 	vldr	s8, [r0, #-16]
 80052b2:	ee27 5a84 	vmul.f32	s10, s15, s8
 80052b6:	ee35 5a03 	vadd.f32	s10, s10, s6
 80052ba:	ee65 4aa4 	vmul.f32	s9, s11, s9
 80052be:	ee74 4aa3 	vadd.f32	s9, s9, s7
 80052c2:	ee67 3a04 	vmul.f32	s7, s14, s8
 80052c6:	ee74 4aa3 	vadd.f32	s9, s9, s7
 80052ca:	ee26 3a05 	vmul.f32	s6, s12, s10
 80052ce:	ee33 3a24 	vadd.f32	s6, s6, s9
 80052d2:	ee66 3a84 	vmul.f32	s7, s13, s8
 80052d6:	ed03 5a04 	vstr	s10, [r3, #-16]
 80052da:	ed10 4a03 	vldr	s8, [r0, #-12]
 80052de:	ee67 4a84 	vmul.f32	s9, s15, s8
 80052e2:	ee74 4a83 	vadd.f32	s9, s9, s6
 80052e6:	ee25 5a85 	vmul.f32	s10, s11, s10
 80052ea:	ee35 5a23 	vadd.f32	s10, s10, s7
 80052ee:	ee67 3a04 	vmul.f32	s7, s14, s8
 80052f2:	ee35 5a23 	vadd.f32	s10, s10, s7
 80052f6:	ee26 3a24 	vmul.f32	s6, s12, s9
 80052fa:	ee33 3a05 	vadd.f32	s6, s6, s10
 80052fe:	ee66 3a84 	vmul.f32	s7, s13, s8
 8005302:	ed43 4a03 	vstr	s9, [r3, #-12]
 8005306:	ed10 4a02 	vldr	s8, [r0, #-8]
 800530a:	ee27 5a84 	vmul.f32	s10, s15, s8
 800530e:	ee35 5a03 	vadd.f32	s10, s10, s6
 8005312:	ee65 4aa4 	vmul.f32	s9, s11, s9
 8005316:	ee74 4aa3 	vadd.f32	s9, s9, s7
 800531a:	ee67 3a04 	vmul.f32	s7, s14, s8
 800531e:	ee74 4aa3 	vadd.f32	s9, s9, s7
 8005322:	ee26 3a05 	vmul.f32	s6, s12, s10
 8005326:	ee33 3a24 	vadd.f32	s6, s6, s9
 800532a:	ee66 3a84 	vmul.f32	s7, s13, s8
 800532e:	ed03 5a02 	vstr	s10, [r3, #-8]
 8005332:	ed10 4a01 	vldr	s8, [r0, #-4]
 8005336:	ee67 4a84 	vmul.f32	s9, s15, s8
 800533a:	ee74 4a83 	vadd.f32	s9, s9, s6
 800533e:	ee25 5a85 	vmul.f32	s10, s11, s10
 8005342:	ee35 5a23 	vadd.f32	s10, s10, s7
 8005346:	ee67 3a04 	vmul.f32	s7, s14, s8
 800534a:	ee35 5a23 	vadd.f32	s10, s10, s7
 800534e:	ee66 3a24 	vmul.f32	s7, s12, s9
 8005352:	ee73 3a85 	vadd.f32	s7, s7, s10
 8005356:	ee26 5a84 	vmul.f32	s10, s13, s8
 800535a:	ee25 4aa4 	vmul.f32	s8, s11, s9
 800535e:	ee34 4a05 	vadd.f32	s8, s8, s10
 8005362:	ed43 4a01 	vstr	s9, [r3, #-4]
 8005366:	3040      	adds	r0, #64	; 0x40
 8005368:	3340      	adds	r3, #64	; 0x40
 800536a:	3c01      	subs	r4, #1
 800536c:	f47f ae9b 	bne.w	80050a6 <arm_biquad_cascade_df2T_f32+0x52>
 8005370:	4449      	add	r1, r9
 8005372:	465b      	mov	r3, fp
 8005374:	f1b8 0f00 	cmp.w	r8, #0
 8005378:	d019      	beq.n	80053ae <arm_biquad_cascade_df2T_f32+0x35a>
 800537a:	eb01 000a 	add.w	r0, r1, sl
 800537e:	ecf1 2a01 	vldmia	r1!, {s5}
 8005382:	ee27 3aa2 	vmul.f32	s6, s15, s5
 8005386:	ee33 3a23 	vadd.f32	s6, s6, s7
 800538a:	ee67 3a22 	vmul.f32	s7, s14, s5
 800538e:	ee33 4a84 	vadd.f32	s8, s7, s8
 8005392:	ee26 5a03 	vmul.f32	s10, s12, s6
 8005396:	ee75 3a04 	vadd.f32	s7, s10, s8
 800539a:	ee66 2aa2 	vmul.f32	s5, s13, s5
 800539e:	ee25 4a83 	vmul.f32	s8, s11, s6
 80053a2:	ee34 4a22 	vadd.f32	s8, s8, s5
 80053a6:	eca3 3a01 	vstmia	r3!, {s6}
 80053aa:	4281      	cmp	r1, r0
 80053ac:	d1e7      	bne.n	800537e <arm_biquad_cascade_df2T_f32+0x32a>
 80053ae:	ed4c 3a02 	vstr	s7, [ip, #-8]
 80053b2:	ed0c 4a01 	vstr	s8, [ip, #-4]
 80053b6:	3514      	adds	r5, #20
 80053b8:	3608      	adds	r6, #8
 80053ba:	4611      	mov	r1, r2
 80053bc:	3f01      	subs	r7, #1
 80053be:	f47f ae5a 	bne.w	8005076 <arm_biquad_cascade_df2T_f32+0x22>
 80053c2:	e8bd 8ff0 	ldmia.w	sp!, {r4, r5, r6, r7, r8, r9, sl, fp, pc}
 80053c6:	4613      	mov	r3, r2
 80053c8:	e7d4      	b.n	8005374 <arm_biquad_cascade_df2T_f32+0x320>
	...

080053cc <arm_biquad_cascade_df2T_init_f32>:
 80053cc:	b510      	push	{r4, lr}
 80053ce:	4604      	mov	r4, r0
 80053d0:	4608      	mov	r0, r1
 80053d2:	2100      	movs	r1, #0
 80053d4:	60a2      	str	r2, [r4, #8]
 80053d6:	00c2      	lsls	r2, r0, #3
 80053d8:	7020      	strb	r0, [r4, #0]
 80053da:	4618      	mov	r0, r3
 80053dc:	f000 f9b0 	bl	8005740 <memset>
 80053e0:	6060      	str	r0, [r4, #4]
 80053e2:	bd10      	pop	{r4, pc}

080053e4 <arm_sub_f32>:
 80053e4:	ea5f 0c93 	movs.w	ip, r3, lsr #2
 80053e8:	b4f0      	push	{r4, r5, r6, r7}
 80053ea:	d033      	beq.n	8005454 <arm_sub_f32+0x70>
 80053ec:	f100 0610 	add.w	r6, r0, #16
 80053f0:	f101 0510 	add.w	r5, r1, #16
 80053f4:	f102 0410 	add.w	r4, r2, #16
 80053f8:	4667      	mov	r7, ip
 80053fa:	ed15 7a04 	vldr	s14, [r5, #-16]
 80053fe:	3f01      	subs	r7, #1
 8005400:	ed56 7a04 	vldr	s15, [r6, #-16]
 8005404:	f105 0510 	add.w	r5, r5, #16
 8005408:	f106 0610 	add.w	r6, r6, #16
 800540c:	f104 0410 	add.w	r4, r4, #16
 8005410:	ee77 7ac7 	vsub.f32	s15, s15, s14
 8005414:	ed44 7a08 	vstr	s15, [r4, #-32]	; 0xffffffe0
 8005418:	ed15 7a07 	vldr	s14, [r5, #-28]	; 0xffffffe4
 800541c:	ed56 7a07 	vldr	s15, [r6, #-28]	; 0xffffffe4
 8005420:	ee77 7ac7 	vsub.f32	s15, s15, s14
 8005424:	ed44 7a07 	vstr	s15, [r4, #-28]	; 0xffffffe4
 8005428:	ed15 7a06 	vldr	s14, [r5, #-24]	; 0xffffffe8
 800542c:	ed56 7a06 	vldr	s15, [r6, #-24]	; 0xffffffe8
 8005430:	ee77 7ac7 	vsub.f32	s15, s15, s14
 8005434:	ed44 7a06 	vstr	s15, [r4, #-24]	; 0xffffffe8
 8005438:	ed56 7a05 	vldr	s15, [r6, #-20]	; 0xffffffec
 800543c:	ed15 7a05 	vldr	s14, [r5, #-20]	; 0xffffffec
 8005440:	ee77 7ac7 	vsub.f32	s15, s15, s14
 8005444:	ed44 7a05 	vstr	s15, [r4, #-20]	; 0xffffffec
 8005448:	d1d7      	bne.n	80053fa <arm_sub_f32+0x16>
 800544a:	ea4f 140c 	mov.w	r4, ip, lsl #4
 800544e:	4420      	add	r0, r4
 8005450:	4421      	add	r1, r4
 8005452:	4422      	add	r2, r4
 8005454:	f013 0303 	ands.w	r3, r3, #3
 8005458:	d01b      	beq.n	8005492 <arm_sub_f32+0xae>
 800545a:	edd0 7a00 	vldr	s15, [r0]
 800545e:	3b01      	subs	r3, #1
 8005460:	ed91 7a00 	vldr	s14, [r1]
 8005464:	ee77 7ac7 	vsub.f32	s15, s15, s14
 8005468:	edc2 7a00 	vstr	s15, [r2]
 800546c:	d011      	beq.n	8005492 <arm_sub_f32+0xae>
 800546e:	edd0 7a01 	vldr	s15, [r0, #4]
 8005472:	2b01      	cmp	r3, #1
 8005474:	ed91 7a01 	vldr	s14, [r1, #4]
 8005478:	ee77 7ac7 	vsub.f32	s15, s15, s14
 800547c:	edc2 7a01 	vstr	s15, [r2, #4]
 8005480:	d007      	beq.n	8005492 <arm_sub_f32+0xae>
 8005482:	edd0 7a02 	vldr	s15, [r0, #8]
 8005486:	ed91 7a02 	vldr	s14, [r1, #8]
 800548a:	ee77 7ac7 	vsub.f32	s15, s15, s14
 800548e:	edc2 7a02 	vstr	s15, [r2, #8]
 8005492:	bcf0      	pop	{r4, r5, r6, r7}
 8005494:	4770      	bx	lr
 8005496:	bf00      	nop

08005498 <arm_mult_f32>:
 8005498:	ea5f 0c93 	movs.w	ip, r3, lsr #2
 800549c:	b4f0      	push	{r4, r5, r6, r7}
 800549e:	d033      	beq.n	8005508 <arm_mult_f32+0x70>
 80054a0:	f100 0610 	add.w	r6, r0, #16
 80054a4:	f101 0510 	add.w	r5, r1, #16
 80054a8:	f102 0410 	add.w	r4, r2, #16
 80054ac:	4667      	mov	r7, ip
 80054ae:	ed15 7a04 	vldr	s14, [r5, #-16]
 80054b2:	3f01      	subs	r7, #1
 80054b4:	ed56 7a04 	vldr	s15, [r6, #-16]
 80054b8:	f105 0510 	add.w	r5, r5, #16
 80054bc:	f106 0610 	add.w	r6, r6, #16
 80054c0:	f104 0410 	add.w	r4, r4, #16
 80054c4:	ee67 7a87 	vmul.f32	s15, s15, s14
 80054c8:	ed44 7a08 	vstr	s15, [r4, #-32]	; 0xffffffe0
 80054cc:	ed15 7a07 	vldr	s14, [r5, #-28]	; 0xffffffe4
 80054d0:	ed56 7a07 	vldr	s15, [r6, #-28]	; 0xffffffe4
 80054d4:	ee67 7a87 	vmul.f32	s15, s15, s14
 80054d8:	ed44 7a07 	vstr	s15, [r4, #-28]	; 0xffffffe4
 80054dc:	ed15 7a06 	vldr	s14, [r5, #-24]	; 0xffffffe8
 80054e0:	ed56 7a06 	vldr	s15, [r6, #-24]	; 0xffffffe8
 80054e4:	ee67 7a87 	vmul.f32	s15, s15, s14
 80054e8:	ed44 7a06 	vstr	s15, [r4, #-24]	; 0xffffffe8
 80054ec:	ed56 7a05 	vldr	s15, [r6, #-20]	; 0xffffffec
 80054f0:	ed15 7a05 	vldr	s14, [r5, #-20]	; 0xffffffec
 80054f4:	ee67 7a87 	vmul.f32	s15, s15, s14
 80054f8:	ed44 7a05 	vstr	s15, [r4, #-20]	; 0xffffffec
 80054fc:	d1d7      	bne.n	80054ae <arm_mult_f32+0x16>
 80054fe:	ea4f 140c 	mov.w	r4, ip, lsl #4
 8005502:	4420      	add	r0, r4
 8005504:	4421      	add	r1, r4
 8005506:	4422      	add	r2, r4
 8005508:	f013 0303 	ands.w	r3, r3, #3
 800550c:	d01b      	beq.n	8005546 <arm_mult_f32+0xae>
 800550e:	edd1 7a00 	vldr	s15, [r1]
 8005512:	3b01      	subs	r3, #1
 8005514:	ed90 7a00 	vldr	s14, [r0]
 8005518:	ee67 7a87 	vmul.f32	s15, s15, s14
 800551c:	edc2 7a00 	vstr	s15, [r2]
 8005520:	d011      	beq.n	8005546 <arm_mult_f32+0xae>
 8005522:	edd0 7a01 	vldr	s15, [r0, #4]
 8005526:	2b01      	cmp	r3, #1
 8005528:	ed91 7a01 	vldr	s14, [r1, #4]
 800552c:	ee67 7a87 	vmul.f32	s15, s15, s14
 8005530:	edc2 7a01 	vstr	s15, [r2, #4]
 8005534:	d007      	beq.n	8005546 <arm_mult_f32+0xae>
 8005536:	edd0 7a02 	vldr	s15, [r0, #8]
 800553a:	ed91 7a02 	vldr	s14, [r1, #8]
 800553e:	ee67 7a87 	vmul.f32	s15, s15, s14
 8005542:	edc2 7a02 	vstr	s15, [r2, #8]
 8005546:	bcf0      	pop	{r4, r5, r6, r7}
 8005548:	4770      	bx	lr
 800554a:	bf00      	nop

0800554c <arm_dot_prod_f32>:
 800554c:	b4f0      	push	{r4, r5, r6, r7}
 800554e:	0897      	lsrs	r7, r2, #2
 8005550:	d052      	beq.n	80055f8 <arm_dot_prod_f32+0xac>
 8005552:	f100 0510 	add.w	r5, r0, #16
 8005556:	f101 0410 	add.w	r4, r1, #16
 800555a:	463e      	mov	r6, r7
 800555c:	eddf 7a28 	vldr	s15, [pc, #160]	; 8005600 <arm_dot_prod_f32+0xb4>
 8005560:	ed14 7a04 	vldr	s14, [r4, #-16]
 8005564:	3e01      	subs	r6, #1
 8005566:	ed15 6a04 	vldr	s12, [r5, #-16]
 800556a:	f104 0410 	add.w	r4, r4, #16
 800556e:	ed54 5a07 	vldr	s11, [r4, #-28]	; 0xffffffe4
 8005572:	f105 0510 	add.w	r5, r5, #16
 8005576:	ee26 6a07 	vmul.f32	s12, s12, s14
 800557a:	ed55 6a07 	vldr	s13, [r5, #-28]	; 0xffffffe4
 800557e:	ed15 7a06 	vldr	s14, [r5, #-24]	; 0xffffffe8
 8005582:	ee66 6aa5 	vmul.f32	s13, s13, s11
 8005586:	ed54 5a06 	vldr	s11, [r4, #-24]	; 0xffffffe8
 800558a:	ee36 6a27 	vadd.f32	s12, s12, s15
 800558e:	ed55 7a05 	vldr	s15, [r5, #-20]	; 0xffffffec
 8005592:	ee27 7a25 	vmul.f32	s14, s14, s11
 8005596:	ed54 5a05 	vldr	s11, [r4, #-20]	; 0xffffffec
 800559a:	ee76 6a86 	vadd.f32	s13, s13, s12
 800559e:	ee67 7aa5 	vmul.f32	s15, s15, s11
 80055a2:	ee37 7a26 	vadd.f32	s14, s14, s13
 80055a6:	ee77 7a87 	vadd.f32	s15, s15, s14
 80055aa:	d1d9      	bne.n	8005560 <arm_dot_prod_f32+0x14>
 80055ac:	013f      	lsls	r7, r7, #4
 80055ae:	4438      	add	r0, r7
 80055b0:	4439      	add	r1, r7
 80055b2:	f012 0203 	ands.w	r2, r2, #3
 80055b6:	d01b      	beq.n	80055f0 <arm_dot_prod_f32+0xa4>
 80055b8:	ed91 7a00 	vldr	s14, [r1]
 80055bc:	3a01      	subs	r2, #1
 80055be:	edd0 6a00 	vldr	s13, [r0]
 80055c2:	ee27 7a26 	vmul.f32	s14, s14, s13
 80055c6:	ee77 7a87 	vadd.f32	s15, s15, s14
 80055ca:	d011      	beq.n	80055f0 <arm_dot_prod_f32+0xa4>
 80055cc:	ed91 7a01 	vldr	s14, [r1, #4]
 80055d0:	2a01      	cmp	r2, #1
 80055d2:	edd0 6a01 	vldr	s13, [r0, #4]
 80055d6:	ee27 7a26 	vmul.f32	s14, s14, s13
 80055da:	ee77 7a87 	vadd.f32	s15, s15, s14
 80055de:	d007      	beq.n	80055f0 <arm_dot_prod_f32+0xa4>
 80055e0:	ed90 7a02 	vldr	s14, [r0, #8]
 80055e4:	edd1 6a02 	vldr	s13, [r1, #8]
 80055e8:	ee27 7a26 	vmul.f32	s14, s14, s13
 80055ec:	ee77 7a87 	vadd.f32	s15, s15, s14
 80055f0:	edc3 7a00 	vstr	s15, [r3]
 80055f4:	bcf0      	pop	{r4, r5, r6, r7}
 80055f6:	4770      	bx	lr
 80055f8:	eddf 7a01 	vldr	s15, [pc, #4]	; 8005600 <arm_dot_prod_f32+0xb4>
 80055fc:	e7d9      	b.n	80055b2 <arm_dot_prod_f32+0x66>
 80055fe:	bf00      	nop
 8005600:	00000000 	.word	0x00000000

08005604 <arm_add_f32>:
 8005604:	ea5f 0c93 	movs.w	ip, r3, lsr #2
 8005608:	b4f0      	push	{r4, r5, r6, r7}
 800560a:	d033      	beq.n	8005674 <arm_add_f32+0x70>
 800560c:	f100 0610 	add.w	r6, r0, #16
 8005610:	f101 0510 	add.w	r5, r1, #16
 8005614:	f102 0410 	add.w	r4, r2, #16
 8005618:	4667      	mov	r7, ip
 800561a:	ed15 7a04 	vldr	s14, [r5, #-16]
 800561e:	3f01      	subs	r7, #1
 8005620:	ed56 7a04 	vldr	s15, [r6, #-16]
 8005624:	f105 0510 	add.w	r5, r5, #16
 8005628:	f106 0610 	add.w	r6, r6, #16
 800562c:	f104 0410 	add.w	r4, r4, #16
 8005630:	ee77 7a87 	vadd.f32	s15, s15, s14
 8005634:	ed44 7a08 	vstr	s15, [r4, #-32]	; 0xffffffe0
 8005638:	ed15 7a07 	vldr	s14, [r5, #-28]	; 0xffffffe4
 800563c:	ed56 7a07 	vldr	s15, [r6, #-28]	; 0xffffffe4
 8005640:	ee77 7a87 	vadd.f32	s15, s15, s14
 8005644:	ed44 7a07 	vstr	s15, [r4, #-28]	; 0xffffffe4
 8005648:	ed15 7a06 	vldr	s14, [r5, #-24]	; 0xffffffe8
 800564c:	ed56 7a06 	vldr	s15, [r6, #-24]	; 0xffffffe8
 8005650:	ee77 7a87 	vadd.f32	s15, s15, s14
 8005654:	ed44 7a06 	vstr	s15, [r4, #-24]	; 0xffffffe8
 8005658:	ed56 7a05 	vldr	s15, [r6, #-20]	; 0xffffffec
 800565c:	ed15 7a05 	vldr	s14, [r5, #-20]	; 0xffffffec
 8005660:	ee77 7a87 	vadd.f32	s15, s15, s14
 8005664:	ed44 7a05 	vstr	s15, [r4, #-20]	; 0xffffffec
 8005668:	d1d7      	bne.n	800561a <arm_add_f32+0x16>
 800566a:	ea4f 140c 	mov.w	r4, ip, lsl #4
 800566e:	4420      	add	r0, r4
 8005670:	4421      	add	r1, r4
 8005672:	4422      	add	r2, r4
 8005674:	f013 0303 	ands.w	r3, r3, #3
 8005678:	d01b      	beq.n	80056b2 <arm_add_f32+0xae>
 800567a:	edd1 7a00 	vldr	s15, [r1]
 800567e:	3b01      	subs	r3, #1
 8005680:	ed90 7a00 	vldr	s14, [r0]
 8005684:	ee77 7a87 	vadd.f32	s15, s15, s14
 8005688:	edc2 7a00 	vstr	s15, [r2]
 800568c:	d011      	beq.n	80056b2 <arm_add_f32+0xae>
 800568e:	edd0 7a01 	vldr	s15, [r0, #4]
 8005692:	2b01      	cmp	r3, #1
 8005694:	ed91 7a01 	vldr	s14, [r1, #4]
 8005698:	ee77 7a87 	vadd.f32	s15, s15, s14
 800569c:	edc2 7a01 	vstr	s15, [r2, #4]
 80056a0:	d007      	beq.n	80056b2 <arm_add_f32+0xae>
 80056a2:	edd0 7a02 	vldr	s15, [r0, #8]
 80056a6:	ed91 7a02 	vldr	s14, [r1, #8]
 80056aa:	ee77 7a87 	vadd.f32	s15, s15, s14
 80056ae:	edc2 7a02 	vstr	s15, [r2, #8]
 80056b2:	bcf0      	pop	{r4, r5, r6, r7}
 80056b4:	4770      	bx	lr
 80056b6:	bf00      	nop

080056b8 <arm_abs_f32>:
 80056b8:	b470      	push	{r4, r5, r6}
 80056ba:	0896      	lsrs	r6, r2, #2
 80056bc:	d025      	beq.n	800570a <arm_abs_f32+0x52>
 80056be:	f100 0410 	add.w	r4, r0, #16
 80056c2:	f101 0310 	add.w	r3, r1, #16
 80056c6:	4635      	mov	r5, r6
 80056c8:	ed54 7a04 	vldr	s15, [r4, #-16]
 80056cc:	3d01      	subs	r5, #1
 80056ce:	f104 0410 	add.w	r4, r4, #16
 80056d2:	f103 0310 	add.w	r3, r3, #16
 80056d6:	eef0 7ae7 	vabs.f32	s15, s15
 80056da:	ed43 7a08 	vstr	s15, [r3, #-32]	; 0xffffffe0
 80056de:	ed54 7a07 	vldr	s15, [r4, #-28]	; 0xffffffe4
 80056e2:	eef0 7ae7 	vabs.f32	s15, s15
 80056e6:	ed43 7a07 	vstr	s15, [r3, #-28]	; 0xffffffe4
 80056ea:	ed54 7a06 	vldr	s15, [r4, #-24]	; 0xffffffe8
 80056ee:	eef0 7ae7 	vabs.f32	s15, s15
 80056f2:	ed43 7a06 	vstr	s15, [r3, #-24]	; 0xffffffe8
 80056f6:	ed54 7a05 	vldr	s15, [r4, #-20]	; 0xffffffec
 80056fa:	eef0 7ae7 	vabs.f32	s15, s15
 80056fe:	ed43 7a05 	vstr	s15, [r3, #-20]	; 0xffffffec
 8005702:	d1e1      	bne.n	80056c8 <arm_abs_f32+0x10>
 8005704:	0136      	lsls	r6, r6, #4
 8005706:	4430      	add	r0, r6
 8005708:	4431      	add	r1, r6
 800570a:	f012 0203 	ands.w	r2, r2, #3
 800570e:	d015      	beq.n	800573c <arm_abs_f32+0x84>
 8005710:	edd0 7a00 	vldr	s15, [r0]
 8005714:	3a01      	subs	r2, #1
 8005716:	eef0 7ae7 	vabs.f32	s15, s15
 800571a:	edc1 7a00 	vstr	s15, [r1]
 800571e:	d00d      	beq.n	800573c <arm_abs_f32+0x84>
 8005720:	edd0 7a01 	vldr	s15, [r0, #4]
 8005724:	2a01      	cmp	r2, #1
 8005726:	eef0 7ae7 	vabs.f32	s15, s15
 800572a:	edc1 7a01 	vstr	s15, [r1, #4]
 800572e:	d005      	beq.n	800573c <arm_abs_f32+0x84>
 8005730:	edd0 7a02 	vldr	s15, [r0, #8]
 8005734:	eef0 7ae7 	vabs.f32	s15, s15
 8005738:	edc1 7a02 	vstr	s15, [r1, #8]
 800573c:	bc70      	pop	{r4, r5, r6}
 800573e:	4770      	bx	lr

08005740 <memset>:
 8005740:	4402      	add	r2, r0
 8005742:	4603      	mov	r3, r0
 8005744:	4293      	cmp	r3, r2
 8005746:	d100      	bne.n	800574a <memset+0xa>
 8005748:	4770      	bx	lr
 800574a:	f803 1b01 	strb.w	r1, [r3], #1
 800574e:	e7f9      	b.n	8005744 <memset+0x4>

08005750 <__libc_init_array>:
 8005750:	b570      	push	{r4, r5, r6, lr}
 8005752:	4d0d      	ldr	r5, [pc, #52]	; (8005788 <__libc_init_array+0x38>)
 8005754:	4c0d      	ldr	r4, [pc, #52]	; (800578c <__libc_init_array+0x3c>)
 8005756:	1b64      	subs	r4, r4, r5
 8005758:	10a4      	asrs	r4, r4, #2
 800575a:	2600      	movs	r6, #0
 800575c:	42a6      	cmp	r6, r4
 800575e:	d109      	bne.n	8005774 <__libc_init_array+0x24>
 8005760:	4d0b      	ldr	r5, [pc, #44]	; (8005790 <__libc_init_array+0x40>)
 8005762:	4c0c      	ldr	r4, [pc, #48]	; (8005794 <__libc_init_array+0x44>)
 8005764:	f000 f818 	bl	8005798 <_init>
 8005768:	1b64      	subs	r4, r4, r5
 800576a:	10a4      	asrs	r4, r4, #2
 800576c:	2600      	movs	r6, #0
 800576e:	42a6      	cmp	r6, r4
 8005770:	d105      	bne.n	800577e <__libc_init_array+0x2e>
 8005772:	bd70      	pop	{r4, r5, r6, pc}
 8005774:	f855 3b04 	ldr.w	r3, [r5], #4
 8005778:	4798      	blx	r3
 800577a:	3601      	adds	r6, #1
 800577c:	e7ee      	b.n	800575c <__libc_init_array+0xc>
 800577e:	f855 3b04 	ldr.w	r3, [r5], #4
 8005782:	4798      	blx	r3
 8005784:	3601      	adds	r6, #1
 8005786:	e7f2      	b.n	800576e <__libc_init_array+0x1e>
 8005788:	080057c8 	.word	0x080057c8
 800578c:	080057c8 	.word	0x080057c8
 8005790:	080057c8 	.word	0x080057c8
 8005794:	080057cc 	.word	0x080057cc

08005798 <_init>:
 8005798:	b5f8      	push	{r3, r4, r5, r6, r7, lr}
 800579a:	bf00      	nop
 800579c:	bcf8      	pop	{r3, r4, r5, r6, r7}
 800579e:	bc08      	pop	{r3}
 80057a0:	469e      	mov	lr, r3
 80057a2:	4770      	bx	lr

080057a4 <_fini>:
 80057a4:	b5f8      	push	{r3, r4, r5, r6, r7, lr}
 80057a6:	bf00      	nop
 80057a8:	bcf8      	pop	{r3, r4, r5, r6, r7}
 80057aa:	bc08      	pop	{r3}
 80057ac:	469e      	mov	lr, r3
 80057ae:	4770      	bx	lr
